 midi

 Timestamp is 575abdef (Fri Jun 10 21:17:35 2016)

 Preferred load address is 0000000180000000

 Start         Length     Name                   Class
 0001:00000000 00000190H .text$di                CODE
 0001:00000190 000245c3H .text$mn                CODE
 0001:00024760 00000d20H .text$x                 CODE
 0001:00025480 00000148H .text$yd                CODE
 0002:00000000 000002f8H .idata$5                DATA
 0002:000002f8 00000008H .CRT$XCA                DATA
 0002:00000300 00000038H .CRT$XCC                DATA
 0002:00000338 00000010H .CRT$XCL                DATA
 0002:00000348 00000028H .CRT$XCU                DATA
 0002:00000370 00000008H .CRT$XCZ                DATA
 0002:00000378 00000008H .CRT$XIA                DATA
 0002:00000380 00000020H .CRT$XIC                DATA
 0002:000003a0 00000008H .CRT$XIZ                DATA
 0002:000003a8 00000008H .CRT$XPA                DATA
 0002:000003b0 00000010H .CRT$XPX                DATA
 0002:000003c0 00000008H .CRT$XPXA               DATA
 0002:000003c8 00000008H .CRT$XPZ                DATA
 0002:000003d0 00000008H .CRT$XTA                DATA
 0002:000003d8 00000008H .CRT$XTZ                DATA
 0002:000003e0 0000a570H .rdata                  DATA
 0002:0000a950 0000007cH .rdata$debug            DATA
 0002:0000a9d0 00000df4H .rdata$r                DATA
 0002:0000b7c8 00000008H .rtc$IAA                DATA
 0002:0000b7d0 00000008H .rtc$IZZ                DATA
 0002:0000b7d8 00000008H .rtc$TAA                DATA
 0002:0000b7e0 00000008H .rtc$TZZ                DATA
 0002:0000b7f0 0000304cH .xdata                  DATA
 0002:0000e840 000002c4H .xdata$x                DATA
 0002:0000eb04 00000020H .didat$2                DATA
 0002:0000eb24 00000020H .didat$3                DATA
 0002:0000eb48 00000208H .didat$4                DATA
 0002:0000ed50 00000f28H .didat$6                DATA
 0002:0000fc78 00000208H .didat$7                DATA
 0002:0000fe80 0000004cH .edata                  DATA
 0002:0000fecc 00000028H .idata$2                DATA
 0002:0000fef4 00000014H .idata$3                DATA
 0002:0000ff08 000002f8H .idata$4                DATA
 0002:00010200 000006d0H .idata$6                DATA
 0003:00000000 00001c98H .data                   DATA
 0003:00001ca0 0000055fH .data$r                 DATA
 0003:00002200 00000208H .didat$5                DATA
 0003:00002420 00002a08H .bss                    DATA
 0004:00000000 00001eccH .pdata                  DATA
 0005:00000000 00000058H .rsrc$01                DATA
 0005:00000060 00000180H .rsrc$02                DATA

  Address         Publics by Value              Rva+Base               Lib:Object

 0000:00000000       __guard_fids_count         0000000000000000     <absolute>
 0000:00000000       ___safe_se_handler_count   0000000000000000     <absolute>
 0000:00000000       __guard_flags              0000000000000000     <absolute>
 0000:00000000       __guard_fids_table         0000000000000000     <absolute>
 0000:00000000       ___safe_se_handler_table   0000000000000000     <absolute>
 0000:00000000       __ImageBase                0000000180000000     <linker-defined>
 0001:00000190       ??0exception@stdext@@QEAA@AEBV01@@Z 0000000180001190 f i node-midi.obj
 0001:000001b0       ??1runtime_error@std@@UEAA@XZ 00000001800011b0 f i node-midi.obj
 0001:000001b0       ??1failure@ios_base@std@@UEAA@XZ 00000001800011b0 f i node-midi.obj
 0001:000001b0       ??1exception@stdext@@UEAA@XZ 00000001800011b0 f i node-midi.obj
 0001:000001c0       ?what@exception@stdext@@UEBAPEBDXZ 00000001800011c0 f i node-midi.obj
 0001:000001e0       ?_Raise@exception@stdext@@QEBAXXZ 00000001800011e0 f i node-midi.obj
 0001:00000220       ?_Lock@?$basic_streambuf@DU?$char_traits@D@std@@@std@@UEAAXXZ 0000000180001220 f i node-midi.obj
 0001:00000220       ??1?$Persistent@VObject@v8@@V?$NonCopyablePersistentTraits@VObject@v8@@@2@@Nan@@QEAA@XZ 0000000180001220 f i node-midi.obj
 0001:00000220       ?_Unlock@?$basic_streambuf@DU?$char_traits@D@std@@@std@@UEAAXXZ 0000000180001220 f i node-midi.obj
 0001:00000220       ?imbue@?$basic_streambuf@DU?$char_traits@D@std@@@std@@MEAAXAEBVlocale@2@@Z 0000000180001220 f i node-midi.obj
 0001:00000220       ?_Doraise@exception@stdext@@MEBAXXZ 0000000180001220 f i node-midi.obj
 0001:00000230       ??_Gfailure@ios_base@std@@UEAAPEAXI@Z 0000000180001230 f i node-midi.obj
 0001:00000230       ??_Eruntime_error@std@@UEAAPEAXI@Z 0000000180001230 f i * CIL library *:* CIL module *
 0001:00000230       ??_Gruntime_error@std@@UEAAPEAXI@Z 0000000180001230 f i node-midi.obj
 0001:00000230       ??_Esystem_error@std@@UEAAPEAXI@Z 0000000180001230 f i * CIL library *:* CIL module *
 0001:00000230       ??_Gexception@stdext@@UEAAPEAXI@Z 0000000180001230 f i node-midi.obj
 0001:00000230       ??_E_System_error@std@@UEAAPEAXI@Z 0000000180001230 f i * CIL library *:* CIL module *
 0001:00000230       ??_Eexception@stdext@@UEAAPEAXI@Z 0000000180001230 f i * CIL library *:* CIL module *
 0001:00000230       ??_Gsystem_error@std@@UEAAPEAXI@Z 0000000180001230 f i node-midi.obj
 0001:00000230       ??_G_System_error@std@@UEAAPEAXI@Z 0000000180001230 f i node-midi.obj
 0001:00000230       ??_Efailure@ios_base@std@@UEAAPEAXI@Z 0000000180001230 f i * CIL library *:* CIL module *
 0001:00000260       ??0_Locinfo@std@@QEAA@PEBD@Z 0000000180001260 f i node-midi.obj
 0001:00000300       ??1_Locinfo@std@@QEAA@XZ   0000000180001300 f i node-midi.obj
 0001:000003a0       ??_E?$codecvt@DDH@std@@MEAAPEAXI@Z 00000001800013a0 f i libcpmt:cerr.obj
 0001:000003a0       ??_G?$num_put@DV?$ostreambuf_iterator@DU?$char_traits@D@std@@@std@@@std@@MEAAPEAXI@Z 00000001800013a0 f i node-midi.obj
 0001:000003a0       ??_E?$num_put@DV?$ostreambuf_iterator@DU?$char_traits@D@std@@@std@@@std@@MEAAPEAXI@Z 00000001800013a0 f i * CIL library *:* CIL module *
 0001:000003a0       ??_E_Facet_base@std@@UEAAPEAXI@Z 00000001800013a0 f i * CIL library *:* CIL module *
 0001:000003a0       ??_G?$codecvt@DDH@std@@MEAAPEAXI@Z 00000001800013a0 f i libcpmt:cerr.obj
 0001:000003a0       ??_G_Facet_base@std@@UEAAPEAXI@Z 00000001800013a0 f i node-midi.obj
 0001:000003d0       ?_Incref@facet@locale@std@@UEAAXXZ 00000001800013d0 f i node-midi.obj
 0001:000003e0       ?_Decref@facet@locale@std@@UEAAPEAV_Facet_base@3@XZ 00000001800013e0 f i node-midi.obj
 0001:000003f0       ??1facet@locale@std@@MEAA@XZ 00000001800013f0 f i node-midi.obj
 0001:00000400       ??1locale@std@@QEAA@XZ     0000000180001400 f i node-midi.obj
 0001:00000430       ?_Getcat@?$ctype@D@std@@SA_KPEAPEBVfacet@locale@2@PEBV42@@Z 0000000180001430 f i node-midi.obj
 0001:00000520       ?do_tolower@?$ctype@D@std@@MEBADD@Z 0000000180001520 f i node-midi.obj
 0001:00000530       ?do_tolower@?$ctype@D@std@@MEBAPEBDPEADPEBD@Z 0000000180001530 f i node-midi.obj
 0001:000005a0       ?do_toupper@?$ctype@D@std@@MEBADD@Z 00000001800015a0 f i node-midi.obj
 0001:000005b0       ?do_toupper@?$ctype@D@std@@MEBAPEBDPEADPEBD@Z 00000001800015b0 f i node-midi.obj
 0001:00000620       ?do_widen@?$ctype@D@std@@MEBADD@Z 0000000180001620 f i node-midi.obj
 0001:00000620       ?do_narrow@?$ctype@D@std@@MEBADDD@Z 0000000180001620 f i node-midi.obj
 0001:00000630       ?do_widen@?$ctype@D@std@@MEBAPEBDPEBD0PEAD@Z 0000000180001630 f i node-midi.obj
 0001:00000650       ?do_narrow@?$ctype@D@std@@MEBAPEBDPEBD0DPEAD@Z 0000000180001650 f i node-midi.obj
 0001:00000670       ??_E?$ctype@D@std@@MEAAPEAXI@Z 0000000180001670 f i * CIL library *:* CIL module *
 0001:00000670       ??_G?$ctype@D@std@@MEAAPEAXI@Z 0000000180001670 f i node-midi.obj
 0001:000006e0       ?message@error_code@std@@QEBA?AV?$basic_string@DU?$char_traits@D@std@@V?$allocator@D@2@@2@XZ 00000001800016e0 f i node-midi.obj
 0001:00000710       ?_Makestr@_System_error@std@@CA?AV?$basic_string@DU?$char_traits@D@std@@V?$allocator@D@2@@2@Verror_code@2@V32@@Z 0000000180001710 f i node-midi.obj
 0001:000007e0       ??0system_error@std@@QEAA@Verror_code@1@PEBD@Z 00000001800017e0 f i node-midi.obj
 0001:00000930       ?clear@ios_base@std@@QEAAXH_N@Z 0000000180001930 f i node-midi.obj
 0001:00000a10       ?getloc@ios_base@std@@QEBA?AVlocale@2@XZ 0000000180001a10 f i node-midi.obj
 0001:00000a40       ?_Init@ios_base@std@@IEAAXXZ 0000000180001a40 f i node-midi.obj
 0001:00000ad0       ??_Gios_base@std@@UEAAPEAXI@Z 0000000180001ad0 f i node-midi.obj
 0001:00000ad0       ??_G?$basic_ios@DU?$char_traits@D@std@@@std@@UEAAPEAXI@Z 0000000180001ad0 f i node-midi.obj
 0001:00000ad0       ??_Eios_base@std@@UEAAPEAXI@Z 0000000180001ad0 f i * CIL library *:* CIL module *
 0001:00000ad0       ??_E?$basic_ios@DU?$char_traits@D@std@@@std@@UEAAPEAXI@Z 0000000180001ad0 f i * CIL library *:* CIL module *
 0001:00000bc0       ?New@?$Factory@VFunctionTemplate@v8@@@imp@Nan@@SA?AV?$Local@VFunctionTemplate@v8@@@v8@@P6AXAEBV?$FunctionCallbackInfo@VValue@v8@@@3@@ZV?$Local@VValue@v8@@@5@V?$Local@VSignature@v8@@@5@@Z 0000000180001bc0 f i node-midi.obj
 0001:00000d50       ??1HandleScope@Nan@@QEAA@XZ 0000000180001d50 f i node-midi.obj
 0001:00000d60       ??1ObjectWrap@Nan@@UEAA@XZ 0000000180001d60 f i node-midi.obj
 0001:00000de0       ?Wrap@ObjectWrap@Nan@@IEAAXV?$Local@VObject@v8@@@v8@@@Z 0000000180001de0 f i node-midi.obj
 0001:00000ec0       ?Ref@ObjectWrap@Nan@@MEAAXXZ 0000000180001ec0 f i node-midi.obj
 0001:00000f00       ?Unref@ObjectWrap@Nan@@MEAAXXZ 0000000180001f00 f i node-midi.obj
 0001:00000fb0       ?WeakCallback@ObjectWrap@Nan@@CAXAEBV?$WeakCallbackInfo@VObjectWrap@Nan@@@v8@@@Z 0000000180001fb0 f i node-midi.obj
 0001:00001040       ??_GObjectWrap@Nan@@UEAAPEAXI@Z 0000000180002040 f i node-midi.obj
 0001:00001040       ??_EObjectWrap@Nan@@UEAAPEAXI@Z 0000000180002040 f i * CIL library *:* CIL module *
 0001:00001070       ??1RtMidiError@@UEAA@XZ    0000000180002070 f i node-midi.obj
 0001:000010c0       ?printMessage@RtMidiError@@UEBAXXZ 00000001800020c0 f i node-midi.obj
 0001:000010f0       ?getType@RtMidiError@@UEBAAEBW4Type@1@XZ 00000001800020f0 f i node-midi.obj
 0001:00001100       ?getMessage@RtMidiError@@UEBAAEBV?$basic_string@DU?$char_traits@D@std@@V?$allocator@D@2@@std@@XZ 0000000180002100 f i node-midi.obj
 0001:00001110       ?what@RtMidiError@@UEBAPEBDXZ 0000000180002110 f i node-midi.obj
 0001:00001120       ??_ERtMidiError@@UEAAPEAXI@Z 0000000180002120 f i * CIL library *:* CIL module *
 0001:00001120       ??_GRtMidiError@@UEAAPEAXI@Z 0000000180002120 f i node-midi.obj
 0001:00001190       ??0MidiMessage@MidiInApi@@QEAA@XZ 0000000180002190 f i node-midi.obj
 0001:000011b0       ??1MidiMessage@MidiInApi@@QEAA@XZ 00000001800021b0 f i node-midi.obj
 0001:000011b0       ??1?$vector@EV?$allocator@E@std@@@std@@QEAA@XZ 00000001800021b0 f i node-midi.obj
 0001:000011b0       ??1?$vector@W4Api@RtMidi@@V?$allocator@W4Api@RtMidi@@@std@@@std@@QEAA@XZ 00000001800021b0 f i node-midi.obj
 0001:000011e0       ?openPort@RtMidiIn@@UEAAXIV?$basic_string@DU?$char_traits@D@std@@V?$allocator@D@2@@std@@@Z 00000001800021e0 f i node-midi.obj
 0001:000011e0       ?openPort@RtMidiOut@@UEAAXIV?$basic_string@DU?$char_traits@D@std@@V?$allocator@D@2@@std@@@Z 00000001800021e0 f i node-midi.obj
 0001:00001290       ?openVirtualPort@RtMidiIn@@UEAAXV?$basic_string@DU?$char_traits@D@std@@V?$allocator@D@2@@std@@@Z 0000000180002290 f i node-midi.obj
 0001:00001290       ?openVirtualPort@RtMidiOut@@UEAAXV?$basic_string@DU?$char_traits@D@std@@V?$allocator@D@2@@std@@@Z 0000000180002290 f i node-midi.obj
 0001:00001330       ?closePort@RtMidiOut@@UEAAXXZ 0000000180002330 f i node-midi.obj
 0001:00001330       ?closePort@RtMidiIn@@UEAAXXZ 0000000180002330 f i node-midi.obj
 0001:00001340       ?isPortOpen@RtMidiIn@@UEBA_NXZ 0000000180002340 f i node-midi.obj
 0001:00001340       ?isPortOpen@RtMidiOut@@UEBA_NXZ 0000000180002340 f i node-midi.obj
 0001:00001350       ?getPortCount@RtMidiOut@@UEAAIXZ 0000000180002350 f i node-midi.obj
 0001:00001350       ?getPortCount@RtMidiIn@@UEAAIXZ 0000000180002350 f i node-midi.obj
 0001:00001360       ?getPortName@RtMidiIn@@UEAA?AV?$basic_string@DU?$char_traits@D@std@@V?$allocator@D@2@@std@@I@Z 0000000180002360 f i node-midi.obj
 0001:00001360       ?getPortName@RtMidiOut@@UEAA?AV?$basic_string@DU?$char_traits@D@std@@V?$allocator@D@2@@std@@I@Z 0000000180002360 f i node-midi.obj
 0001:00001390       ?setErrorCallback@RtMidiOut@@UEAAXP6AXW4Type@RtMidiError@@AEBV?$basic_string@DU?$char_traits@D@std@@V?$allocator@D@2@@std@@@Z@Z 0000000180002390 f i node-midi.obj
 0001:00001390       ?setErrorCallback@RtMidiIn@@UEAAXP6AXW4Type@RtMidiError@@AEBV?$basic_string@DU?$char_traits@D@std@@V?$allocator@D@2@@std@@@Z@Z 0000000180002390 f i node-midi.obj
 0001:000013a0       ?getCurrentApi@MidiInWinMM@@UEAA?AW4Api@RtMidi@@XZ 00000001800023a0 f i node-midi.obj
 0001:000013a0       ?getCurrentApi@MidiOutWinMM@@UEAA?AW4Api@RtMidi@@XZ 00000001800023a0 f i node-midi.obj
 0001:000013b0       ??_ERtMidi@@MEAAPEAXI@Z    00000001800023b0 f i * CIL library *:* CIL module *
 0001:000013b0       ??_ERtMidiIn@@UEAAPEAXI@Z  00000001800023b0 f i * CIL library *:* CIL module *
 0001:000013b0       ??_GRtMidiIn@@UEAAPEAXI@Z  00000001800023b0 f i node-midi.obj
 0001:000013b0       ??_GRtMidiOut@@UEAAPEAXI@Z 00000001800023b0 f i node-midi.obj
 0001:000013b0       ??_ERtMidiOut@@UEAAPEAXI@Z 00000001800023b0 f i * CIL library *:* CIL module *
 0001:000013b0       ??_GRtMidi@@MEAAPEAXI@Z    00000001800023b0 f i node-midi.obj
 0001:00001400       ??1RtMidi@@MEAA@XZ         0000000180002400 f   node-midi.obj
 0001:00001440       ?openMidiApi@RtMidiIn@@IEAAXW4Api@RtMidi@@V?$basic_string@DU?$char_traits@D@std@@V?$allocator@D@2@@std@@I@Z 0000000180002440 f   node-midi.obj
 0001:00001530       ??0RtMidiIn@@QEAA@W4Api@RtMidi@@V?$basic_string@DU?$char_traits@D@std@@V?$allocator@D@2@@std@@I@Z 0000000180002530 f   node-midi.obj
 0001:00001710       ??0RtMidiError@@QEAA@AEBV0@@Z 0000000180002710 f i node-midi.obj
 0001:00001790       ?openMidiApi@RtMidiOut@@IEAAXW4Api@RtMidi@@V?$basic_string@DU?$char_traits@D@std@@V?$allocator@D@2@@std@@@Z 0000000180002790 f   node-midi.obj
 0001:00001880       ??0RtMidiOut@@QEAA@W4Api@RtMidi@@V?$basic_string@DU?$char_traits@D@std@@V?$allocator@D@2@@std@@@Z 0000000180002880 f   node-midi.obj
 0001:00001a60       ??_GMidiApi@@UEAAPEAXI@Z   0000000180002a60 f i node-midi.obj
 0001:00001a60       ??_EMidiApi@@UEAAPEAXI@Z   0000000180002a60 f i * CIL library *:* CIL module *
 0001:00001ac0       ??1MidiApi@@UEAA@XZ        0000000180002ac0 f   node-midi.obj
 0001:00001ac0       ??1MidiOutApi@@UEAA@XZ     0000000180002ac0 f   node-midi.obj
 0001:00001b00       ?error@MidiApi@@QEAAXW4Type@RtMidiError@@V?$basic_string@DU?$char_traits@D@std@@V?$allocator@D@2@@std@@@Z 0000000180002b00 f   node-midi.obj
 0001:00001cb0       ??0MidiInApi@@QEAA@I@Z     0000000180002cb0 f   node-midi.obj
 0001:00001dc0       ??_EMidiInApi@@UEAAPEAXI@Z 0000000180002dc0 f i * CIL library *:* CIL module *
 0001:00001dc0       ??_GMidiInApi@@UEAAPEAXI@Z 0000000180002dc0 f i node-midi.obj
 0001:00001df0       ??1RtMidiInData@MidiInApi@@QEAA@XZ 0000000180002df0 f i node-midi.obj
 0001:00001e20       ??1MidiInApi@@UEAA@XZ      0000000180002e20 f   node-midi.obj
 0001:00001ec0       ?setCallback@MidiInApi@@QEAAXP6AXNPEAV?$vector@EV?$allocator@E@std@@@std@@PEAX@Z1@Z 0000000180002ec0 f   node-midi.obj
 0001:00001f70       ?cancelCallback@MidiInApi@@QEAAXXZ 0000000180002f70 f   node-midi.obj
 0001:00002000       ?ignoreTypes@MidiInApi@@UEAAX_N00@Z 0000000180003000 f   node-midi.obj
 0001:00002320       ??0MidiInWinMM@@QEAA@V?$basic_string@DU?$char_traits@D@std@@V?$allocator@D@2@@std@@I@Z 0000000180003320 f   node-midi.obj
 0001:000023b0       ??_GMidiInWinMM@@UEAAPEAXI@Z 00000001800033b0 f i node-midi.obj
 0001:000023b0       ??_EMidiInWinMM@@UEAAPEAXI@Z 00000001800033b0 f i * CIL library *:* CIL module *
 0001:000023e0       ??1MidiInWinMM@@UEAA@XZ    00000001800033e0 f   node-midi.obj
 0001:00002460       ?initialize@MidiInWinMM@@MEAAXAEBV?$basic_string@DU?$char_traits@D@std@@V?$allocator@D@2@@std@@@Z 0000000180003460 f   node-midi.obj
 0001:00002580       ?openPort@MidiInWinMM@@UEAAXIV?$basic_string@DU?$char_traits@D@std@@V?$allocator@D@2@@std@@@Z 0000000180003580 f   node-midi.obj
 0001:000028f0       ??_D?$basic_ostringstream@DU?$char_traits@D@std@@V?$allocator@D@2@@std@@QEAAXXZ 00000001800038f0 f i node-midi.obj
 0001:00002920       ?openVirtualPort@MidiInWinMM@@UEAAXV?$basic_string@DU?$char_traits@D@std@@V?$allocator@D@2@@std@@@Z 0000000180003920 f   node-midi.obj
 0001:000029d0       ?closePort@MidiInWinMM@@UEAAXXZ 00000001800039d0 f   node-midi.obj
 0001:00002af0       ?getPortCount@MidiInWinMM@@UEAAIXZ 0000000180003af0 f   node-midi.obj
 0001:00002b00       ?getPortName@MidiInWinMM@@UEAA?AV?$basic_string@DU?$char_traits@D@std@@V?$allocator@D@2@@std@@I@Z 0000000180003b00 f   node-midi.obj
 0001:00002ee0       ??0MidiOutWinMM@@QEAA@V?$basic_string@DU?$char_traits@D@std@@V?$allocator@D@2@@std@@@Z 0000000180003ee0 f   node-midi.obj
 0001:00002f90       ??_GMidiOutWinMM@@UEAAPEAXI@Z 0000000180003f90 f i node-midi.obj
 0001:00002f90       ??_EMidiOutWinMM@@UEAAPEAXI@Z 0000000180003f90 f i * CIL library *:* CIL module *
 0001:00002fc0       ??1MidiOutWinMM@@UEAA@XZ   0000000180003fc0 f   node-midi.obj
 0001:00003070       ?initialize@MidiOutWinMM@@MEAAXAEBV?$basic_string@DU?$char_traits@D@std@@V?$allocator@D@2@@std@@@Z 0000000180004070 f   node-midi.obj
 0001:00003120       ?getPortCount@MidiOutWinMM@@UEAAIXZ 0000000180004120 f   node-midi.obj
 0001:00003130       ?getPortName@MidiOutWinMM@@UEAA?AV?$basic_string@DU?$char_traits@D@std@@V?$allocator@D@2@@std@@I@Z 0000000180004130 f   node-midi.obj
 0001:000033f0       ?openPort@MidiOutWinMM@@UEAAXIV?$basic_string@DU?$char_traits@D@std@@V?$allocator@D@2@@std@@@Z 00000001800043f0 f   node-midi.obj
 0001:00003640       ?closePort@MidiOutWinMM@@UEAAXXZ 0000000180004640 f   node-midi.obj
 0001:00003680       ?openVirtualPort@MidiOutWinMM@@UEAAXV?$basic_string@DU?$char_traits@D@std@@V?$allocator@D@2@@std@@@Z 0000000180004680 f   node-midi.obj
 0001:00003730       ?sendMessage@MidiOutWinMM@@UEAAXPEAV?$vector@EV?$allocator@E@std@@@std@@@Z 0000000180004730 f   node-midi.obj
 0001:00003ab0       ?Init@NodeMidiOutput@@SAXV?$Local@VObject@v8@@@v8@@@Z 0000000180004ab0 f i node-midi.obj
 0001:000041a0       ??0NodeMidiOutput@@QEAA@XZ 00000001800051a0 f i node-midi.obj
 0001:00004240       ?New@NodeMidiOutput@@SAXAEBV?$FunctionCallbackInfo@VValue@v8@@@Nan@@@Z 0000000180005240 f i node-midi.obj
 0001:00004370       ?GetPortCount@NodeMidiInput@@SAXAEBV?$FunctionCallbackInfo@VValue@v8@@@Nan@@@Z 0000000180005370 f i node-midi.obj
 0001:00004370       ?GetPortCount@NodeMidiOutput@@SAXAEBV?$FunctionCallbackInfo@VValue@v8@@@Nan@@@Z 0000000180005370 f i node-midi.obj
 0001:00004440       ?GetPortName@NodeMidiInput@@SAXAEBV?$FunctionCallbackInfo@VValue@v8@@@Nan@@@Z 0000000180005440 f i node-midi.obj
 0001:00004440       ?GetPortName@NodeMidiOutput@@SAXAEBV?$FunctionCallbackInfo@VValue@v8@@@Nan@@@Z 0000000180005440 f i node-midi.obj
 0001:00004640       ?OpenPort@NodeMidiOutput@@SAXAEBV?$FunctionCallbackInfo@VValue@v8@@@Nan@@@Z 0000000180005640 f i node-midi.obj
 0001:00004860       ?OpenVirtualPort@NodeMidiOutput@@SAXAEBV?$FunctionCallbackInfo@VValue@v8@@@Nan@@@Z 0000000180005860 f i node-midi.obj
 0001:00004a70       ?ClosePort@NodeMidiOutput@@SAXAEBV?$FunctionCallbackInfo@VValue@v8@@@Nan@@@Z 0000000180005a70 f i node-midi.obj
 0001:00004ad0       ?SendMessageA@NodeMidiOutput@@SAXAEBV?$FunctionCallbackInfo@VValue@v8@@@Nan@@@Z 0000000180005ad0 f i node-midi.obj
 0001:00004f20       ??_ENodeMidiOutput@@UEAAPEAXI@Z 0000000180005f20 f i * CIL library *:* CIL module *
 0001:00004f20       ??_GNodeMidiOutput@@UEAAPEAXI@Z 0000000180005f20 f i node-midi.obj
 0001:00004f80       ?Init@NodeMidiInput@@SAXV?$Local@VObject@v8@@@v8@@@Z 0000000180005f80 f i node-midi.obj
 0001:00005670       ??0NodeMidiInput@@QEAA@XZ  0000000180006670 f i node-midi.obj
 0001:00005760       ??1NodeMidiInput@@UEAA@XZ  0000000180006760 f i node-midi.obj
 0001:000057f0       ?EmitMessage@NodeMidiInput@@SAXPEAUuv_async_s@@@Z 00000001800067f0 f i node-midi.obj
 0001:00005b40       ?Callback@NodeMidiInput@@SAXNPEAV?$vector@EV?$allocator@E@std@@@std@@PEAX@Z 0000000180006b40 f i node-midi.obj
 0001:00005be0       ?New@NodeMidiInput@@SAXAEBV?$FunctionCallbackInfo@VValue@v8@@@Nan@@@Z 0000000180006be0 f i node-midi.obj
 0001:00005d40       ?OpenPort@NodeMidiInput@@SAXAEBV?$FunctionCallbackInfo@VValue@v8@@@Nan@@@Z 0000000180006d40 f i node-midi.obj
 0001:00005f80       ?OpenVirtualPort@NodeMidiInput@@SAXAEBV?$FunctionCallbackInfo@VValue@v8@@@Nan@@@Z 0000000180006f80 f i node-midi.obj
 0001:000061c0       ?ClosePort@NodeMidiInput@@SAXAEBV?$FunctionCallbackInfo@VValue@v8@@@Nan@@@Z 00000001800071c0 f i node-midi.obj
 0001:00006250       ?IgnoreTypes@NodeMidiInput@@SAXAEBV?$FunctionCallbackInfo@VValue@v8@@@Nan@@@Z 0000000180007250 f i node-midi.obj
 0001:00006460       ??_GNodeMidiInput@@UEAAPEAXI@Z 0000000180007460 f i node-midi.obj
 0001:00006460       ??_ENodeMidiInput@@UEAAPEAXI@Z 0000000180007460 f i * CIL library *:* CIL module *
 0001:00006490       ??1?$queue@PEAUMidiMessage@NodeMidiInput@@V?$deque@PEAUMidiMessage@NodeMidiInput@@V?$allocator@PEAUMidiMessage@NodeMidiInput@@@std@@@std@@@std@@QEAA@XZ 0000000180007490 f i node-midi.obj
 0001:000064c0       init                       00000001800074c0 f   node-midi.obj
 0001:000064f0       ??0?$basic_string@DU?$char_traits@D@std@@V?$allocator@D@2@@std@@QEAA@$$QEAV01@@Z 00000001800074f0 f i node-midi.obj
 0001:00006570       ??4?$basic_string@DU?$char_traits@D@std@@V?$allocator@D@2@@std@@QEAAAEAV01@$$QEAV01@@Z 0000000180007570 f i node-midi.obj
 0001:000065c0       ??1?$basic_string@DU?$char_traits@D@std@@V?$allocator@D@2@@std@@QEAA@XZ 00000001800075c0 f i node-midi.obj
 0001:00006600       ??1?$_Yarn@D@std@@QEAA@XZ  0000000180007600 f i node-midi.obj
 0001:00006600       ??1?$_Yarn@_W@std@@QEAA@XZ 0000000180007600 f i node-midi.obj
 0001:00006630       ??1?$basic_ios@DU?$char_traits@D@std@@@std@@UEAA@XZ 0000000180007630 f i node-midi.obj
 0001:00006640       ??1?$basic_streambuf@DU?$char_traits@D@std@@@std@@UEAA@XZ 0000000180007640 f i node-midi.obj
 0001:00006690       ?overflow@?$basic_streambuf@DU?$char_traits@D@std@@@std@@MEAAHH@Z 0000000180007690 f i node-midi.obj
 0001:00006690       ?underflow@?$basic_streambuf@DU?$char_traits@D@std@@@std@@MEAAHXZ 0000000180007690 f i node-midi.obj
 0001:00006690       ?pbackfail@?$basic_streambuf@DU?$char_traits@D@std@@@std@@MEAAHH@Z 0000000180007690 f i node-midi.obj
 0001:000066a0       ?sync@?$basic_streambuf@DU?$char_traits@D@std@@@std@@MEAAHXZ 00000001800076a0 f i node-midi.obj
 0001:000066a0       __init_dummy               00000001800076a0 f i LIBCMT:wsetloca.obj
 0001:000066a0       ?showmanyc@?$basic_streambuf@DU?$char_traits@D@std@@@std@@MEAA_JXZ 00000001800076a0 f i node-midi.obj
 0001:000066a0       __init_collate             00000001800076a0 f i LIBCMT:initcoll.obj
 0001:000066b0       ?uflow@?$basic_streambuf@DU?$char_traits@D@std@@@std@@MEAAHXZ 00000001800076b0 f i node-midi.obj
 0001:000066f0       ?xsgetn@?$basic_streambuf@DU?$char_traits@D@std@@@std@@MEAA_JPEAD_J@Z 00000001800076f0 f i node-midi.obj
 0001:000067b0       ?xsputn@?$basic_streambuf@DU?$char_traits@D@std@@@std@@MEAA_JPEBD_J@Z 00000001800077b0 f i node-midi.obj
 0001:00006870       ?seekpos@?$basic_streambuf@DU?$char_traits@D@std@@@std@@MEAA?AV?$fpos@H@2@V32@H@Z 0000000180007870 f i node-midi.obj
 0001:00006870       ?seekoff@?$basic_streambuf@DU?$char_traits@D@std@@@std@@MEAA?AV?$fpos@H@2@_JHH@Z 0000000180007870 f i node-midi.obj
 0001:00006890       ?setbuf@?$basic_streambuf@DU?$char_traits@D@std@@@std@@MEAAPEAV12@PEAD_J@Z 0000000180007890 f i node-midi.obj
 0001:000068a0       ??0?$basic_ostream@DU?$char_traits@D@std@@@std@@QEAA@PEAV?$basic_streambuf@DU?$char_traits@D@std@@@1@_N@Z 00000001800078a0 f i node-midi.obj
 0001:00006920       ??1?$basic_ostream@DU?$char_traits@D@std@@@std@@UEAA@XZ 0000000180007920 f i node-midi.obj
 0001:00006950       ??6?$basic_ostream@DU?$char_traits@D@std@@@std@@QEAAAEAV01@I@Z 0000000180007950 f i node-midi.obj
 0001:00006b00       ??4?$vector@EV?$allocator@E@std@@@std@@QEAAAEAV01@AEBV01@@Z 0000000180007b00 f i node-midi.obj
 0001:00006c10       ?push_back@?$vector@EV?$allocator@E@std@@@std@@QEAAXAEBE@Z 0000000180007c10 f i node-midi.obj
 0001:00006c90       ??0?$basic_ostringstream@DU?$char_traits@D@std@@V?$allocator@D@2@@std@@QEAA@H@Z 0000000180007c90 f i node-midi.obj
 0001:00006de0       ??1?$basic_ostringstream@DU?$char_traits@D@std@@V?$allocator@D@2@@std@@UEAA@XZ 0000000180007de0 f i node-midi.obj
 0001:00006e60       ?str@?$basic_ostringstream@DU?$char_traits@D@std@@V?$allocator@D@2@@std@@QEBA?AV?$basic_string@DU?$char_traits@D@std@@V?$allocator@D@2@@2@XZ 0000000180007e60 f i node-midi.obj
 0001:00006e90       ??1?$basic_stringbuf@DU?$char_traits@D@std@@V?$allocator@D@2@@std@@UEAA@XZ 0000000180007e90 f i node-midi.obj
 0001:00006f30       ?overflow@?$basic_stringbuf@DU?$char_traits@D@std@@V?$allocator@D@2@@std@@MEAAHH@Z 0000000180007f30 f i node-midi.obj
 0001:000071b0       ?pbackfail@?$basic_stringbuf@DU?$char_traits@D@std@@V?$allocator@D@2@@std@@MEAAHH@Z 00000001800081b0 f i node-midi.obj
 0001:00007200       ?underflow@?$basic_stringbuf@DU?$char_traits@D@std@@V?$allocator@D@2@@std@@MEAAHXZ 0000000180008200 f i node-midi.obj
 0001:00007260       ?seekoff@?$basic_stringbuf@DU?$char_traits@D@std@@V?$allocator@D@2@@std@@MEAA?AV?$fpos@H@2@_JHH@Z 0000000180008260 f i node-midi.obj
 0001:000073f0       ?seekpos@?$basic_stringbuf@DU?$char_traits@D@std@@V?$allocator@D@2@@std@@MEAA?AV?$fpos@H@2@V32@H@Z 00000001800083f0 f i node-midi.obj
 0001:00007500       ??_G?$basic_streambuf@DU?$char_traits@D@std@@@std@@UEAAPEAXI@Z 0000000180008500 f i node-midi.obj
 0001:00007500       ??_E?$basic_streambuf@DU?$char_traits@D@std@@@std@@UEAAPEAXI@Z 0000000180008500 f i * CIL library *:* CIL module *
 0001:00007580       ??_G?$basic_ostream@DU?$char_traits@D@std@@@std@@UEAAPEAXI@Z 0000000180008580 f i node-midi.obj
 0001:00007580       ??_E?$basic_ostream@DU?$char_traits@D@std@@@std@@UEAAPEAXI@Z 0000000180008580 f i * CIL library *:* CIL module *
 0001:000075f0       ??_G?$basic_ostringstream@DU?$char_traits@D@std@@V?$allocator@D@2@@std@@UEAAPEAXI@Z 00000001800085f0 f i node-midi.obj
 0001:000075f0       ??_E?$basic_ostringstream@DU?$char_traits@D@std@@V?$allocator@D@2@@std@@UEAAPEAXI@Z 00000001800085f0 f i * CIL library *:* CIL module *
 0001:00007650       ??_G?$basic_stringbuf@DU?$char_traits@D@std@@V?$allocator@D@2@@std@@UEAAPEAXI@Z 0000000180008650 f i node-midi.obj
 0001:00007650       ??_E?$basic_stringbuf@DU?$char_traits@D@std@@V?$allocator@D@2@@std@@UEAAPEAXI@Z 0000000180008650 f i * CIL library *:* CIL module *
 0001:00007680       ?_Assign_rv@?$basic_string@DU?$char_traits@D@std@@V?$allocator@D@2@@std@@QEAAX$$QEAV12@@Z 0000000180008680 f i node-midi.obj
 0001:000076f0       ?append@?$basic_string@DU?$char_traits@D@std@@V?$allocator@D@2@@std@@QEAAAEAV12@AEBV12@_K1@Z 00000001800086f0 f i node-midi.obj
 0001:00007820       ?append@?$basic_string@DU?$char_traits@D@std@@V?$allocator@D@2@@std@@QEAAAEAV12@PEBD_K@Z 0000000180008820 f i node-midi.obj
 0001:00007970       ?assign@?$basic_string@DU?$char_traits@D@std@@V?$allocator@D@2@@std@@QEAAAEAV12@AEBV12@_K1@Z 0000000180008970 f i node-midi.obj
 0001:00007aa0       ?init@?$basic_ios@DU?$char_traits@D@std@@@std@@IEAAXPEAV?$basic_streambuf@DU?$char_traits@D@std@@@2@_N@Z 0000000180008aa0 f i node-midi.obj
 0001:00007b60       ?_Gnavail@?$basic_streambuf@DU?$char_traits@D@std@@@std@@IEBA_JXZ 0000000180008b60 f i node-midi.obj
 0001:00007b80       ?_Pnavail@?$basic_streambuf@DU?$char_traits@D@std@@@std@@IEBA_JXZ 0000000180008b80 f i node-midi.obj
 0001:00007ba0       ?_Buy@?$vector@EV?$allocator@E@std@@@std@@IEAA_N_K@Z 0000000180008ba0 f i node-midi.obj
 0001:00007c10       ?_Reserve@?$vector@EV?$allocator@E@std@@@std@@IEAAX_K@Z 0000000180008c10 f i node-midi.obj
 0001:00007c90       ?str@?$basic_stringbuf@DU?$char_traits@D@std@@V?$allocator@D@2@@std@@QEBA?AV?$basic_string@DU?$char_traits@D@std@@V?$allocator@D@2@@2@XZ 0000000180008c90 f i node-midi.obj
 0001:00007e20       ?push_back@?$deque@PEAUMidiMessage@NodeMidiInput@@V?$allocator@PEAUMidiMessage@NodeMidiInput@@@std@@@std@@QEAAXAEBQEAUMidiMessage@NodeMidiInput@@@Z 0000000180008e20 f i node-midi.obj
 0001:00007ef0       ?_Tidy@?$deque@PEAUMidiMessage@NodeMidiInput@@V?$allocator@PEAUMidiMessage@NodeMidiInput@@@std@@@std@@IEAAXXZ 0000000180008ef0 f i node-midi.obj
 0001:00007f70       ??0sentry@?$basic_ostream@DU?$char_traits@D@std@@@std@@QEAA@AEAV12@@Z 0000000180008f70 f i node-midi.obj
 0001:00007ff0       ??1sentry@?$basic_ostream@DU?$char_traits@D@std@@@std@@QEAA@XZ 0000000180008ff0 f i node-midi.obj
 0001:00008070       ?do_put@?$num_put@DV?$ostreambuf_iterator@DU?$char_traits@D@std@@@std@@@std@@MEBA?AV?$ostreambuf_iterator@DU?$char_traits@D@std@@@2@V32@AEAVios_base@2@D_N@Z 0000000180009070 f i node-midi.obj
 0001:00008390       ?do_put@?$num_put@DV?$ostreambuf_iterator@DU?$char_traits@D@std@@@std@@@std@@MEBA?AV?$ostreambuf_iterator@DU?$char_traits@D@std@@@2@V32@AEAVios_base@2@DJ@Z 0000000180009390 f i node-midi.obj
 0001:00008490       ?do_put@?$num_put@DV?$ostreambuf_iterator@DU?$char_traits@D@std@@@std@@@std@@MEBA?AV?$ostreambuf_iterator@DU?$char_traits@D@std@@@2@V32@AEAVios_base@2@DK@Z 0000000180009490 f i node-midi.obj
 0001:00008590       ?do_put@?$num_put@DV?$ostreambuf_iterator@DU?$char_traits@D@std@@@std@@@std@@MEBA?AV?$ostreambuf_iterator@DU?$char_traits@D@std@@@2@V32@AEAVios_base@2@D_J@Z 0000000180009590 f i node-midi.obj
 0001:00008690       ?do_put@?$num_put@DV?$ostreambuf_iterator@DU?$char_traits@D@std@@@std@@@std@@MEBA?AV?$ostreambuf_iterator@DU?$char_traits@D@std@@@2@V32@AEAVios_base@2@D_K@Z 0000000180009690 f i node-midi.obj
 0001:00008790       ?do_put@?$num_put@DV?$ostreambuf_iterator@DU?$char_traits@D@std@@@std@@@std@@MEBA?AV?$ostreambuf_iterator@DU?$char_traits@D@std@@@2@V32@AEAVios_base@2@DN@Z 0000000180009790 f i node-midi.obj
 0001:000089d0       ?do_put@?$num_put@DV?$ostreambuf_iterator@DU?$char_traits@D@std@@@std@@@std@@MEBA?AV?$ostreambuf_iterator@DU?$char_traits@D@std@@@2@V32@AEAVios_base@2@DO@Z 00000001800099d0 f i node-midi.obj
 0001:00008c00       ?do_put@?$num_put@DV?$ostreambuf_iterator@DU?$char_traits@D@std@@@std@@@std@@MEBA?AV?$ostreambuf_iterator@DU?$char_traits@D@std@@@2@V32@AEAVios_base@2@DPEBX@Z 0000000180009c00 f i node-midi.obj
 0001:00008ca0       ?falsename@?$numpunct@D@std@@QEBA?AV?$basic_string@DU?$char_traits@D@std@@V?$allocator@D@2@@2@XZ 0000000180009ca0 f i node-midi.obj
 0001:00008cc0       ?truename@?$numpunct@D@std@@QEBA?AV?$basic_string@DU?$char_traits@D@std@@V?$allocator@D@2@@2@XZ 0000000180009cc0 f i node-midi.obj
 0001:00008ce0       ?do_decimal_point@?$numpunct@D@std@@MEBADXZ 0000000180009ce0 f i node-midi.obj
 0001:00008cf0       ?do_thousands_sep@?$numpunct@D@std@@MEBADXZ 0000000180009cf0 f i node-midi.obj
 0001:00008d00       ?do_grouping@?$numpunct@D@std@@MEBA?AV?$basic_string@DU?$char_traits@D@std@@V?$allocator@D@2@@2@XZ 0000000180009d00 f i node-midi.obj
 0001:00008d50       ?do_falsename@?$numpunct@D@std@@MEBA?AV?$basic_string@DU?$char_traits@D@std@@V?$allocator@D@2@@2@XZ 0000000180009d50 f i node-midi.obj
 0001:00008da0       ?do_truename@?$numpunct@D@std@@MEBA?AV?$basic_string@DU?$char_traits@D@std@@V?$allocator@D@2@@2@XZ 0000000180009da0 f i node-midi.obj
 0001:00008df0       ??_G?$numpunct@D@std@@MEAAPEAXI@Z 0000000180009df0 f i node-midi.obj
 0001:00008df0       ??_E?$numpunct@D@std@@MEAAPEAXI@Z 0000000180009df0 f i * CIL library *:* CIL module *
 0001:00008e50       ?assign@?$basic_string@DU?$char_traits@D@std@@V?$allocator@D@2@@std@@QEAAAEAV12@PEBD_K@Z 0000000180009e50 f i node-midi.obj
 0001:00008f90       ?insert@?$basic_string@DU?$char_traits@D@std@@V?$allocator@D@2@@std@@QEAAAEAV12@_K0D@Z 0000000180009f90 f i node-midi.obj
 0001:00009100       ?erase@?$basic_string@DU?$char_traits@D@std@@V?$allocator@D@2@@std@@QEAAAEAV12@_K0@Z 000000018000a100 f i node-midi.obj
 0001:000091d0       ?_Grow@?$basic_string@DU?$char_traits@D@std@@V?$allocator@D@2@@std@@QEAA_N_K_N@Z 000000018000a1d0 f i node-midi.obj
 0001:000092a0       ??0?$basic_streambuf@DU?$char_traits@D@std@@@std@@IEAA@XZ 000000018000a2a0 f i node-midi.obj
 0001:00009360       ?flush@?$basic_ostream@DU?$char_traits@D@std@@@std@@QEAAAEAV12@XZ 000000018000a360 f i node-midi.obj
 0001:00009450       ?_Reallocate@?$vector@EV?$allocator@E@std@@@std@@IEAAX_K@Z 000000018000a450 f i node-midi.obj
 0001:000094e0       ?begin@?$deque@PEAUMidiMessage@NodeMidiInput@@V?$allocator@PEAUMidiMessage@NodeMidiInput@@@std@@@std@@QEAA?AV?$_Deque_iterator@V?$_Deque_val@U?$_Deque_simple_types@PEAUMidiMessage@NodeMidiInput@@@std@@@std@@@2@XZ 000000018000a4e0 f i node-midi.obj
 0001:00009500       ?_Growmap@?$deque@PEAUMidiMessage@NodeMidiInput@@V?$allocator@PEAUMidiMessage@NodeMidiInput@@@std@@@std@@IEAAX_K@Z 000000018000a500 f i node-midi.obj
 0001:000096c0       ??1_Sentry_base@?$basic_ostream@DU?$char_traits@D@std@@@std@@QEAA@XZ 000000018000a6c0 f i node-midi.obj
 0001:000096e0       ?_Fput@?$num_put@DV?$ostreambuf_iterator@DU?$char_traits@D@std@@@std@@@std@@AEBA?AV?$ostreambuf_iterator@DU?$char_traits@D@std@@@2@V32@AEAVios_base@2@DPEBD_K333@Z 000000018000a6e0 f i node-midi.obj
 0001:00009e70       ?_Iput@?$num_put@DV?$ostreambuf_iterator@DU?$char_traits@D@std@@@std@@@std@@AEBA?AV?$ostreambuf_iterator@DU?$char_traits@D@std@@@2@V32@AEAVios_base@2@DPEAD_K@Z 000000018000ae70 f i node-midi.obj
 0001:0000a510       ?grouping@?$numpunct@D@std@@QEBA?AV?$basic_string@DU?$char_traits@D@std@@V?$allocator@D@2@@2@XZ 000000018000b510 f i node-midi.obj
 0001:0000a530       ?assign@?$basic_string@DU?$char_traits@D@std@@V?$allocator@D@2@@std@@QEAAAEAV12@_KD@Z 000000018000b530 f i node-midi.obj
 0001:0000a640       ?_Copy@?$basic_string@DU?$char_traits@D@std@@V?$allocator@D@2@@std@@QEAAX_K0@Z 000000018000b640 f i node-midi.obj
 0001:0000a730       ??$use_facet@V?$ctype@D@std@@@std@@YAAEBV?$ctype@D@0@AEBVlocale@0@@Z 000000018000b730 f i node-midi.obj
 0001:0000a840       ??$?6U?$char_traits@D@std@@@std@@YAAEAV?$basic_ostream@DU?$char_traits@D@std@@@0@AEAV10@D@Z 000000018000b840 f i node-midi.obj
 0001:0000ab80       ??$?6DU?$char_traits@D@std@@V?$allocator@D@1@@std@@YAAEAV?$basic_ostream@DU?$char_traits@D@std@@@0@AEAV10@AEBV?$basic_string@DU?$char_traits@D@std@@V?$allocator@D@2@@0@@Z 000000018000bb80 f i node-midi.obj
 0001:0000ae80       ??$?6U?$char_traits@D@std@@@std@@YAAEAV?$basic_ostream@DU?$char_traits@D@std@@@0@AEAV10@PEBD@Z 000000018000be80 f i node-midi.obj
 0001:0000b190       ??$Unwrap@VNodeMidiOutput@@@ObjectWrap@Nan@@SAPEAVNodeMidiOutput@@V?$Local@VObject@v8@@@v8@@@Z 000000018000c190 f i node-midi.obj
 0001:0000b190       ??$Unwrap@VNodeMidiInput@@@ObjectWrap@Nan@@SAPEAVNodeMidiInput@@V?$Local@VObject@v8@@@v8@@@Z 000000018000c190 f i node-midi.obj
 0001:0000b210       ??$use_facet@V?$num_put@DV?$ostreambuf_iterator@DU?$char_traits@D@std@@@std@@@std@@@std@@YAAEBV?$num_put@DV?$ostreambuf_iterator@DU?$char_traits@D@std@@@std@@@0@AEBVlocale@0@@Z 000000018000c210 f i node-midi.obj
 0001:0000b320       ??$use_facet@V?$numpunct@D@std@@@std@@YAAEBV?$numpunct@D@0@AEBVlocale@0@@Z 000000018000c320 f i node-midi.obj
 0001:0000b430       ?_Getcat@?$num_put@DV?$ostreambuf_iterator@DU?$char_traits@D@std@@@std@@@std@@SA_KPEAPEBVfacet@locale@2@PEBV42@@Z 000000018000c430 f i node-midi.obj
 0001:0000b500       ?_Getcat@?$numpunct@D@std@@SA_KPEAPEBVfacet@locale@2@PEBV42@@Z 000000018000c500 f i node-midi.obj
 0001:0000b5e0       ?_Init@?$numpunct@D@std@@IEAAXAEBV_Locinfo@2@_N@Z 000000018000c5e0 f i node-midi.obj
 0001:0000b710       ??_E?$basic_ostringstream@DU?$char_traits@D@std@@V?$allocator@D@2@@std@@$4PPPPPPPM@A@EAAPEAXI@Z 000000018000c710 f i node-midi.obj
 0001:0000b71c       ??_E?$basic_ostream@DU?$char_traits@D@std@@@std@@$4PPPPPPPM@A@EAAPEAXI@Z 000000018000c71c f i node-midi.obj
 0001:0000b77c       __imp_load_node_module_register 000000018000c77c f   node:node.exe
 0001:0000b788       __tailMerge_node_exe       000000018000c788 f i node:node.exe
 0001:0000b801       __imp_load_?MakeCallback@node@@YA?AV?$Local@VValue@v8@@@v8@@PEAVIsolate@3@V?$Local@VObject@v8@@@3@V?$Local@VFunction@v8@@@3@HPEAV23@@Z 000000018000c801 f   node:node.exe
 0001:0000b80d       __imp_load_uv_default_loop 000000018000c80d f   node:node.exe
 0001:0000b819       __imp_load_?New@Signature@v8@@SA?AV?$Local@VSignature@v8@@@2@PEAVIsolate@2@V?$Local@VFunctionTemplate@v8@@@2@@Z 000000018000c819 f   node:node.exe
 0001:0000b825       __imp_load_?ToLocalEmpty@V8@v8@@CAXXZ 000000018000c825 f   node:node.exe
 0001:0000b831       __imp_load_?ClearWeak@V8@v8@@CAPEAXPEAPEAVObject@internal@2@@Z 000000018000c831 f   node:node.exe
 0001:0000b83d       __imp_load_?MakeWeak@V8@v8@@CAXPEAPEAVObject@internal@2@PEAXP6AXAEBV?$WeakCallbackInfo@X@2@@ZW4WeakCallbackType@2@@Z 000000018000c83d f   node:node.exe
 0001:0000b849       __imp_load_?DisposeGlobal@V8@v8@@CAXPEAPEAVObject@internal@2@@Z 000000018000c849 f   node:node.exe
 0001:0000b855       __imp_load_?GlobalizeReference@V8@v8@@CAPEAPEAVObject@internal@2@PEAVIsolate@42@PEAPEAV342@@Z 000000018000c855 f   node:node.exe
 0001:0000b861       __imp_load_?Escape@EscapableHandleScope@v8@@AEAAPEAPEAVObject@internal@2@PEAPEAV342@@Z 000000018000c861 f   node:node.exe
 0001:0000b86d       __imp_load_??0EscapableHandleScope@v8@@QEAA@PEAVIsolate@1@@Z 000000018000c86d f   node:node.exe
 0001:0000b879       __imp_load_?Int32Value@Value@v8@@QEBAHXZ 000000018000c879 f   node:node.exe
 0001:0000b885       __imp_load_?Uint32Value@Value@v8@@QEBAIXZ 000000018000c885 f   node:node.exe
 0001:0000b891       __imp_load_?BooleanValue@Value@v8@@QEBA_NXZ 000000018000c891 f   node:node.exe
 0001:0000b89d       __imp_load_?ToUint32@Value@v8@@QEBA?AV?$MaybeLocal@VUint32@v8@@@2@V?$Local@VContext@v8@@@2@@Z 000000018000c89d f   node:node.exe
 0001:0000b8a9       __imp_load_?ToInteger@Value@v8@@QEBA?AV?$MaybeLocal@VInteger@v8@@@2@V?$Local@VContext@v8@@@2@@Z 000000018000c8a9 f   node:node.exe
 0001:0000b8b5       __imp_load_?IsUint32@Value@v8@@QEBA_NXZ 000000018000c8b5 f   node:node.exe
 0001:0000b8c1       __imp_load_?IsBoolean@Value@v8@@QEBA_NXZ 000000018000c8c1 f   node:node.exe
 0001:0000b8cd       __imp_load_?IsArray@Value@v8@@QEBA_NXZ 000000018000c8cd f   node:node.exe
 0001:0000b8d9       __imp_load_?SetClassName@FunctionTemplate@v8@@QEAAXV?$Local@VString@v8@@@2@@Z 000000018000c8d9 f   node:node.exe
 0001:0000b8e5       __imp_load_?PrototypeTemplate@FunctionTemplate@v8@@QEAA?AV?$Local@VObjectTemplate@v8@@@2@XZ 000000018000c8e5 f   node:node.exe
 0001:0000b8f1       __imp_load_?InstanceTemplate@FunctionTemplate@v8@@QEAA?AV?$Local@VObjectTemplate@v8@@@2@XZ 000000018000c8f1 f   node:node.exe
 0001:0000b8fd       __imp_load_?GetFunction@FunctionTemplate@v8@@QEAA?AV?$Local@VFunction@v8@@@2@XZ 000000018000c8fd f   node:node.exe
 0001:0000b909       __imp_load_?GetFunction@FunctionTemplate@v8@@QEAA?AV?$MaybeLocal@VFunction@v8@@@2@V?$Local@VContext@v8@@@2@@Z 000000018000c909 f   node:node.exe
 0001:0000b915       __imp_load_?New@FunctionTemplate@v8@@SA?AV?$Local@VFunctionTemplate@v8@@@2@PEAVIsolate@2@P6AXAEBV?$FunctionCallbackInfo@VValue@v8@@@2@@ZV?$Local@VValue@v8@@@2@V?$Local@VSignature@v8@@@2@H@Z 000000018000c915 f   node:node.exe
 0001:0000b921       __imp_load_?TypeError@Exception@v8@@SA?AV?$Local@VValue@v8@@@2@V?$Local@VString@v8@@@2@@Z 000000018000c921 f   node:node.exe
 0001:0000b92d       __imp_load_?RangeError@Exception@v8@@SA?AV?$Local@VValue@v8@@@2@V?$Local@VString@v8@@@2@@Z 000000018000c92d f   node:node.exe
 0001:0000b939       __imp_load_??1Utf8Value@String@v8@@QEAA@XZ 000000018000c939 f   node:node.exe
 0001:0000b945       __imp_load_??0Utf8Value@String@v8@@QEAA@V?$Local@VValue@v8@@@2@@Z 000000018000c945 f   node:node.exe
 0001:0000b951       __imp_load_?NewFromUtf8@String@v8@@SA?AV?$MaybeLocal@VString@v8@@@2@PEAVIsolate@2@PEBDW4NewStringType@2@H@Z 000000018000c951 f   node:node.exe
 0001:0000b95d       __imp_load_?New@Array@v8@@SA?AV?$Local@VArray@v8@@@2@PEAVIsolate@2@H@Z 000000018000c95d f   node:node.exe
 0001:0000b969       __imp_load_?CreateHandle@HandleScope@v8@@KAPEAPEAVObject@internal@2@PEAVIsolate@42@PEAV342@@Z 000000018000c969 f   node:node.exe
 0001:0000b975       __imp_load_?CreateHandle@HandleScope@v8@@CAPEAPEAVObject@internal@2@PEAVHeapObject@42@PEAV342@@Z 000000018000c975 f   node:node.exe
 0001:0000b981       __imp_load_??1HandleScope@v8@@QEAA@XZ 000000018000c981 f   node:node.exe
 0001:0000b98d       __imp_load_??0HandleScope@v8@@QEAA@PEAVIsolate@1@@Z 000000018000c98d f   node:node.exe
 0001:0000b999       __imp_load_?New@Number@v8@@SA?AV?$Local@VNumber@v8@@@2@PEAVIsolate@2@N@Z 000000018000c999 f   node:node.exe
 0001:0000b9a5       __imp_load_?SlowGetAlignedPointerFromInternalField@Object@v8@@AEAAPEAXH@Z 000000018000c9a5 f   node:node.exe
 0001:0000b9b1       __imp_load_?SlowGetInternalField@Object@v8@@AEAA?AV?$Local@VValue@v8@@@2@H@Z 000000018000c9b1 f   node:node.exe
 0001:0000b9bd       __imp_load_?SetAlignedPointerInInternalField@Object@v8@@QEAAXHPEAX@Z 000000018000c9bd f   node:node.exe
 0001:0000b9c9       __imp_load_?SetInternalField@Object@v8@@QEAAXHV?$Local@VValue@v8@@@2@@Z 000000018000c9c9 f   node:node.exe
 0001:0000b9d5       __imp_load_?InternalFieldCount@Object@v8@@QEAAHXZ 000000018000c9d5 f   node:node.exe
 0001:0000b9e1       __imp_load_?Get@Object@v8@@QEAA?AV?$Local@VValue@v8@@@2@V32@@Z 000000018000c9e1 f   node:node.exe
 0001:0000b9ed       __imp_load_?Set@Object@v8@@QEAA_NV?$Local@VValue@v8@@@2@0@Z 000000018000c9ed f   node:node.exe
 0001:0000b9f9       __imp_load_?Set@Template@v8@@QEAAXV?$Local@VName@v8@@@2@V?$Local@VData@v8@@@2@W4PropertyAttribute@2@@Z 000000018000c9f9 f   node:node.exe
 0001:0000ba05       __imp_load_?SetInternalFieldCount@ObjectTemplate@v8@@QEAAXH@Z 000000018000ca05 f   node:node.exe
 0001:0000ba11       __imp_load_?NewInstance@ObjectTemplate@v8@@QEAA?AV?$MaybeLocal@VObject@v8@@@2@V?$Local@VContext@v8@@@2@@Z 000000018000ca11 f   node:node.exe
 0001:0000ba1d       __imp_load_?New@ObjectTemplate@v8@@SA?AV?$Local@VObjectTemplate@v8@@@2@PEAVIsolate@2@V?$Local@VFunctionTemplate@v8@@@2@@Z 000000018000ca1d f   node:node.exe
 0001:0000ba29       __imp_load_?NewFromUnsigned@Integer@v8@@SA?AV?$Local@VInteger@v8@@@2@PEAVIsolate@2@I@Z 000000018000ca29 f   node:node.exe
 0001:0000ba35       __imp_load_?New@Integer@v8@@SA?AV?$Local@VInteger@v8@@@2@PEAVIsolate@2@H@Z 000000018000ca35 f   node:node.exe
 0001:0000ba41       __imp_load_?SetName@Function@v8@@QEAAXV?$Local@VString@v8@@@2@@Z 000000018000ca41 f   node:node.exe
 0001:0000ba4d       __imp_load_?ThrowException@Isolate@v8@@QEAA?AV?$Local@VValue@v8@@@2@V32@@Z 000000018000ca4d f   node:node.exe
 0001:0000ba59       __imp_load_?GetCurrentContext@Isolate@v8@@QEAA?AV?$Local@VContext@v8@@@2@XZ 000000018000ca59 f   node:node.exe
 0001:0000ba65       __imp_load_?GetCurrent@Isolate@v8@@SAPEAV12@XZ 000000018000ca65 f   node:node.exe
 0001:0000ba71       __imp_load_?Value@External@v8@@QEBAPEAXXZ 000000018000ca71 f   node:node.exe
 0001:0000ba7d       __imp_load_?New@External@v8@@SA?AV?$Local@VExternal@v8@@@2@PEAVIsolate@2@PEAX@Z 000000018000ca7d f   node:node.exe
 0001:0000ba89       __imp_load_uv_mutex_unlock 000000018000ca89 f   node:node.exe
 0001:0000ba95       __imp_load_uv_mutex_lock   000000018000ca95 f   node:node.exe
 0001:0000baa1       __imp_load_uv_async_send   000000018000caa1 f   node:node.exe
 0001:0000baad       __imp_load_uv_mutex_destroy 000000018000caad f   node:node.exe
 0001:0000bab9       __imp_load_uv_async_init   000000018000cab9 f   node:node.exe
 0001:0000bac5       __imp_load_uv_close        000000018000cac5 f   node:node.exe
 0001:0000bad1       __imp_load_uv_mutex_init   000000018000cad1 f   node:node.exe
 0001:0000badd       __imp_load_?ToObject@Value@v8@@QEBA?AV?$Local@VObject@v8@@@2@XZ 000000018000cadd f   node:node.exe
 0001:0000bae9       __imp_load_??1EscapableHandleScope@v8@@QEAA@XZ 000000018000cae9 f   node:node.exe
 0001:0000baf8       _Getcvt                    000000018000caf8 f   libcpmt:xwctomb.obj
 0001:0000bb88       ??4?$_Yarn@D@std@@QEAAAEAV01@PEBD@Z 000000018000cb88 f i libcpmt:locale0.obj
 0001:0000bc00       ??_G_Locimp@locale@std@@MEAAPEAXI@Z 000000018000cc00 f i libcpmt:locale0.obj
 0001:0000bc00       ??_E_Locimp@locale@std@@MEAAPEAXI@Z 000000018000cc00 f i libcpmt:locale0.obj
 0001:0000bc58       ?_Facet_Register@std@@YAXPEAV_Facet_base@1@@Z 000000018000cc58 f   libcpmt:locale0.obj
 0001:0000bc8c       ?_Getgloballocale@locale@std@@CAPEAV_Locimp@12@XZ 000000018000cc8c f   libcpmt:locale0.obj
 0001:0000bc94       ?_Init@locale@std@@CAPEAV_Locimp@12@_N@Z 000000018000cc94 f   libcpmt:locale0.obj
 0001:0000bd34       ?_Locimp_dtor@_Locimp@locale@std@@CAXPEAV123@@Z 000000018000cd34 f   libcpmt:locale0.obj
 0001:0000bdac       ?_Locinfo_ctor@_Locinfo@std@@SAXPEAV12@PEBD@Z 000000018000cdac f   libcpmt:locale0.obj
 0001:0000be18       ?_Locinfo_dtor@_Locinfo@std@@SAXPEAV12@@Z 000000018000ce18 f   libcpmt:locale0.obj
 0001:0000be3c       ?_New_Locimp@_Locimp@locale@std@@CAPEAV123@_N@Z 000000018000ce3c f   libcpmt:locale0.obj
 0001:0000bea8       ?_Setgloballocale@locale@std@@CAXPEAX@Z 000000018000cea8 f   libcpmt:locale0.obj
 0001:0000bedc       _Deletegloballocale        000000018000cedc f   libcpmt:locale0.obj
 0001:0000bf3c       ?_Addstd@ios_base@std@@SAXPEAV12@@Z 000000018000cf3c f   libcpmt:ios.obj
 0001:0000bfac       ?_Ios_base_dtor@ios_base@std@@CAXPEAV12@@Z 000000018000cfac f   libcpmt:ios.obj
 0001:0000c010       ?_Tidy@ios_base@std@@AEAAXXZ 000000018000d010 f i libcpmt:ios.obj
 0001:0000c080       ??0bad_alloc@std@@QEAA@AEBV01@@Z 000000018000d080 f i libcpmt:xthrow.obj
 0001:0000c0a4       ??0length_error@std@@QEAA@AEBV01@@Z 000000018000d0a4 f i libcpmt:xthrow.obj
 0001:0000c0c8       ??0logic_error@std@@QEAA@AEBV01@@Z 000000018000d0c8 f i libcpmt:xthrow.obj
 0001:0000c0ec       ??0out_of_range@std@@QEAA@AEBV01@@Z 000000018000d0ec f i libcpmt:xthrow.obj
 0001:0000c110       ??1bad_alloc@std@@UEAA@XZ  000000018000d110 f i libcpmt:xthrow.obj
 0001:0000c120       ??1length_error@std@@UEAA@XZ 000000018000d120 f i libcpmt:xthrow.obj
 0001:0000c120       ??1out_of_range@std@@UEAA@XZ 000000018000d120 f i libcpmt:xthrow.obj
 0001:0000c128       ??_Ebad_alloc@std@@UEAAPEAXI@Z 000000018000d128 f i libcpmt:xthrow.obj
 0001:0000c128       ??_Gbad_alloc@std@@UEAAPEAXI@Z 000000018000d128 f i libcpmt:xthrow.obj
 0001:0000c164       ??_Glength_error@std@@UEAAPEAXI@Z 000000018000d164 f i libcpmt:xthrow.obj
 0001:0000c164       ??_Glogic_error@std@@UEAAPEAXI@Z 000000018000d164 f i libcpmt:xthrow.obj
 0001:0000c164       ??_Eout_of_range@std@@UEAAPEAXI@Z 000000018000d164 f i libcpmt:xthrow.obj
 0001:0000c164       ??_Elength_error@std@@UEAAPEAXI@Z 000000018000d164 f i libcpmt:xthrow.obj
 0001:0000c164       ??_Gout_of_range@std@@UEAAPEAXI@Z 000000018000d164 f i libcpmt:xthrow.obj
 0001:0000c164       ??_Elogic_error@std@@UEAAPEAXI@Z 000000018000d164 f i libcpmt:xthrow.obj
 0001:0000c194       ?_Xbad_alloc@std@@YAXXZ    000000018000d194 f   libcpmt:xthrow.obj
 0001:0000c1d8       ?_Xlength_error@std@@YAXPEBD@Z 000000018000d1d8 f   libcpmt:xthrow.obj
 0001:0000c210       ?_Xout_of_range@std@@YAXPEBD@Z 000000018000d210 f   libcpmt:xthrow.obj
 0001:0000c248       ??$use_facet@V?$codecvt@DDH@std@@@std@@YAAEBV?$codecvt@DDH@0@AEBVlocale@0@@Z 000000018000d248 f i libcpmt:cerr.obj
 0001:0000c378       ??1?$basic_filebuf@DU?$char_traits@D@std@@@std@@UEAA@XZ 000000018000d378 f i libcpmt:cerr.obj
 0001:0000c438       ??_G?$basic_filebuf@DU?$char_traits@D@std@@@std@@UEAAPEAXI@Z 000000018000d438 f i libcpmt:cerr.obj
 0001:0000c438       ??_E?$basic_filebuf@DU?$char_traits@D@std@@@std@@UEAAPEAXI@Z 000000018000d438 f i libcpmt:cerr.obj
 0001:0000c468       ?_Endwrite@?$basic_filebuf@DU?$char_traits@D@std@@@std@@IEAA_NXZ 000000018000d468 f i libcpmt:cerr.obj
 0001:0000c604       ?_Getcat@?$codecvt@DDH@std@@SA_KPEAPEBVfacet@locale@2@PEBV42@@Z 000000018000d604 f i libcpmt:cerr.obj
 0001:0000c6c8       ?_Init@?$basic_filebuf@DU?$char_traits@D@std@@@std@@IEAAXPEAU_iobuf@@W4_Initfl@12@@Z 000000018000d6c8 f i libcpmt:cerr.obj
 0001:0000c774       ?_Initcvt@?$basic_filebuf@DU?$char_traits@D@std@@@std@@IEAAXPEBV?$codecvt@DDH@2@@Z 000000018000d774 f i libcpmt:cerr.obj
 0001:0000c7fc       ?_Lock@?$basic_filebuf@DU?$char_traits@D@std@@@std@@UEAAXXZ 000000018000d7fc f i libcpmt:cerr.obj
 0001:0000c818       ?_Unlock@?$basic_filebuf@DU?$char_traits@D@std@@@std@@UEAAXXZ 000000018000d818 f i libcpmt:cerr.obj
 0001:0000c834       ?append@?$basic_string@DU?$char_traits@D@std@@V?$allocator@D@2@@std@@QEAAAEAV12@_KD@Z 000000018000d834 f i libcpmt:cerr.obj
 0001:0000c8fc       ?do_always_noconv@?$codecvt@DDH@std@@MEBA_NXZ 000000018000d8fc f i libcpmt:cerr.obj
 0001:0000c900       ?do_length@?$codecvt@DDH@std@@MEBAHAEAHPEBD1_K@Z 000000018000d900 f i libcpmt:cerr.obj
 0001:0000c914       DllMain                    000000018000d914 f i LIBCMT:dllmain.obj
 0001:0000c914       ?do_max_length@codecvt_base@std@@MEBAHXZ 000000018000d914 f i libcpmt:cerr.obj
 0001:0000c914       ?do_encoding@codecvt_base@std@@MEBAHXZ 000000018000d914 f i libcpmt:cerr.obj
 0001:0000c91c       ?do_out@?$codecvt@DDH@std@@MEBAHAEAHPEBD1AEAPEBDPEAD3AEAPEAD@Z 000000018000d91c f i libcpmt:cerr.obj
 0001:0000c91c       ?do_in@?$codecvt@DDH@std@@MEBAHAEAHPEBD1AEAPEBDPEAD3AEAPEAD@Z 000000018000d91c f i libcpmt:cerr.obj
 0001:0000c938       ?do_unshift@?$codecvt@DDH@std@@MEBAHAEAHPEAD1AEAPEAD@Z 000000018000d938 f i libcpmt:cerr.obj
 0001:0000c944       ?imbue@?$basic_filebuf@DU?$char_traits@D@std@@@std@@MEAAXAEBVlocale@2@@Z 000000018000d944 f i libcpmt:cerr.obj
 0001:0000c968       ?overflow@?$basic_filebuf@DU?$char_traits@D@std@@@std@@MEAAHH@Z 000000018000d968 f i libcpmt:cerr.obj
 0001:0000cbb0       ?pbackfail@?$basic_filebuf@DU?$char_traits@D@std@@@std@@MEAAHH@Z 000000018000dbb0 f i libcpmt:cerr.obj
 0001:0000cc80       ?seekoff@?$basic_filebuf@DU?$char_traits@D@std@@@std@@MEAA?AV?$fpos@H@2@_JHH@Z 000000018000dc80 f i libcpmt:cerr.obj
 0001:0000cd6c       ?seekpos@?$basic_filebuf@DU?$char_traits@D@std@@@std@@MEAA?AV?$fpos@H@2@V32@H@Z 000000018000dd6c f i libcpmt:cerr.obj
 0001:0000ce70       ?setbuf@?$basic_filebuf@DU?$char_traits@D@std@@@std@@MEAAPEAV?$basic_streambuf@DU?$char_traits@D@std@@@2@PEAD_J@Z 000000018000de70 f i libcpmt:cerr.obj
 0001:0000cec4       ?sync@?$basic_filebuf@DU?$char_traits@D@std@@@std@@MEAAHXZ 000000018000dec4 f i libcpmt:cerr.obj
 0001:0000cf0c       ?uflow@?$basic_filebuf@DU?$char_traits@D@std@@@std@@MEAAHXZ 000000018000df0c f i libcpmt:cerr.obj
 0001:0000d158       ?underflow@?$basic_filebuf@DU?$char_traits@D@std@@@std@@MEAAHXZ 000000018000e158 f i libcpmt:cerr.obj
 0001:0000d1b0       ??0_Init_locks@std@@QEAA@XZ 000000018000e1b0 f   libcpmt:xlock.obj
 0001:0000d1fc       ??0_Lockit@std@@QEAA@H@Z   000000018000e1fc f   libcpmt:xlock.obj
 0001:0000d23c       ??1_Init_locks@std@@QEAA@XZ 000000018000e23c f   libcpmt:xlock.obj
 0001:0000d278       ??1_Lockit@std@@QEAA@XZ    000000018000e278 f   libcpmt:xlock.obj
 0001:0000d2b0       ??_U@YAPEAX_K@Z            000000018000e2b0 f   libcpmt:newaop.obj
 0001:0000d2b8       _Getctype                  000000018000e2b8 f   libcpmt:_tolower.obj
 0001:0000d334       _Tolower                   000000018000e334 f   libcpmt:_tolower.obj
 0001:0000d468       _Toupper                   000000018000e468 f   libcpmt:_toupper.obj
 0001:0000d5ac       ?_Atexit@@YAXP6AXXZ@Z      000000018000e5ac f   libcpmt:iosptrs.obj
 0001:0000d5ec       _Mtxdst                    000000018000e5ec f   libcpmt:xmtx.obj
 0001:0000d5f4       _Mtxinit                   000000018000e5f4 f   libcpmt:xmtx.obj
 0001:0000d604       _Mtxlock                   000000018000e604 f   libcpmt:xmtx.obj
 0001:0000d60c       _Mtxunlock                 000000018000e60c f   libcpmt:xmtx.obj
 0001:0000d630       __security_check_cookie    000000018000e630 f   LIBCMT:amdsecgs.obj
 0001:0000d650       _set_abort_behavior        000000018000e650 f   LIBCMT:abort.obj
 0001:0000d66c       abort                      000000018000e66c f   LIBCMT:abort.obj
 0001:0000d6c4       _call_reportfault          000000018000e6c4 f   LIBCMT:invarg.obj
 0001:0000d7b8       _initp_misc_invarg         000000018000e7b8 f   LIBCMT:invarg.obj
 0001:0000d7c0       _invalid_parameter         000000018000e7c0 f   LIBCMT:invarg.obj
 0001:0000d828       _invalid_parameter_noinfo  000000018000e828 f   LIBCMT:invarg.obj
 0001:0000d848       _invoke_watson             000000018000e848 f   LIBCMT:invarg.obj
 0001:0000d884       sprintf_s                  000000018000e884 f   LIBCMT:sprintf.obj
 0001:0000d8c0       memcpy                     000000018000e8c0 f   LIBCMT:memcpy.obj
 0001:0000d8c0       memmove                    000000018000e8c0 f   LIBCMT:memcpy.obj
 0001:0000de28       free                       000000018000ee28 f   LIBCMT:free.obj
 0001:0000de68       malloc                     000000018000ee68 f   LIBCMT:malloc.obj
 0001:0000df20       ??_M@YAXPEAX_KHP6AX0@Z@Z   000000018000ef20 f   LIBCMT:ehvecdtr.obj
 0001:0000df80       ?__ArrayUnwind@@YAXPEAX_KHP6AX0@Z@Z 000000018000ef80 f   LIBCMT:ehvecdtr.obj
 0001:0000dfcc       localeconv                 000000018000efcc f   LIBCMT:lconv.obj
 0001:0000e004       _wassert                   000000018000f004 f   LIBCMT:wassert.obj
 0001:0000e968       __onexitinit               000000018000f968 f   LIBCMT:onexit.obj
 0001:0000e9ac       _onexit                    000000018000f9ac f   LIBCMT:onexit.obj
 0001:0000eab8       atexit                     000000018000fab8 f   LIBCMT:onexit.obj
 0001:0000ead0       ??_L@YAXPEAX_KHP6AX0@Z2@Z  000000018000fad0 f   LIBCMT:ehvecctr.obj
 0001:0000eb38       ??_V@YAXPEAX@Z             000000018000fb38 f   LIBCMT:delete2.obj
 0001:0000eb40       _purecall                  000000018000fb40 f   LIBCMT:purevirt.obj
 0001:0000eb6c       ??3@YAXPEAX@Z              000000018000fb6c f   LIBCMT:delete.obj
 0001:0000eb74       strcspn                    000000018000fb74 f   LIBCMT:strcspn.obj
 0001:0000ec14       ??8type_info@@QEBA_NAEBV0@@Z 000000018000fc14 f   LIBCMT:typinfo.obj
 0001:0000ec34       ??_Gtype_info@@UEAAPEAXI@Z 000000018000fc34 f i LIBCMT:typinfo.obj
 0001:0000ec34       ??_Etype_info@@UEAAPEAXI@Z 000000018000fc34 f i LIBCMT:typinfo.obj
 0001:0000ec70       ??2@YAPEAX_K@Z             000000018000fc70 f   LIBCMT:new.obj
 0001:0000ecdc       ??0_LocaleUpdate@@QEAA@PEAUlocaleinfo_struct@@@Z 000000018000fcdc f i LIBCMT:stricmp.obj
 0001:0000ed84       __ascii_stricmp            000000018000fd84 f   LIBCMT:stricmp.obj
 0001:0000edc0       _stricmp                   000000018000fdc0 f   LIBCMT:stricmp.obj
 0001:0000ee08       _stricmp_l                 000000018000fe08 f   LIBCMT:stricmp.obj
 0001:0000eebc       _CRT_INIT                  000000018000febc f   LIBCMT:dllcrt0.obj
 0001:0000f01c       _DllMainCRTStartup         000000018001001c f   LIBCMT:dllcrt0.obj
 0001:0000f17c       ___lc_codepage_func        000000018001017c f   LIBCMT:initctyp.obj
 0001:0000f1b4       ___lc_locale_name_func     00000001800101b4 f   LIBCMT:initctyp.obj
 0001:0000f1f0       ___mb_cur_max_func         00000001800101f0 f   LIBCMT:initctyp.obj
 0001:0000f22c       __init_ctype               000000018001022c f   LIBCMT:initctyp.obj
 0001:0000f650       __doserrno                 0000000180010650 f   LIBCMT:dosmap.obj
 0001:0000f670       _dosmaperr                 0000000180010670 f   LIBCMT:dosmap.obj
 0001:0000f6c0       _errno                     00000001800106c0 f   LIBCMT:dosmap.obj
 0001:0000f6e0       _get_errno_from_oserr      00000001800106e0 f   LIBCMT:dosmap.obj
 0001:0000f7ac       _ismbblead                 00000001800107ac f   LIBCMT:ismbbyte.obj
 0001:0000f7d0       memset                     00000001800107d0 f   LIBCMT:memset.obj
 0001:0000fa10       strlen                     0000000180010a10 f   LIBCMT:strlen.obj
 0001:0000fab8       _CxxThrowException         0000000180010ab8 f   LIBCMT:throw.obj
 0001:0000fb80       ?_GetEstablisherFrame@@YAPEA_KPEA_KPEAU_xDISPATCHER_CONTEXT@@PEBU_s_FuncInfo@@0@Z 0000000180010b80 f   LIBCMT:trnsctrl.obj
 0001:0000fc4c       ?_GetRangeOfTrysToCheck@@YAPEBU_s_TryBlockMapEntry@@PEA_KPEBU_s_FuncInfo@@HHPEAI2PEAU_xDISPATCHER_CONTEXT@@@Z 0000000180010c4c f   LIBCMT:trnsctrl.obj
 0001:0000fd78       ?__FrameUnwindToEmptyState@@YAXPEA_KPEAU_xDISPATCHER_CONTEXT@@PEBU_s_FuncInfo@@@Z 0000000180010d78 f   LIBCMT:trnsctrl.obj
 0001:0000fe0c       ?__SehTransFilter@@YAHPEAU_EXCEPTION_POINTERS@@PEAUEHExceptionRecord@@PEA_KPEAU_CONTEXT@@PEAU_xDISPATCHER_CONTEXT@@PEBU_s_FuncInfo@@PEAH@Z 0000000180010e0c f   LIBCMT:trnsctrl.obj
 0001:0000feb0       _CallSETranslator          0000000180010eb0 f   LIBCMT:trnsctrl.obj
 0001:0000ff04       _CreateFrameInfo           0000000180010f04 f   LIBCMT:trnsctrl.obj
 0001:0000ff48       _FindAndUnlinkFrame        0000000180010f48 f   LIBCMT:trnsctrl.obj
 0001:0000ffa8       _GetImageBase              0000000180010fa8 f   LIBCMT:trnsctrl.obj
 0001:0000ffc0       _GetThrowImageBase         0000000180010fc0 f   LIBCMT:trnsctrl.obj
 0001:0000ffd8       _IsExceptionObjectToBeDestroyed 0000000180010fd8 f   LIBCMT:trnsctrl.obj
 0001:0001000c       _SetImageBase              000000018001100c f   LIBCMT:trnsctrl.obj
 0001:00010028       _SetThrowImageBase         0000000180011028 f   LIBCMT:trnsctrl.obj
 0001:00010044       _UnwindNestedFrames        0000000180011044 f   LIBCMT:trnsctrl.obj
 0001:00010168       __CxxFrameHandler3         0000000180011168 f   LIBCMT:trnsctrl.obj
 0001:000101f0       _fpmath                    00000001800111f0 f   LIBCMT:fpinit.obj
 0001:000101f8       _cfltcvt_init              00000001800111f8 f   LIBCMT:fpinit.obj
 0001:00010280       setlocale                  0000000180011280 f   LIBCMT:setlocal.obj
 0001:000104f0       ??0bad_cast@std@@QEAA@AEBV01@@Z 00000001800114f0 f   LIBCMT:stdexcpt.obj
 0001:00010514       ??0bad_cast@std@@QEAA@PEBD@Z 0000000180011514 f   LIBCMT:stdexcpt.obj
 0001:00010540       ??0exception@std@@QEAA@AEBQEBD@Z 0000000180011540 f   LIBCMT:stdexcpt.obj
 0001:00010570       ??0exception@std@@QEAA@AEBQEBDH@Z 0000000180011570 f   LIBCMT:stdexcpt.obj
 0001:0001058c       ??0exception@std@@QEAA@AEBV01@@Z 000000018001158c f   LIBCMT:stdexcpt.obj
 0001:000105b8       ??1bad_cast@std@@UEAA@XZ   00000001800115b8 f   LIBCMT:stdexcpt.obj
 0001:000105b8       ??1exception@std@@UEAA@XZ  00000001800115b8 f   LIBCMT:stdexcpt.obj
 0001:000105c8       ??4exception@std@@QEAAAEAV01@AEBV01@@Z 00000001800115c8 f   LIBCMT:stdexcpt.obj
 0001:0001060c       ??_Eexception@std@@UEAAPEAXI@Z 000000018001160c f i LIBCMT:stdexcpt.obj
 0001:0001060c       ??_Ebad_cast@std@@UEAAPEAXI@Z 000000018001160c f i LIBCMT:stdexcpt.obj
 0001:0001060c       ??_Gexception@std@@UEAAPEAXI@Z 000000018001160c f i LIBCMT:stdexcpt.obj
 0001:0001060c       ??_Gbad_cast@std@@UEAAPEAXI@Z 000000018001160c f i LIBCMT:stdexcpt.obj
 0001:00010648       ?_Copy_str@exception@std@@AEAAXPEBD@Z 0000000180011648 f   LIBCMT:stdexcpt.obj
 0001:000106a4       ?_Tidy@exception@std@@AEAAXXZ 00000001800116a4 f   LIBCMT:stdexcpt.obj
 0001:000106cc       ?what@exception@std@@UEBAPEBDXZ 00000001800116cc f   LIBCMT:stdexcpt.obj
 0001:000106e0       __initstdio                00000001800116e0 f   LIBCMT:_file.obj
 0001:00010778       __endstdio                 0000000180011778 f   LIBCMT:_file.obj
 0001:000107a8       __iob_func                 00000001800117a8 f   LIBCMT:_file.obj
 0001:000107b0       _lock_file                 00000001800117b0 f   LIBCMT:_file.obj
 0001:00010818       _lock_file2                0000000180011818 f   LIBCMT:_file.obj
 0001:0001084c       _unlock_file               000000018001184c f   LIBCMT:_file.obj
 0001:0001089c       _unlock_file2              000000018001189c f   LIBCMT:_file.obj
 0001:000108bc       _fclose_nolock             00000001800118bc f   LIBCMT:fclose.obj
 0001:00010938       fclose                     0000000180011938 f   LIBCMT:fclose.obj
 0001:000109a0       _fflush_nolock             00000001800119a0 f   LIBCMT:fflush.obj
 0001:000109ec       _flush                     00000001800119ec f   LIBCMT:fflush.obj
 0001:00010a68       _flushall                  0000000180011a68 f   LIBCMT:fflush.obj
 0001:00010a74       fflush                     0000000180011a74 f   LIBCMT:fflush.obj
 0001:00010ba0       fgetc                      0000000180011ba0 f   LIBCMT:fgetc.obj
 0001:00010ca0       fgetpos                    0000000180011ca0 f   LIBCMT:fgetpos.obj
 0001:00010cec       fputc                      0000000180011cec f   LIBCMT:fputc.obj
 0001:00010dfc       fsetpos                    0000000180011dfc f   LIBCMT:fsetpos.obj
 0001:00010e34       _fseeki64                  0000000180011e34 f   LIBCMT:fseeki64.obj
 0001:00010ea8       _fseeki64_nolock           0000000180011ea8 f   LIBCMT:fseeki64.obj
 0001:00010f5c       _fwrite_nolock             0000000180011f5c f   LIBCMT:fwrite.obj
 0001:000110ec       fwrite                     00000001800120ec f   LIBCMT:fwrite.obj
 0001:0001117c       setvbuf                    000000018001217c f   LIBCMT:setvbuf.obj
 0001:00011294       _ungetc_nolock             0000000180012294 f   LIBCMT:ungetc.obj
 0001:0001139c       ungetc                     000000018001239c f   LIBCMT:ungetc.obj
 0001:000113fc       memcpy_s                   00000001800123fc f   LIBCMT:memcpy_s.obj
 0001:00011484       __GSHandlerCheck_EH        0000000180012484 f   LIBCMT:gshandlereh.obj
 0001:00011514       _lock                      0000000180012514 f   LIBCMT:mlock.obj
 0001:00011558       _mtdeletelocks             0000000180012558 f   LIBCMT:mlock.obj
 0001:000115e0       _mtinitlocknum             00000001800125e0 f   LIBCMT:mlock.obj
 0001:000116a0       _mtinitlocks               00000001800126a0 f   LIBCMT:mlock.obj
 0001:00011704       _unlock                    0000000180012704 f   LIBCMT:mlock.obj
 0001:0001171c       __pctype_func              000000018001271c f   LIBCMT:ctype.obj
 0001:00011758       isdigit                    0000000180012758 f i LIBCMT:_ctype.obj
 0001:000117d4       islower                    00000001800127d4 f i LIBCMT:_ctype.obj
 0001:00011850       isupper                    0000000180012850 f i LIBCMT:_ctype.obj
 0001:000118cc       _wcsdup                    00000001800128cc f   LIBCMT:wcsdup.obj
 0001:00011c30       __crtLCMapStringA          0000000180012c30 f   LIBCMT:a_map.obj
 0001:00011cc8       _calloc_crt                0000000180012cc8 f   LIBCMT:crtheap.obj
 0001:00011d48       _malloc_crt                0000000180012d48 f   LIBCMT:crtheap.obj
 0001:00011dc4       _realloc_crt               0000000180012dc4 f   LIBCMT:crtheap.obj
 0001:00011e60       strcmp                     0000000180012e60 f   LIBCMT:strcmp.obj
 0001:00011ec8       __GSHandlerCheck           0000000180012ec8 f   LIBCMT:gshandler.obj
 0001:00011ee8       __GSHandlerCheckCommon     0000000180012ee8 f   LIBCMT:gshandler.obj
 0001:00011f4c       __crtCaptureCurrentContext 0000000180012f4c f   LIBCMT:winapisupp.obj
 0001:00011fbc       __crtCapturePreviousContext 0000000180012fbc f   LIBCMT:winapisupp.obj
 0001:00012030       __crtFlsAlloc              0000000180013030 f   LIBCMT:winapisupp.obj
 0001:0001204c       __crtFlsFree               000000018001304c f   LIBCMT:winapisupp.obj
 0001:00012068       __crtFlsGetValue           0000000180013068 f   LIBCMT:winapisupp.obj
 0001:00012084       __crtFlsSetValue           0000000180013084 f   LIBCMT:winapisupp.obj
 0001:000120a0       __crtInitializeCriticalSectionEx 00000001800130a0 f   LIBCMT:winapisupp.obj
 0001:000120cc       __crtIsPackagedApp         00000001800130cc f   LIBCMT:winapisupp.obj
 0001:00012118       __crtLoadWinApiPointers    0000000180013118 f   LIBCMT:winapisupp.obj
 0001:00012514       __crtSleep                 0000000180013514 f   LIBCMT:winapisupp.obj
 0001:0001251c       __crtTerminateProcess      000000018001351c f   LIBCMT:winapisupp.obj
 0001:0001253c       __crtUnhandledException    000000018001353c f   LIBCMT:winapisupp.obj
 0001:0001255c       wcslen                     000000018001355c f   LIBCMT:wcslen.obj
 0001:00012578       _tolower_l                 0000000180013578 f   LIBCMT:tolower.obj
 0001:000126cc       tolower                    00000001800136cc f   LIBCMT:tolower.obj
 0001:00012700       memcmp                     0000000180013700 f   LIBCMT:memcmp.obj
 0001:000127c8       GetTableIndexFromLcid      00000001800137c8 f   LIBCMT:winapinls.obj
 0001:0001280c       GetTableIndexFromLocaleName 000000018001380c f   LIBCMT:winapinls.obj
 0001:00012898       __crtDownlevelLCIDToLocaleName 0000000180013898 f   LIBCMT:winapinls.obj
 0001:00012948       __crtDownlevelLocaleNameToLCID 0000000180013948 f   LIBCMT:winapinls.obj
 0001:00012988       __crtEnumSystemLocalesEx   0000000180013988 f   LIBCMT:winapinls.obj
 0001:000129cc       __crtGetLocaleInfoEx       00000001800139cc f   LIBCMT:winapinls.obj
 0001:00012a1c       __crtGetUserDefaultLocaleName 0000000180013a1c f   LIBCMT:winapinls.obj
 0001:00012a60       __crtIsValidLocaleName     0000000180013a60 f   LIBCMT:winapinls.obj
 0001:00012a94       __crtLCMapStringEx         0000000180013a94 f   LIBCMT:winapinls.obj
 0001:00012b24       __wcsnicmp_ascii           0000000180013b24 f   LIBCMT:winapinls.obj
 0001:00012b7c       __crtLCMapStringW          0000000180013b7c f   LIBCMT:w_map.obj
 0001:00012bc8       __raise_securityfailure    0000000180013bc8 f   LIBCMT:gs_report.obj
 0001:00012c14       __report_gsfailure         0000000180013c14 f   LIBCMT:gs_report.obj
 0001:00012ce8       __report_rangecheckfailure 0000000180013ce8 f   LIBCMT:gs_report.obj
 0001:00012cfc       __report_securityfailure   0000000180013cfc f   LIBCMT:gs_report.obj
 0001:00012d98       __crtCorExitProcess        0000000180013d98 f   LIBCMT:crt0dat.obj
 0001:00012ddc       __crtExitProcess           0000000180013ddc f   LIBCMT:crt0dat.obj
 0001:00012df4       __freeCrtMemory            0000000180013df4 f   LIBCMT:crt0dat.obj
 0001:00012f3c       _amsg_exit                 0000000180013f3c f   LIBCMT:crt0dat.obj
 0001:00012f64       _cexit                     0000000180013f64 f   LIBCMT:crt0dat.obj
 0001:00012f74       _cinit                     0000000180013f74 f   LIBCMT:crt0dat.obj
 0001:0001300c       _exit                      000000018001400c f   LIBCMT:crt0dat.obj
 0001:00013018       _init_pointers             0000000180014018 f   LIBCMT:crt0dat.obj
 0001:000130c4       _initterm_e                00000001800140c4 f   LIBCMT:crt0dat.obj
 0001:00013100       _lockexit                  0000000180014100 f   LIBCMT:crt0dat.obj
 0001:0001310c       _unlockexit                000000018001410c f   LIBCMT:crt0dat.obj
 0001:000132b0       __get_sigabrt              00000001800142b0 f   LIBCMT:winsig.obj
 0001:000132c0       _initp_misc_winsig         00000001800142c0 f   LIBCMT:winsig.obj
 0001:000132e0       raise                      00000001800142e0 f   LIBCMT:winsig.obj
 0001:00013514       __crt_debugger_hook        0000000180014514 f   LIBCMT:dbghook.obj
 0001:0001351c       _flsbuf                    000000018001451c f   LIBCMT:_flsbuf.obj
 0001:000136a8       _vsnprintf_helper          00000001800146a8 f   LIBCMT:vsnprnc.obj
 0001:00013790       _vsprintf_s_l              0000000180014790 f   LIBCMT:vsnprnc.obj
 0001:00013800       __isa_available_init       0000000180014800 f   LIBCMT:cpu_disp.obj
 0001:000139a4       _heap_init                 00000001800149a4 f   LIBCMT:heapinit.obj
 0001:000139c4       _heap_term                 00000001800149c4 f   LIBCMT:heapinit.obj
 0001:000139d0       _callnewh                  00000001800149d0 f   LIBCMT:handler.obj
 0001:00013a04       _initp_heap_handler        0000000180014a04 f   LIBCMT:handler.obj
 0001:00013a0c       _FF_MSGBANNER              0000000180014a0c f   LIBCMT:crt0msg.obj
 0001:00013a50       _GET_RTERRMSG              0000000180014a50 f   LIBCMT:crt0msg.obj
 0001:00013a80       _NMSG_WRITE                0000000180014a80 f   LIBCMT:crt0msg.obj
 0001:00013cf0       ?_inconsistency@@YAXXZ     0000000180014cf0 f   LIBCMT:hooks.obj
 0001:00013d10       ?terminate@@YAXXZ          0000000180014d10 f   LIBCMT:hooks.obj
 0001:00013d30       _initp_eh_hooks            0000000180014d30 f   LIBCMT:hooks.obj
 0001:00013d50       __C_specific_handler       0000000180014d50 f   LIBCMT:chandler.obj
 0001:00013f34       __addlocaleref             0000000180014f34 f   LIBCMT:localref.obj
 0001:00013fc0       __freetlocinfo             0000000180014fc0 f   LIBCMT:localref.obj
 0001:00014158       __removelocaleref          0000000180015158 f   LIBCMT:localref.obj
 0001:000141fc       __updatetlocinfo           00000001800151fc f   LIBCMT:localref.obj
 0001:00014274       _updatetlocinfoEx_nolock   0000000180015274 f   LIBCMT:localref.obj
 0001:000142d8       _freefls                   00000001800152d8 f   LIBCMT:tidtable.obj
 0001:0001440c       _freeptd                   000000018001540c f   LIBCMT:tidtable.obj
 0001:00014448       _getptd                    0000000180015448 f   LIBCMT:tidtable.obj
 0001:0001446c       _getptd_noexit             000000018001546c f   LIBCMT:tidtable.obj
 0001:000144f0       _initptd                   00000001800154f0 f   LIBCMT:tidtable.obj
 0001:000145b4       _mtinit                    00000001800155b4 f   LIBCMT:tidtable.obj
 0001:00014634       _mtterm                    0000000180015634 f   LIBCMT:tidtable.obj
 0001:00014658       wcscat_s                   0000000180015658 f   LIBCMT:wcscat_s.obj
 0001:000146e0       wcscpy_s                   00000001800156e0 f   LIBCMT:wcscpy_s.obj
 0001:0001474c       wcsncat_s                  000000018001574c f   LIBCMT:wcsncat_s.obj
 0001:00014834       _set_error_mode            0000000180015834 f   LIBCMT:errmode.obj
 0001:00014874       _itow_s                    0000000180015874 f   LIBCMT:xtows.obj
 0001:000149ac       fwprintf                   00000001800159ac f   LIBCMT:fwprintf.obj
 0001:00014a40       _vswprintf_c_l             0000000180015a40 f   LIBCMT:vswprnc.obj
 0001:00014a78       _vswprintf_helper          0000000180015a78 f   LIBCMT:vswprnc.obj
 0001:00014b94       __crtMessageBoxW           0000000180015b94 f   LIBCMT:crtmboxw.obj
 0001:00014e08       _msize                     0000000180015e08 f   LIBCMT:msize.obj
 0001:00014e44       __getlocaleinfo            0000000180015e44 f   LIBCMT:inithelp.obj
 0001:0001502c       _initp_misc_purevirt       000000018001602c f   LIBCMT:inithelp.obj
 0001:00015034       ?_Type_info_dtor@type_info@@CAXPEAV1@@Z 0000000180016034 f   LIBCMT:typname.obj
 0001:000150a0       __initmbctable             00000001800160a0 f   LIBCMT:mbctype.obj
 0001:000153bc       __updatetmbcinfo           00000001800163bc f   LIBCMT:mbctype.obj
 0001:00015478       _setmbcp                   0000000180016478 f   LIBCMT:mbctype.obj
 0001:000156bc       _setmbcp_nolock            00000001800166bc f   LIBCMT:mbctype.obj
 0001:0001596c       _locterm                   000000018001696c f   LIBCMT:wsetloca.obj
 0001:000159b4       __copy_locale_name         00000001800169b4 f   LIBCMT:wsetloca.obj
 0001:00015a38       __lc_lctowcs               0000000180016a38 f   LIBCMT:wsetloca.obj
 0001:00015adc       __lc_wcstolc               0000000180016adc f   LIBCMT:wsetloca.obj
 0001:00015d50       _expandlocale              0000000180016d50 f   LIBCMT:wsetloca.obj
 0001:00016124       _wcscats                   0000000180017124 f   LIBCMT:wsetloca.obj
 0001:0001618c       _wsetlocale                000000018001718c f   LIBCMT:wsetloca.obj
 0001:00016a78       _XcptFilter                0000000180017a78 f   LIBCMT:winxfltr.obj
 0001:00016c44       __CppXcptFilter            0000000180017c44 f   LIBCMT:winxfltr.obj
 0001:00016c58       _ioinit                    0000000180017c58 f   LIBCMT:ioinit.obj
 0001:00016f88       _ioterm                    0000000180017f88 f   LIBCMT:ioinit.obj
 0001:00016ffc       _setargv                   0000000180017ffc f   LIBCMT:stdargv.obj
 0001:000172b8       _setenvp                   00000001800182b8 f   LIBCMT:stdenvp.obj
 0001:000173ec       __security_init_cookie     00000001800183ec f   LIBCMT:gs_support.obj
 0001:00017498       __crtGetEnvironmentStringsA 0000000180018498 f   LIBCMT:a_env.obj
 0001:0001758c       _RTC_Initialize            000000018001858c f   LIBCMT:initsect.obj
 0001:000175c4       _RTC_Terminate             00000001800185c4 f   LIBCMT:initsect.obj
 0001:00017774       __crtGetStringTypeA        0000000180018774 f   LIBCMT:a_str.obj
 0001:000177f0       __DestructExceptionObject  00000001800187f0 f   LIBCMT:frame.obj
 0001:00017860       ??0bad_exception@std@@QEAA@AEBV01@@Z 0000000180018860 f i LIBCMT:frame.obj
 0001:00017884       ??1bad_exception@std@@UEAA@XZ 0000000180018884 f i LIBCMT:frame.obj
 0001:00017894       ??_Gbad_exception@std@@UEAAPEAXI@Z 0000000180018894 f i LIBCMT:frame.obj
 0001:00017894       ??_Ebad_exception@std@@UEAAPEAXI@Z 0000000180018894 f i LIBCMT:frame.obj
 0001:00018188       __AdjustPointer            0000000180019188 f   LIBCMT:frame.obj
 0001:000181ac       __BuildCatchObject         00000001800191ac f   LIBCMT:frame.obj
 0001:00018264       __BuildCatchObjectHelper   0000000180019264 f   LIBCMT:frame.obj
 0001:000184b4       __CxxCallCatchBlock        00000001800194b4 f   LIBCMT:frame.obj
 0001:000186b8       __FrameUnwindFilter        00000001800196b8 f   LIBCMT:frame.obj
 0001:0001870c       __FrameUnwindToState       000000018001970c f   LIBCMT:frame.obj
 0001:000188a0       __InternalCxxFrameHandler  00000001800198a0 f   LIBCMT:frame.obj
 0001:00018ac4       __TypeMatch                0000000180019ac4 f   LIBCMT:frame.obj
 0001:00018bf4       ?__GetCurrentState@@YAHPEA_KPEAU_xDISPATCHER_CONTEXT@@PEBU_s_FuncInfo@@@Z 0000000180019bf4 f   LIBCMT:ehstate.obj
 0001:00018c1c       ?__GetUnwindTryBlock@@YAHPEA_KPEAU_xDISPATCHER_CONTEXT@@PEBU_s_FuncInfo@@@Z 0000000180019c1c f   LIBCMT:ehstate.obj
 0001:00018c48       ?__SetState@@YAXPEA_KPEAU_xDISPATCHER_CONTEXT@@PEBU_s_FuncInfo@@H@Z 0000000180019c48 f   LIBCMT:ehstate.obj
 0001:00018c54       ?__SetUnwindTryBlock@@YAXPEA_KPEAU_xDISPATCHER_CONTEXT@@PEBU_s_FuncInfo@@H@Z 0000000180019c54 f   LIBCMT:ehstate.obj
 0001:00018c90       ?__StateFromControlPc@@YAHPEBU_s_FuncInfo@@PEAU_xDISPATCHER_CONTEXT@@@Z 0000000180019c90 f   LIBCMT:ehstate.obj
 0001:00018c98       ?__StateFromIp@@YAHPEBU_s_FuncInfo@@PEAU_xDISPATCHER_CONTEXT@@_J@Z 0000000180019c98 f   LIBCMT:ehstate.obj
 0001:00018d24       _cfltcvt                   0000000180019d24 f   LIBCMT:cvt.obj
 0001:00018d48       _cfltcvt_l                 0000000180019d48 f   LIBCMT:cvt.obj
 0001:00018dc8       _cftoa_l                   0000000180019dc8 f   LIBCMT:cvt.obj
 0001:00019374       _cftoe_l                   000000018001a374 f   LIBCMT:cvt.obj
 0001:000195d0       _cftof_l                   000000018001a5d0 f   LIBCMT:cvt.obj
 0001:000196a4       _cftog_l                   000000018001a6a4 f   LIBCMT:cvt.obj
 0001:000197d8       _cropzeros                 000000018001a7d8 f   LIBCMT:cvt.obj
 0001:000197e0       _cropzeros_l               000000018001a7e0 f   LIBCMT:cvt.obj
 0001:00019878       _fassign                   000000018001a878 f   LIBCMT:cvt.obj
 0001:00019880       _fassign_l                 000000018001a880 f   LIBCMT:cvt.obj
 0001:000198c0       _forcdecpt                 000000018001a8c0 f   LIBCMT:cvt.obj
 0001:000198c8       _forcdecpt_l               000000018001a8c8 f   LIBCMT:cvt.obj
 0001:00019948       _positive                  000000018001a948 f   LIBCMT:cvt.obj
 0001:0001995c       _initp_misc_cfltcvt_tab    000000018001a95c f   LIBCMT:cmiscdat.obj
 0001:00019998       _mbstowcs_l_helper         000000018001a998 f   LIBCMT:mbstowcs.obj
 0001:00019b74       _mbstowcs_s_l              000000018001ab74 f   LIBCMT:mbstowcs.obj
 0001:00019ca4       mbstowcs_s                 000000018001aca4 f   LIBCMT:mbstowcs.obj
 0001:00019cc4       _wcstombs_l_helper         000000018001acc4 f   LIBCMT:wcstombs.obj
 0001:00019ff4       _wcstombs_s_l              000000018001aff4 f   LIBCMT:wcstombs.obj
 0001:0001a0e0       strcpy_s                   000000018001b0e0 f   LIBCMT:strcpy_s.obj
 0001:0001a144       _fcloseall                 000000018001b144 f   LIBCMT:closeall.obj
 0001:0001a1ec       _fileno                    000000018001b1ec f   LIBCMT:fileno.obj
 0001:0001a214       _close                     000000018001b214 f   LIBCMT:close.obj
 0001:0001a2d8       _close_nolock              000000018001b2d8 f   LIBCMT:close.obj
 0001:0001a394       _freebuf                   000000018001b394 f   LIBCMT:_freebuf.obj
 0001:0001a3cc       _commit                    000000018001b3cc f   LIBCMT:commit.obj
 0001:0001a4a4       _write                     000000018001b4a4 f   LIBCMT:write.obj
 0001:0001a588       _write_nolock              000000018001b588 f   LIBCMT:write.obj
 0001:0001ad7c       _filbuf                    000000018001bd7c f   LIBCMT:_filbuf.obj
 0001:0001aec0       _ftelli64                  000000018001bec0 f   LIBCMT:ftelli64.obj
 0001:0001af1c       _ftelli64_nolock           000000018001bf1c f   LIBCMT:ftelli64.obj
 0001:0001b230       _lseeki64                  000000018001c230 f   LIBCMT:lseeki64.obj
 0001:0001b318       _lseeki64_nolock           000000018001c318 f   LIBCMT:lseeki64.obj
 0001:0001b3ac       _getbuf                    000000018001c3ac f   LIBCMT:_getbuf.obj
 0001:0001b400       _isctype_l                 000000018001c400 f   LIBCMT:isctype.obj
 0001:0001b4dc       calloc                     000000018001c4dc f   LIBCMT:calloc.obj
 0001:0001b530       _alloca_probe              000000018001c530 f   LIBCMT:chkstk.obj
 0001:0001b530       __chkstk                   000000018001c530 f   LIBCMT:chkstk.obj
 0001:0001b580       realloc                    000000018001c580 f   LIBCMT:realloc.obj
 0001:0001b654       _calloc_impl               000000018001c654 f   LIBCMT:calloc_impl.obj
 0001:0001b6f0       _wcsicmp                   000000018001c6f0 f   LIBCMT:wcsicmp.obj
 0001:0001b774       _wcsicmp_l                 000000018001c774 f   LIBCMT:wcsicmp.obj
 0001:0001b864       _isleadbyte_l              000000018001c864 f i LIBCMT:_wctype.obj
 0001:0001b8a8       isleadbyte                 000000018001c8a8 f i LIBCMT:_wctype.obj
 0001:0001b8f0       wcsnlen                    000000018001c8f0 f   LIBCMT:wcslen_s.obj
 0001:0001b910       _FindPESection             000000018001c910 f   LIBCMT:pesect.obj
 0001:0001b960       _IsNonwritableInCurrentImage 000000018001c960 f   LIBCMT:pesect.obj
 0001:0001b9b0       _ValidateImageBase         000000018001c9b0 f   LIBCMT:pesect.obj
 0001:0001b9e0       _initp_misc_rand_s         000000018001c9e0 f   LIBCMT:rand_s.obj
 0001:0001b9e8       _ftbuf                     000000018001c9e8 f   LIBCMT:_sftbuf.obj
 0001:0001ba20       _stbuf                     000000018001ca20 f   LIBCMT:_sftbuf.obj
 0001:0001baf0       _isatty                    000000018001caf0 f   LIBCMT:isatty.obj
 0001:0001bb50       _output_s_l                000000018001cb50 f   LIBCMT:outputs.obj
 0001:0001c6a8       _get_printf_count_output   000000018001d6a8 f   LIBCMT:printf.obj
 0001:0001c6c0       _wctomb_s_l                000000018001d6c0 f   LIBCMT:wctomb.obj
 0001:0001c84c       wctomb_s                   000000018001d84c f   LIBCMT:wctomb.obj
 0001:0001c860       wcsncpy_s                  000000018001d860 f   LIBCMT:wcsncpy_s.obj
 0001:0001c940       _local_unwind              000000018001d940 f   LIBCMT:jmpuwind.obj
 0001:0001c970       _NLG_Notify                000000018001d970 f   LIBCMT:jmpuwind.obj
 0001:0001c990       __NLG_Dispatch2            000000018001d990 f   LIBCMT:jmpuwind.obj
 0001:0001c9a0       __NLG_Return2              000000018001d9a0 f   LIBCMT:jmpuwind.obj
 0001:0001c9a4       __free_lconv_mon           000000018001d9a4 f   LIBCMT:initmon.obj
 0001:0001cab0       __init_monetary            000000018001dab0 f   LIBCMT:initmon.obj
 0001:0001cfb0       __free_lconv_num           000000018001dfb0 f   LIBCMT:initnum.obj
 0001:0001d01c       __init_numeric             000000018001e01c f   LIBCMT:initnum.obj
 0001:0001d2e4       __free_lc_time             000000018001e2e4 f   LIBCMT:inittime.obj
 0001:0001d6e0       __init_time                000000018001e6e0 f   LIBCMT:inittime.obj
 0001:0001e2fc       _woutput_l                 000000018001f2fc f   LIBCMT:woutput.obj
 0001:0001eebc       strncpy_s                  000000018001febc f   LIBCMT:strncpy_s.obj
 0001:0001f0e4       __crtGetLocaleInfoA        00000001800200e4 f   LIBCMT:a_loc.obj
 0001:0001f160       _get_fpsr                  0000000180020160 f   LIBCMT:fpsr.obj
 0001:0001f170       _set_fpsr                  0000000180020170 f   LIBCMT:fpsr.obj
 0001:0001f17a       _fclrf                     000000018002017a f   LIBCMT:fpsr.obj
 0001:0001f18e       _frnd                      000000018002018e f   LIBCMT:fpsr.obj
 0001:0001f1b0       wcscmp                     00000001800201b0 f   LIBCMT:wcscmp.obj
 0001:0001f1ec       wcscspn                    00000001800201ec f   LIBCMT:wcscspn.obj
 0001:0001f22c       wcsncmp                    000000018002022c f   LIBCMT:wcsncmp.obj
 0001:0001f258       wcspbrk                    0000000180020258 f   LIBCMT:wcspbrk.obj
 0001:0001f950       __get_qualified_locale     0000000180020950 f   LIBCMT:getqloc.obj
 0001:00020380       __get_qualified_locale_downlevel 0000000180021380 f   LIBCMT:getqloc_downlevel.obj
 0001:00020618       ?_ValidateExecute@@YAHP6A_JXZ@Z 0000000180021618 f   LIBCMT:validate.obj
 0001:00020618       ?_ValidateRead@@YAHPEBXI@Z 0000000180021618 f   LIBCMT:validate.obj
 0001:00020618       ?_ValidateWrite@@YAHPEAXI@Z 0000000180021618 f   LIBCMT:validate.obj
 0001:00020640       _CallSettingFrame          0000000180021640 f   LIBCMT:handlers.obj
 0001:00020680       _GetNextInstrOffset        0000000180021680 f   LIBCMT:handlers.obj
 0001:00020688       strrchr                    0000000180021688 f   LIBCMT:strrchr.obj
 0001:000207cc       _fptostr                   00000001800217cc f   LIBCMT:_fptostr.obj
 0001:00020898       __crt_atoflt_l             0000000180021898 f   LIBCMT:atodbl.obj
 0001:00020968       _atodbl_l                  0000000180021968 f   LIBCMT:atodbl.obj
 0001:00020a30       _atoflt_l                  0000000180021a30 f   LIBCMT:atodbl.obj
 0001:00020a38       __dtold                    0000000180021a38 f   LIBCMT:cfout.obj
 0001:00020b08       _fltout2                   0000000180021b08 f   LIBCMT:cfout.obj
 0001:00020bc0       _fptrap                    0000000180021bc0 f   LIBCMT:crt0fp.obj
 0001:00020bcc       __lock_fhandle             0000000180021bcc f   LIBCMT:osfinfo.obj
 0001:00020c64       _free_osfhnd               0000000180021c64 f   LIBCMT:osfinfo.obj
 0001:00020d10       _get_osfhandle             0000000180021d10 f   LIBCMT:osfinfo.obj
 0001:00020d84       _unlock_fhandle            0000000180021d84 f   LIBCMT:osfinfo.obj
 0001:00020db0       _mbtowc_l                  0000000180021db0 f   LIBCMT:mbtowc.obj
 0001:00020f04       mbtowc                     0000000180021f04 f   LIBCMT:mbtowc.obj
 0001:00020f0c       _putwch_nolock             0000000180021f0c f   LIBCMT:putwch.obj
 0001:00020f68       _read                      0000000180021f68 f   LIBCMT:read.obj
 0001:00021084       _read_nolock               0000000180022084 f   LIBCMT:read.obj
 0001:000218f4       _towlower_l                00000001800228f4 f   LIBCMT:towlower.obj
 0001:000219c0       iswctype                   00000001800229c0 f   LIBCMT:iswctype.obj
 0001:00021a28       _fputwc_nolock             0000000180022a28 f   LIBCMT:fputwc.obj
 0001:00021e04       wcstol                     0000000180022e04 f   LIBCMT:wcstol.obj
 0001:00021e0c       _wtol                      0000000180022e0c f   LIBCMT:wtox.obj
 0001:00021e18       wcschr                     0000000180022e18 f   LIBCMT:wcschr.obj
 0001:00021ea4       _wcsnicmp                  0000000180022ea4 f   LIBCMT:wcsnicmp.obj
 0001:00021f3c       _wcsnicmp_l                0000000180022f3c f   LIBCMT:wcsnicmp.obj
 0001:00022054       _ld12tod                   0000000180023054 f   LIBCMT:intrncvt.obj
 0001:0002260c       _ld12tof                   000000018002360c f   LIBCMT:intrncvt.obj
 0001:00022bc4       __strgtold12_l             0000000180023bc4 f   LIBCMT:strgtold.obj
 0001:00023428       $I10_OUTPUT                0000000180024428 f   LIBCMT:x10fout.obj
 0001:00023f00       __termconout               0000000180024f00 f   LIBCMT:initcon.obj
 0001:00023f20       __initconout               0000000180024f20 f   LIBCMT:initcon.obj
 0001:00023f5c       _flswbuf                   0000000180024f5c f   LIBCMT:_flswbuf.obj
 0001:000240ec       _wchartodigit              00000001800250ec f   LIBCMT:wchtodig.obj
 0001:00024284       __mtold12                  0000000180025284 f   LIBCMT:mantold.obj
 0001:000244b0       IsProcessorFeaturePresent  00000001800254b0 f   kernel32:KERNEL32.dll
 0001:000244b6       RtlUnwindEx                00000001800254b6 f   kernel32:KERNEL32.dll
 0001:000244bc       __delayLoadHelper2         00000001800254bc f   DelayImp:delayhlp.obj
 0002:00000000       __imp_InitializeCriticalSectionAndSpinCount 0000000180027000     kernel32:KERNEL32.dll
 0002:00000008       __imp_Sleep                0000000180027008     kernel32:KERNEL32.dll
 0002:00000010       __imp_LeaveCriticalSection 0000000180027010     kernel32:KERNEL32.dll
 0002:00000018       __imp_EnterCriticalSection 0000000180027018     kernel32:KERNEL32.dll
 0002:00000020       __imp_DeleteCriticalSection 0000000180027020     kernel32:KERNEL32.dll
 0002:00000028       __imp_GetModuleHandleA     0000000180027028     kernel32:KERNEL32.dll
 0002:00000030       __imp_CreateFileW          0000000180027030     kernel32:KERNEL32.dll
 0002:00000038       __imp_ReadConsoleW         0000000180027038     kernel32:KERNEL32.dll
 0002:00000040       __imp_SetStdHandle         0000000180027040     kernel32:KERNEL32.dll
 0002:00000048       __imp_FreeLibrary          0000000180027048     kernel32:KERNEL32.dll
 0002:00000050       __imp_HeapReAlloc          0000000180027050     kernel32:KERNEL32.dll
 0002:00000058       __imp_SetFilePointerEx     0000000180027058     kernel32:KERNEL32.dll
 0002:00000060       __imp_ReadFile             0000000180027060     kernel32:KERNEL32.dll
 0002:00000068       __imp_GetConsoleMode       0000000180027068     kernel32:KERNEL32.dll
 0002:00000070       __imp_GetConsoleCP         0000000180027070     kernel32:KERNEL32.dll
 0002:00000078       __imp_FlushFileBuffers     0000000180027078     kernel32:KERNEL32.dll
 0002:00000080       __imp_CloseHandle          0000000180027080     kernel32:KERNEL32.dll
 0002:00000088       __imp_FreeEnvironmentStringsW 0000000180027088     kernel32:KERNEL32.dll
 0002:00000090       __imp_GetEnvironmentStringsW 0000000180027090     kernel32:KERNEL32.dll
 0002:00000098       __imp_GetSystemTimeAsFileTime 0000000180027098     kernel32:KERNEL32.dll
 0002:000000a0       __imp_GetCurrentProcessId  00000001800270a0     kernel32:KERNEL32.dll
 0002:000000a8       __imp_QueryPerformanceCounter 00000001800270a8     kernel32:KERNEL32.dll
 0002:000000b0       __imp_GetModuleFileNameA   00000001800270b0     kernel32:KERNEL32.dll
 0002:000000b8       __imp_GetOEMCP             00000001800270b8     kernel32:KERNEL32.dll
 0002:000000c0       __imp_WideCharToMultiByte  00000001800270c0     kernel32:KERNEL32.dll
 0002:000000c8       __imp_EncodePointer        00000001800270c8     kernel32:KERNEL32.dll
 0002:000000d0       __imp_DecodePointer        00000001800270d0     kernel32:KERNEL32.dll
 0002:000000d8       __imp_MultiByteToWideChar  00000001800270d8     kernel32:KERNEL32.dll
 0002:000000e0       __imp_GetStringTypeW       00000001800270e0     kernel32:KERNEL32.dll
 0002:000000e8       __imp_IsProcessorFeaturePresent 00000001800270e8     kernel32:KERNEL32.dll
 0002:000000f0       __imp_IsDebuggerPresent    00000001800270f0     kernel32:KERNEL32.dll
 0002:000000f8       __imp_GetLastError         00000001800270f8     kernel32:KERNEL32.dll
 0002:00000100       __imp_HeapFree             0000000180027100     kernel32:KERNEL32.dll
 0002:00000108       __imp_HeapAlloc            0000000180027108     kernel32:KERNEL32.dll
 0002:00000110       __imp_GetStdHandle         0000000180027110     kernel32:KERNEL32.dll
 0002:00000118       __imp_GetFileType          0000000180027118     kernel32:KERNEL32.dll
 0002:00000120       __imp_GetModuleFileNameW   0000000180027120     kernel32:KERNEL32.dll
 0002:00000128       __imp_GetModuleHandleExW   0000000180027128     kernel32:KERNEL32.dll
 0002:00000130       __imp_WriteConsoleW        0000000180027130     kernel32:KERNEL32.dll
 0002:00000138       __imp_GetCommandLineA      0000000180027138     kernel32:KERNEL32.dll
 0002:00000140       __imp_GetCurrentThreadId   0000000180027140     kernel32:KERNEL32.dll
 0002:00000148       __imp_GetCPInfo            0000000180027148     kernel32:KERNEL32.dll
 0002:00000150       __imp_RtlPcToFileHeader    0000000180027150     kernel32:KERNEL32.dll
 0002:00000158       __imp_RaiseException       0000000180027158     kernel32:KERNEL32.dll
 0002:00000160       __imp_RtlLookupFunctionEntry 0000000180027160     kernel32:KERNEL32.dll
 0002:00000168       __imp_RtlUnwindEx          0000000180027168     kernel32:KERNEL32.dll
 0002:00000170       __imp_RtlCaptureContext    0000000180027170     kernel32:KERNEL32.dll
 0002:00000178       __imp_RtlVirtualUnwind     0000000180027178     kernel32:KERNEL32.dll
 0002:00000180       __imp_UnhandledExceptionFilter 0000000180027180     kernel32:KERNEL32.dll
 0002:00000188       __imp_SetUnhandledExceptionFilter 0000000180027188     kernel32:KERNEL32.dll
 0002:00000190       __imp_SetLastError         0000000180027190     kernel32:KERNEL32.dll
 0002:00000198       __imp_GetCurrentProcess    0000000180027198     kernel32:KERNEL32.dll
 0002:000001a0       __imp_TerminateProcess     00000001800271a0     kernel32:KERNEL32.dll
 0002:000001a8       __imp_TlsAlloc             00000001800271a8     kernel32:KERNEL32.dll
 0002:000001b0       __imp_TlsGetValue          00000001800271b0     kernel32:KERNEL32.dll
 0002:000001b8       __imp_TlsSetValue          00000001800271b8     kernel32:KERNEL32.dll
 0002:000001c0       __imp_TlsFree              00000001800271c0     kernel32:KERNEL32.dll
 0002:000001c8       __imp_GetStartupInfoW      00000001800271c8     kernel32:KERNEL32.dll
 0002:000001d0       __imp_GetModuleHandleW     00000001800271d0     kernel32:KERNEL32.dll
 0002:000001d8       __imp_GetProcAddress       00000001800271d8     kernel32:KERNEL32.dll
 0002:000001e0       __imp_LCMapStringW         00000001800271e0     kernel32:KERNEL32.dll
 0002:000001e8       __imp_GetLocaleInfoW       00000001800271e8     kernel32:KERNEL32.dll
 0002:000001f0       __imp_IsValidLocale        00000001800271f0     kernel32:KERNEL32.dll
 0002:000001f8       __imp_GetUserDefaultLCID   00000001800271f8     kernel32:KERNEL32.dll
 0002:00000200       __imp_EnumSystemLocalesW   0000000180027200     kernel32:KERNEL32.dll
 0002:00000208       __imp_ExitProcess          0000000180027208     kernel32:KERNEL32.dll
 0002:00000210       __imp_GetProcessHeap       0000000180027210     kernel32:KERNEL32.dll
 0002:00000218       __imp_WriteFile            0000000180027218     kernel32:KERNEL32.dll
 0002:00000220       __imp_OutputDebugStringW   0000000180027220     kernel32:KERNEL32.dll
 0002:00000228       __imp_LoadLibraryExW       0000000180027228     kernel32:KERNEL32.dll
 0002:00000230       __imp_HeapSize             0000000180027230     kernel32:KERNEL32.dll
 0002:00000238       __imp_IsValidCodePage      0000000180027238     kernel32:KERNEL32.dll
 0002:00000240       __imp_GetACP               0000000180027240     kernel32:KERNEL32.dll
 0002:00000248       __imp_LoadLibraryExA       0000000180027248     kernel32:KERNEL32.dll
 0002:00000250       \177KERNEL32_NULL_THUNK_DATA 0000000180027250     kernel32:KERNEL32.dll
 0002:00000258       __imp_midiInStop           0000000180027258     winmm:WINMM.dll
 0002:00000260       __imp_midiOutGetNumDevs    0000000180027260     winmm:WINMM.dll
 0002:00000268       __imp_midiInClose          0000000180027268     winmm:WINMM.dll
 0002:00000270       __imp_midiInReset          0000000180027270     winmm:WINMM.dll
 0002:00000278       __imp_midiOutGetDevCapsA   0000000180027278     winmm:WINMM.dll
 0002:00000280       __imp_midiInGetDevCapsA    0000000180027280     winmm:WINMM.dll
 0002:00000288       __imp_midiInPrepareHeader  0000000180027288     winmm:WINMM.dll
 0002:00000290       __imp_midiInStart          0000000180027290     winmm:WINMM.dll
 0002:00000298       __imp_midiOutLongMsg       0000000180027298     winmm:WINMM.dll
 0002:000002a0       __imp_midiInAddBuffer      00000001800272a0     winmm:WINMM.dll
 0002:000002a8       __imp_midiInOpen           00000001800272a8     winmm:WINMM.dll
 0002:000002b0       __imp_midiOutClose         00000001800272b0     winmm:WINMM.dll
 0002:000002b8       __imp_midiOutShortMsg      00000001800272b8     winmm:WINMM.dll
 0002:000002c0       __imp_midiOutOpen          00000001800272c0     winmm:WINMM.dll
 0002:000002c8       __imp_midiOutReset         00000001800272c8     winmm:WINMM.dll
 0002:000002d0       __imp_midiOutPrepareHeader 00000001800272d0     winmm:WINMM.dll
 0002:000002d8       __imp_midiOutUnprepareHeader 00000001800272d8     winmm:WINMM.dll
 0002:000002e0       __imp_midiInGetNumDevs     00000001800272e0     winmm:WINMM.dll
 0002:000002e8       __imp_midiInUnprepareHeader 00000001800272e8     winmm:WINMM.dll
 0002:000002f0       \177WINMM_NULL_THUNK_DATA  00000001800272f0     winmm:WINMM.dll
 0002:000002f8       __xc_a                     00000001800272f8     LIBCMT:crt0init.obj
 0002:00000368       _register_midi_            0000000180027368     node-midi.obj
 0002:00000370       __xc_z                     0000000180027370     LIBCMT:crt0init.obj
 0002:00000378       __xi_a                     0000000180027378     LIBCMT:crt0init.obj
 0002:000003a0       __xi_z                     00000001800273a0     LIBCMT:crt0init.obj
 0002:000003a8       __xp_a                     00000001800273a8     LIBCMT:crt0init.obj
 0002:000003c8       __xp_z                     00000001800273c8     LIBCMT:crt0init.obj
 0002:000003d0       __xt_a                     00000001800273d0     LIBCMT:crt0init.obj
 0002:000003d8       __xt_z                     00000001800273d8     LIBCMT:crt0init.obj
 0002:00000420       __sz_node_exe              0000000180027420     node:node.exe
 0002:00000dd0       ??_C@_0BC@CIJDGCDI@permission?5denied?$AA@ 0000000180027dd0     libcpmt:syserror.obj
 0002:00000de8       ??_C@_0M@MIDIAGJP@file?5exists?$AA@ 0000000180027de8     libcpmt:syserror.obj
 0002:00000df8       ??_C@_0P@FDINDDOK@no?5such?5device?$AA@ 0000000180027df8     libcpmt:syserror.obj
 0002:00000e08       ??_C@_0BC@EJHOMAAK@filename?5too?5long?$AA@ 0000000180027e08     libcpmt:syserror.obj
 0002:00000e20       ??_C@_0BI@NGCEHDD@device?5or?5resource?5busy?$AA@ 0000000180027e20     libcpmt:syserror.obj
 0002:00000e38       ??_C@_08GLNPIFBN@io?5error?$AA@ 0000000180027e38     libcpmt:syserror.obj
 0002:00000e48       ??_C@_0BE@JIDOCPHM@directory?5not?5empty?$AA@ 0000000180027e48     libcpmt:syserror.obj
 0002:00000e60       ??_C@_0BB@FCMFBGOM@invalid?5argument?$AA@ 0000000180027e60     libcpmt:syserror.obj
 0002:00000e78       ??_C@_0BD@IJDJKDEA@no?5space?5on?5device?$AA@ 0000000180027e78     libcpmt:syserror.obj
 0002:00000e90       ??_C@_0BK@NDOCBPGE@no?5such?5file?5or?5directory?$AA@ 0000000180027e90     libcpmt:syserror.obj
 0002:00000eb0       ??_C@_0BH@KEFGLDAF@function?5not?5supported?$AA@ 0000000180027eb0     libcpmt:syserror.obj
 0002:00000ec8       ??_C@_0BC@NJECKMKE@no?5lock?5available?$AA@ 0000000180027ec8     libcpmt:syserror.obj
 0002:00000ee0       ??_C@_0BC@ENOOLCNF@not?5enough?5memory?$AA@ 0000000180027ee0     libcpmt:syserror.obj
 0002:00000ef8       ??_C@_0BP@LKNGHENJ@resource?5unavailable?5try?5again?$AA@ 0000000180027ef8     libcpmt:syserror.obj
 0002:00000f18       ??_C@_0BC@PPHBOELF@cross?5device?5link?$AA@ 0000000180027f18     libcpmt:syserror.obj
 0002:00000f30       ??_C@_0BD@MOLBPMEA@operation?5canceled?$AA@ 0000000180027f30     libcpmt:syserror.obj
 0002:00000f48       ??_C@_0BE@GHAFMPAH@too?5many?5files?5open?$AA@ 0000000180027f48     libcpmt:syserror.obj
 0002:00000f60       ??_C@_0BC@FNODOBAE@permission_denied?$AA@ 0000000180027f60     libcpmt:syserror.obj
 0002:00000f78       ??_C@_0P@LNDJPBFK@address_in_use?$AA@ 0000000180027f78     libcpmt:syserror.obj
 0002:00000f88       ??_C@_0BG@IPMGOJF@address_not_available?$AA@ 0000000180027f88     libcpmt:syserror.obj
 0002:00000fa0       ??_C@_0BN@LCBDHODA@address_family_not_supported?$AA@ 0000000180027fa0     libcpmt:syserror.obj
 0002:00000fc0       ??_C@_0BP@FOJJHMCC@connection_already_in_progress?$AA@ 0000000180027fc0     libcpmt:syserror.obj
 0002:00000fe0       ??_C@_0BE@DLHHIBGN@bad_file_descriptor?$AA@ 0000000180027fe0     libcpmt:syserror.obj
 0002:00000ff8       ??_C@_0BD@OJMJDIGI@connection_aborted?$AA@ 0000000180027ff8     libcpmt:syserror.obj
 0002:00001010       ??_C@_0BD@NGKCIFEP@connection_refused?$AA@ 0000000180028010     libcpmt:syserror.obj
 0002:00001028       ??_C@_0BB@JOANDNCK@connection_reset?$AA@ 0000000180028028     libcpmt:syserror.obj
 0002:00001040       ??_C@_0BN@JLJNLKLK@destination_address_required?$AA@ 0000000180028040     libcpmt:syserror.obj
 0002:00001060       ??_C@_0M@IJGMGFGP@bad_address?$AA@ 0000000180028060     libcpmt:syserror.obj
 0002:00001070       ??_C@_0BB@KKNHPPIN@host_unreachable?$AA@ 0000000180028070     libcpmt:syserror.obj
 0002:00001088       ??_C@_0BG@DJGBJIIK@operation_in_progress?$AA@ 0000000180028088     libcpmt:syserror.obj
 0002:000010a0       ??_C@_0M@EGEKIIMP@interrupted?$AA@ 00000001800280a0     libcpmt:syserror.obj
 0002:000010b0       ??_C@_0BB@FFIHMIPJ@invalid_argument?$AA@ 00000001800280b0     libcpmt:syserror.obj
 0002:000010c8       ??_C@_0BC@FIFLCHLO@already_connected?$AA@ 00000001800280c8     libcpmt:syserror.obj
 0002:000010e0       ??_C@_0BE@GJJJJDDA@too_many_files_open?$AA@ 00000001800280e0     libcpmt:syserror.obj
 0002:000010f8       ??_C@_0N@HPMLKHPL@message_size?$AA@ 00000001800280f8     libcpmt:syserror.obj
 0002:00001108       ??_C@_0BC@LEEIKBAL@filename_too_long?$AA@ 0000000180028108     libcpmt:syserror.obj
 0002:00001120       ??_C@_0N@FCPALPJK@network_down?$AA@ 0000000180028120     libcpmt:syserror.obj
 0002:00001130       ??_C@_0O@EHNDLHIG@network_reset?$AA@ 0000000180028130     libcpmt:syserror.obj
 0002:00001140       ??_C@_0BE@JFNJIDNF@network_unreachable?$AA@ 0000000180028140     libcpmt:syserror.obj
 0002:00001158       ??_C@_0BA@FDIJKJCL@no_buffer_space?$AA@ 0000000180028158     libcpmt:syserror.obj
 0002:00001168       ??_C@_0BD@JHIHCGKP@no_protocol_option?$AA@ 0000000180028168     libcpmt:syserror.obj
 0002:00001180       ??_C@_0O@GBCLHHD@not_connected?$AA@ 0000000180028180     libcpmt:syserror.obj
 0002:00001190       ??_C@_0N@IMHKKLEM@not_a_socket?$AA@ 0000000180028190     libcpmt:syserror.obj
 0002:000011a0       ??_C@_0BI@ICEIDKLJ@operation_not_supported?$AA@ 00000001800281a0     libcpmt:syserror.obj
 0002:000011b8       ??_C@_0BH@KAPBAIJF@protocol_not_supported?$AA@ 00000001800281b8     libcpmt:syserror.obj
 0002:000011d0       ??_C@_0BE@GAOJJFPC@wrong_protocol_type?$AA@ 00000001800281d0     libcpmt:syserror.obj
 0002:000011e8       ??_C@_09NCHNLHPG@timed_out?$AA@ 00000001800281e8     libcpmt:syserror.obj
 0002:000011f8       ??_C@_0BG@GDGHKFDH@operation_would_block?$AA@ 00000001800281f8     libcpmt:syserror.obj
 0002:00001210       ??_C@_0BN@LKKBCCDB@address?5family?5not?5supported?$AA@ 0000000180028210     libcpmt:syserror.obj
 0002:00001230       ??_C@_0P@LDMLAFHI@address?5in?5use?$AA@ 0000000180028230     libcpmt:syserror.obj
 0002:00001240       ??_C@_0BG@DHPCNBJB@address?5not?5available?$AA@ 0000000180028240     libcpmt:syserror.obj
 0002:00001258       ??_C@_0BC@DFIBIBIL@already?5connected?$AA@ 0000000180028258     libcpmt:syserror.obj
 0002:00001270       ??_C@_0BH@CAKOHOMI@argument?5list?5too?5long?$AA@ 0000000180028270     libcpmt:syserror.obj
 0002:00001288       ??_C@_0BH@CGIMPKIM@argument?5out?5of?5domain?$AA@ 0000000180028288     libcpmt:syserror.obj
 0002:000012a0       ??_C@_0M@KGHGGJGL@bad?5address?$AA@ 00000001800282a0     libcpmt:syserror.obj
 0002:000012b0       ??_C@_0BE@MPJPGCEO@bad?5file?5descriptor?$AA@ 00000001800282b0     libcpmt:syserror.obj
 0002:000012c8       ??_C@_0M@PMMIEFCP@bad?5message?$AA@ 00000001800282c8     libcpmt:syserror.obj
 0002:000012d8       ??_C@_0M@KPHOFDBE@broken?5pipe?$AA@ 00000001800282d8     libcpmt:syserror.obj
 0002:000012e8       ??_C@_0BD@MGNDDEGM@connection?5aborted?$AA@ 00000001800282e8     libcpmt:syserror.obj
 0002:00001300       ??_C@_0BP@KAIHPOGN@connection?5already?5in?5progress?$AA@ 0000000180028300     libcpmt:syserror.obj
 0002:00001320       ??_C@_0BD@PJLIIJEL@connection?5refused?$AA@ 0000000180028320     libcpmt:syserror.obj
 0002:00001338       ??_C@_0BB@IECNJNOI@connection?5reset?$AA@ 0000000180028338     libcpmt:syserror.obj
 0002:00001350       ??_C@_0BN@KDMIFEIP@destination?5address?5required?$AA@ 0000000180028350     libcpmt:syserror.obj
 0002:00001370       ??_C@_0BI@BNCLIGPB@executable?5format?5error?$AA@ 0000000180028370     libcpmt:syserror.obj
 0002:00001388       ??_C@_0P@DNAJLBJK@file?5too?5large?$AA@ 0000000180028388     libcpmt:syserror.obj
 0002:00001398       ??_C@_0BB@DHFDFGDM@host?5unreachable?$AA@ 0000000180028398     libcpmt:syserror.obj
 0002:000013b0       ??_C@_0BD@JPHBMONG@identifier?5removed?$AA@ 00000001800283b0     libcpmt:syserror.obj
 0002:000013c8       ??_C@_0BG@CDNPAGJK@illegal?5byte?5sequence?$AA@ 00000001800283c8     libcpmt:syserror.obj
 0002:000013e0       ??_C@_0CD@BNPLBMNA@inappropriate?5io?5control?5operati@ 00000001800283e0     libcpmt:syserror.obj
 0002:00001408       ??_C@_0N@OHAFKDEK@invalid?5seek?$AA@ 0000000180028408     libcpmt:syserror.obj
 0002:00001418       ??_C@_0P@FLLDBIDK@is?5a?5directory?$AA@ 0000000180028418     libcpmt:syserror.obj
 0002:00001428       ??_C@_0N@IFLPBIOP@message?5size?$AA@ 0000000180028428     libcpmt:syserror.obj
 0002:00001438       ??_C@_0N@KIIEAAIO@network?5down?$AA@ 0000000180028438     libcpmt:syserror.obj
 0002:00001448       ??_C@_0O@FNPDBHEE@network?5reset?$AA@ 0000000180028448     libcpmt:syserror.obj
 0002:00001458       ??_C@_0BE@IFNCKGE@network?5unreachable?$AA@ 0000000180028458     libcpmt:syserror.obj
 0002:00001470       ??_C@_0BA@PFFCAOFK@no?5buffer?5space?$AA@ 0000000180028470     libcpmt:syserror.obj
 0002:00001480       ??_C@_0BB@IEPBLJHK@no?5child?5process?$AA@ 0000000180028480     libcpmt:syserror.obj
 0002:00001498       ??_C@_07PLECNNKG@no?5link?$AA@ 0000000180028498     libcpmt:syserror.obj
 0002:000014a0       ??_C@_0BF@PBGGPKKE@no?5message?5available?$AA@ 00000001800284a0     libcpmt:syserror.obj
 0002:000014b8       ??_C@_0L@EDOLMPAK@no?5message?$AA@ 00000001800284b8     libcpmt:syserror.obj
 0002:000014c8       ??_C@_0BD@EAMBFIDF@no?5protocol?5option?$AA@ 00000001800284c8     libcpmt:syserror.obj
 0002:000014e0       ??_C@_0BE@MKFDAFMP@no?5stream?5resources?$AA@ 00000001800284e0     libcpmt:syserror.obj
 0002:000014f8       ??_C@_0BK@IMCPHCBI@no?5such?5device?5or?5address?$AA@ 00000001800284f8     libcpmt:syserror.obj
 0002:00001518       ??_C@_0BA@ENLPPKBN@no?5such?5process?$AA@ 0000000180028518     libcpmt:syserror.obj
 0002:00001528       ??_C@_0BA@DOCPFFJG@not?5a?5directory?$AA@ 0000000180028528     libcpmt:syserror.obj
 0002:00001538       ??_C@_0N@POEIPGGF@not?5a?5socket?$AA@ 0000000180028538     libcpmt:syserror.obj
 0002:00001548       ??_C@_0N@LGAPMMPI@not?5a?5stream?$AA@ 0000000180028548     libcpmt:syserror.obj
 0002:00001558       ??_C@_0O@GLMIBBEG@not?5connected?$AA@ 0000000180028558     libcpmt:syserror.obj
 0002:00001568       ??_C@_0O@NHEDABJP@not?5supported?$AA@ 0000000180028568     libcpmt:syserror.obj
 0002:00001578       ??_C@_0BG@KDKHOPCO@operation?5in?5progress?$AA@ 0000000180028578     libcpmt:syserror.obj
 0002:00001590       ??_C@_0BI@OHIEJAAB@operation?5not?5permitted?$AA@ 0000000180028590     libcpmt:syserror.obj
 0002:000015a8       ??_C@_0BI@LNEGIFLN@operation?5not?5supported?$AA@ 00000001800285a8     libcpmt:syserror.obj
 0002:000015c0       ??_C@_0BG@OEMDKMEE@operation?5would?5block?$AA@ 00000001800285c0     libcpmt:syserror.obj
 0002:000015d8       ??_C@_0L@BLPOFLNJ@owner?5dead?$AA@ 00000001800285d8     libcpmt:syserror.obj
 0002:000015e8       ??_C@_0P@FNPOCJBE@protocol?5error?$AA@ 00000001800285e8     libcpmt:syserror.obj
 0002:000015f8       ??_C@_0BH@JPPPLHJB@protocol?5not?5supported?$AA@ 00000001800285f8     libcpmt:syserror.obj
 0002:00001610       ??_C@_0BG@EICBIHDP@read?5only?5file?5system?$AA@ 0000000180028610     libcpmt:syserror.obj
 0002:00001628       ??_C@_0BO@BJBOMOEJ@resource?5deadlock?5would?5occur?$AA@ 0000000180028628     libcpmt:syserror.obj
 0002:00001648       ??_C@_0BE@GOIPJJHG@result?5out?5of?5range?$AA@ 0000000180028648     libcpmt:syserror.obj
 0002:00001660       ??_C@_0BG@MPLKFPAE@state?5not?5recoverable?$AA@ 0000000180028660     libcpmt:syserror.obj
 0002:00001678       ??_C@_0P@DIIFGFCG@stream?5timeout?$AA@ 0000000180028678     libcpmt:syserror.obj
 0002:00001688       ??_C@_0P@IPFDMIFL@text?5file?5busy?$AA@ 0000000180028688     libcpmt:syserror.obj
 0002:00001698       ??_C@_09KJPPMAOI@timed?5out?$AA@ 0000000180028698     libcpmt:syserror.obj
 0002:000016a8       ??_C@_0BO@HACHBEKI@too?5many?5files?5open?5in?5system?$AA@ 00000001800286a8     libcpmt:syserror.obj
 0002:000016c8       ??_C@_0P@HCOMKFCC@too?5many?5links?$AA@ 00000001800286c8     libcpmt:syserror.obj
 0002:000016d8       ??_C@_0BO@EFGOJEF@too?5many?5symbolic?5link?5levels?$AA@ 00000001800286d8     libcpmt:syserror.obj
 0002:000016f8       ??_C@_0BA@KGKGOOJA@value?5too?5large?$AA@ 00000001800286f8     libcpmt:syserror.obj
 0002:00001708       ??_C@_0BE@MIEJDDNH@wrong?5protocol?5type?$AA@ 0000000180028708     libcpmt:syserror.obj
 0002:00001778       ??_7_Facet_base@std@@6B@   0000000180028778     libcpmt:locale0.obj
 0002:00001798       ??_7_Locimp@locale@std@@6B@ 0000000180028798     libcpmt:locale0.obj
 0002:000017b0       ??_C@_01NBENCBCI@?$CK?$AA@ 00000001800287b0     libcpmt:locale0.obj
 0002:000017b4       ??_C@_01GFHCPBMG@C?$AA@    00000001800287b4     libcpmt:locale0.obj
 0002:000017b8       ?_BADOFF@std@@3_JB         00000001800287b8     libcpmt:ios.obj
 0002:000017c8       ??_7bad_alloc@std@@6B@     00000001800287c8     libcpmt:xthrow.obj
 0002:000017d8       ??_C@_0P@GHFPNOJB@bad?5allocation?$AA@ 00000001800287d8     libcpmt:xthrow.obj
 0002:000017f0       ??_7logic_error@std@@6B@   00000001800287f0     libcpmt:xthrow.obj
 0002:00001808       ??_7length_error@std@@6B@  0000000180028808     libcpmt:xthrow.obj
 0002:00001820       ??_7out_of_range@std@@6B@  0000000180028820     libcpmt:xthrow.obj
 0002:00001838       ??_7runtime_error@std@@6B@ 0000000180028838     libcpmt:xthrow.obj
 0002:00001918       ??_7?$ctype@D@std@@6B@     0000000180028918     libcpmt:cerr.obj
 0002:00001978       ??_7_System_error@std@@6B@ 0000000180028978     libcpmt:cerr.obj
 0002:00001990       ??_7system_error@std@@6B@  0000000180028990     libcpmt:cerr.obj
 0002:000019a8       ??_7failure@ios_base@std@@6B@ 00000001800289a8     libcpmt:cerr.obj
 0002:000019c0       ??_7ios_base@std@@6B@      00000001800289c0     libcpmt:cerr.obj
 0002:000019d0       ??_7?$basic_ios@DU?$char_traits@D@std@@@std@@6B@ 00000001800289d0     libcpmt:cerr.obj
 0002:000019e0       ??_7?$basic_streambuf@DU?$char_traits@D@std@@@std@@6B@ 00000001800289e0     libcpmt:cerr.obj
 0002:00001a60       ??_7?$basic_ostream@DU?$char_traits@D@std@@@std@@6B@ 0000000180028a60     libcpmt:cerr.obj
 0002:00001a70       ??_7?$basic_filebuf@DU?$char_traits@D@std@@@std@@6B@ 0000000180028a70     libcpmt:cerr.obj
 0002:00001af0       ??_7?$codecvt@DDH@std@@6B@ 0000000180028af0     libcpmt:cerr.obj
 0002:00001b40       ??_C@_08EPJLHIJG@bad?5cast?$AA@ 0000000180028b40     libcpmt:cerr.obj
 0002:00001b58       ??_7?$num_put@DV?$ostreambuf_iterator@DU?$char_traits@D@std@@@std@@@std@@6B@ 0000000180028b58     libcpmt:locale.obj
 0002:00001bb8       ??_7?$numpunct@D@std@@6B@  0000000180028bb8     libcpmt:locale.obj
 0002:00001bf8       ??_C@_11LOCGONAA@?$AA?$AA@ 0000000180028bf8     libcpmt:wlocale.obj
 0002:00001bfc       ??_C@_01JOAMLHOP@?9?$AA@   0000000180028bfc     libcpmt:wlocale.obj
 0002:00001ce0       __real@0000000000000000    0000000180028ce0     libcpmt:xprec.obj
 0002:00001d88       ??_C@_17LGKOMLJ@?$AA?4?$AA?4?$AA?4?$AA?$AA@ 0000000180028d88     LIBCMT:wassert.obj
 0002:00001d90       ??_C@_13LBAGMAIH@?$AA?6?$AA?$AA@ 0000000180028d90     LIBCMT:wassert.obj
 0002:00001d94       ??_C@_15IABLJNFO@?$AA?6?$AA?6?$AA?$AA@ 0000000180028d94     LIBCMT:wassert.obj
 0002:00001da0       ??_C@_1CE@OJBNHDMO@?$AAA?$AAs?$AAs?$AAe?$AAr?$AAt?$AAi?$AAo?$AAn?$AA?5?$AAf?$AAa?$AAi?$AAl?$AAe?$AAd?$AA?$CB?$AA?$AA@ 0000000180028da0     LIBCMT:wassert.obj
 0002:00001dc8       ??_C@_1BE@PHKBBGE@?$AAP?$AAr?$AAo?$AAg?$AAr?$AAa?$AAm?$AA?3?$AA?5?$AA?$AA@ 0000000180028dc8     LIBCMT:wassert.obj
 0002:00001de0       ??_C@_1CO@EAEJAADC@?$AA?$DM?$AAp?$AAr?$AAo?$AAg?$AAr?$AAa?$AAm?$AA?5?$AAn?$AAa?$AAm?$AAe?$AA?5?$AAu?$AAn?$AAk?$AAn?$AAo?$AAw?$AAn?$AA?$DO?$AA?$AA@ 0000000180028de0     LIBCMT:wassert.obj
 0002:00001e10       ??_C@_1O@HEMHKNDC@?$AAF?$AAi?$AAl?$AAe?$AA?3?$AA?5?$AA?$AA@ 0000000180028e10     LIBCMT:wassert.obj
 0002:00001e20       ??_C@_1O@KCAFKHJE@?$AAL?$AAi?$AAn?$AAe?$AA?3?$AA?5?$AA?$AA@ 0000000180028e20     LIBCMT:wassert.obj
 0002:00001e30       ??_C@_1BK@PEDCIPMA@?$AAE?$AAx?$AAp?$AAr?$AAe?$AAs?$AAs?$AAi?$AAo?$AAn?$AA?3?$AA?5?$AA?$AA@ 0000000180028e30     LIBCMT:wassert.obj
 0002:00001e50       ??_C@_1OA@EGMLFBHJ@?$AAF?$AAo?$AAr?$AA?5?$AAi?$AAn?$AAf?$AAo?$AAr?$AAm?$AAa?$AAt?$AAi?$AAo?$AAn?$AA?5?$AAo?$AAn?$AA?5?$AAh?$AAo?$AAw?$AA?5?$AAy?$AAo?$AAu?$AAr?$AA?5?$AAp?$AAr?$AAo?$AAg@ 0000000180028e50     LIBCMT:wassert.obj
 0002:00001f30       ??_C@_1HK@POCJMFGK@?$AA?$CI?$AAP?$AAr?$AAe?$AAs?$AAs?$AA?5?$AAR?$AAe?$AAt?$AAr?$AAy?$AA?5?$AAt?$AAo?$AA?5?$AAd?$AAe?$AAb?$AAu?$AAg?$AA?5?$AAt?$AAh?$AAe?$AA?5?$AAa?$AAp?$AAp?$AAl?$AAi?$AAc@ 0000000180028f30     LIBCMT:wassert.obj
 0002:00001fb0       ??_C@_1EK@MBDPDCGA@?$AAM?$AAi?$AAc?$AAr?$AAo?$AAs?$AAo?$AAf?$AAt?$AA?5?$AAV?$AAi?$AAs?$AAu?$AAa?$AAl?$AA?5?$AAC?$AA?$CL?$AA?$CL?$AA?5?$AAR?$AAu?$AAn?$AAt?$AAi?$AAm?$AAe?$AA?5?$AAL?$AAi?$AAb@ 0000000180028fb0     LIBCMT:wassert.obj
 0002:00001ffc       ??_C@_06MEIMCGCF@_hypot?$AA@ 0000000180028ffc     LIBCMT:hypot.obj
 0002:00002010       ??_7type_info@@6B@         0000000180029010     LIBCMT:typinfo.obj
 0002:00002018       _pRawDllMain               0000000180029018     LIBCMT:dllcrt0.obj
 0002:00002018       _pDefaultRawDllMain        0000000180029018     LIBCMT:dllcrt0.obj
 0002:000020f8       _FPinit                    00000001800290f8     LIBCMT:fpinit.obj
 0002:00002108       ??_7exception@std@@6B@     0000000180029108     LIBCMT:stdexcpt.obj
 0002:00002118       ??_C@_0BC@EOODALEL@Unknown?5exception?$AA@ 0000000180029118     LIBCMT:stdexcpt.obj
 0002:00002138       ??_7bad_cast@std@@6B@      0000000180029138     LIBCMT:stdexcpt.obj
 0002:00002150       __newctype                 0000000180029150     LIBCMT:ctype.obj
 0002:00002450       _wctype                    0000000180029450     LIBCMT:ctype.obj
 0002:00002660       __newclmap                 0000000180029660     LIBCMT:ctype.obj
 0002:000027e0       __newcumap                 00000001800297e0     LIBCMT:ctype.obj
 0002:00002960       ??_C@_1BK@MGMFAEKH@?$AAk?$AAe?$AAr?$AAn?$AAe?$AAl?$AA3?$AA2?$AA?4?$AAd?$AAl?$AAl?$AA?$AA@ 0000000180029960     LIBCMT:winapisupp.obj
 0002:00002980       ??_C@_08KNHFBNJ@FlsAlloc?$AA@ 0000000180029980     LIBCMT:winapisupp.obj
 0002:00002990       ??_C@_07PEJMOBNF@FlsFree?$AA@ 0000000180029990     LIBCMT:winapisupp.obj
 0002:00002998       ??_C@_0M@GDNOONDI@FlsGetValue?$AA@ 0000000180029998     LIBCMT:winapisupp.obj
 0002:000029a8       ??_C@_0M@JCPCPOEF@FlsSetValue?$AA@ 00000001800299a8     LIBCMT:winapisupp.obj
 0002:000029b8       ??_C@_0BM@HCFOFFN@InitializeCriticalSectionEx?$AA@ 00000001800299b8     LIBCMT:winapisupp.obj
 0002:000029d8       ??_C@_0P@DLHPPCNH@CreateEventExW?$AA@ 00000001800299d8     LIBCMT:winapisupp.obj
 0002:000029e8       ??_C@_0BD@KIEEOEEH@CreateSemaphoreExW?$AA@ 00000001800299e8     LIBCMT:winapisupp.obj
 0002:00002a00       ??_C@_0BI@BKLFFAPO@SetThreadStackGuarantee?$AA@ 0000000180029a00     LIBCMT:winapisupp.obj
 0002:00002a18       ??_C@_0BG@OGFAJCKC@CreateThreadpoolTimer?$AA@ 0000000180029a18     LIBCMT:winapisupp.obj
 0002:00002a30       ??_C@_0BD@LPLEMMDI@SetThreadpoolTimer?$AA@ 0000000180029a30     LIBCMT:winapisupp.obj
 0002:00002a48       ??_C@_0CA@FMNJENH@WaitForThreadpoolTimerCallbacks?$AA@ 0000000180029a48     LIBCMT:winapisupp.obj
 0002:00002a68       ??_C@_0BF@DCFCCNOC@CloseThreadpoolTimer?$AA@ 0000000180029a68     LIBCMT:winapisupp.obj
 0002:00002a80       ??_C@_0BF@FLABGKKM@CreateThreadpoolWait?$AA@ 0000000180029a80     LIBCMT:winapisupp.obj
 0002:00002a98       ??_C@_0BC@MGCOHNA@SetThreadpoolWait?$AA@ 0000000180029a98     LIBCMT:winapisupp.obj
 0002:00002ab0       ??_C@_0BE@OCIOMIMP@CloseThreadpoolWait?$AA@ 0000000180029ab0     LIBCMT:winapisupp.obj
 0002:00002ac8       ??_C@_0BJ@LKGHFHBO@FlushProcessWriteBuffers?$AA@ 0000000180029ac8     LIBCMT:winapisupp.obj
 0002:00002ae8       ??_C@_0BP@KALKKPMO@FreeLibraryWhenCallbackReturns?$AA@ 0000000180029ae8     LIBCMT:winapisupp.obj
 0002:00002b08       ??_C@_0BK@DFNBACLA@GetCurrentProcessorNumber?$AA@ 0000000180029b08     LIBCMT:winapisupp.obj
 0002:00002b28       ??_C@_0BP@KHGALBC@GetLogicalProcessorInformation?$AA@ 0000000180029b28     LIBCMT:winapisupp.obj
 0002:00002b48       ??_C@_0BE@FKKLLFLM@CreateSymbolicLinkW?$AA@ 0000000180029b48     LIBCMT:winapisupp.obj
 0002:00002b60       ??_C@_0BJ@OHNKDLIJ@SetDefaultDllDirectories?$AA@ 0000000180029b60     LIBCMT:winapisupp.obj
 0002:00002b80       ??_C@_0BE@LJANKFHF@EnumSystemLocalesEx?$AA@ 0000000180029b80     LIBCMT:winapisupp.obj
 0002:00002b98       ??_C@_0BA@IHGNDAEB@CompareStringEx?$AA@ 0000000180029b98     LIBCMT:winapisupp.obj
 0002:00002ba8       ??_C@_0BA@EPCJIIPD@GetDateFormatEx?$AA@ 0000000180029ba8     LIBCMT:winapisupp.obj
 0002:00002bb8       ??_C@_0BA@ONOKGCMP@GetLocaleInfoEx?$AA@ 0000000180029bb8     LIBCMT:winapisupp.obj
 0002:00002bc8       ??_C@_0BA@CIJJKCJJ@GetTimeFormatEx?$AA@ 0000000180029bc8     LIBCMT:winapisupp.obj
 0002:00002bd8       ??_C@_0BJ@PBCCBIPI@GetUserDefaultLocaleName?$AA@ 0000000180029bd8     LIBCMT:winapisupp.obj
 0002:00002bf8       ??_C@_0BC@CELBKLLA@IsValidLocaleName?$AA@ 0000000180029bf8     LIBCMT:winapisupp.obj
 0002:00002c10       ??_C@_0O@KKBNKAPF@LCMapStringEx?$AA@ 0000000180029c10     LIBCMT:winapisupp.obj
 0002:00002c20       ??_C@_0BE@JOGNEJCI@GetCurrentPackageId?$AA@ 0000000180029c20     LIBCMT:winapisupp.obj
 0002:00002c38       ??_C@_0P@CDHHOHKP@GetTickCount64?$AA@ 0000000180029c38     LIBCMT:winapisupp.obj
 0002:00002c48       ??_C@_0BO@KPCLFDJJ@GetFileInformationByHandleExW?$AA@ 0000000180029c48     LIBCMT:winapisupp.obj
 0002:00002c68       ??_C@_0BM@MHIDLABK@SetFileInformationByHandleW?$AA@ 0000000180029c68     LIBCMT:winapisupp.obj
 0002:00002c90       LcidToLocaleNameTable      0000000180029c90     LIBCMT:winapinls.obj
 0002:00003ad0       LocaleNameToIndexTable     000000018002aad0     LIBCMT:winapinls.obj
 0002:00004910       ??_C@_15EMKDOKLE@?$AAa?$AAr?$AA?$AA@ 000000018002b910     LIBCMT:winapinls.obj
 0002:00004918       ??_C@_15KNPADPLH@?$AAb?$AAg?$AA?$AA@ 000000018002b918     LIBCMT:winapinls.obj
 0002:00004920       ??_C@_15EDMHLDMO@?$AAc?$AAa?$AA?$AA@ 000000018002b920     LIBCMT:winapinls.obj
 0002:00004928       ??_C@_1O@BPEAJADD@?$AAz?$AAh?$AA?9?$AAC?$AAH?$AAS?$AA?$AA@ 000000018002b928     LIBCMT:winapinls.obj
 0002:00004938       ??_C@_15LJNHCMNK@?$AAc?$AAs?$AA?$AA@ 000000018002b938     LIBCMT:winapinls.obj
 0002:00004940       ??_C@_15FOMCIDHG@?$AAd?$AAa?$AA?$AA@ 000000018002b940     LIBCMT:winapinls.obj
 0002:00004948       ??_C@_15NBKABECB@?$AAd?$AAe?$AA?$AA@ 000000018002b948     LIBCMT:winapinls.obj
 0002:00004950       ??_C@_15GHPEIIAO@?$AAe?$AAl?$AA?$AA@ 000000018002b950     LIBCMT:winapinls.obj
 0002:00004958       ??_C@_15MNPNEAIF@?$AAe?$AAn?$AA?$AA@ 000000018002b958     LIBCMT:winapinls.obj
 0002:00004960       ??_C@_15GPIOMPMH@?$AAe?$AAs?$AA?$AA@ 000000018002b960     LIBCMT:winapinls.obj
 0002:00004968       ??_C@_15NGLOAKJC@?$AAf?$AAi?$AA?$AA@ 000000018002b968     LIBCMT:winapinls.obj
 0002:00004970       ??_C@_15FBKGNKAM@?$AAf?$AAr?$AA?$AA@ 000000018002b970     LIBCMT:winapinls.obj
 0002:00004978       ??_C@_15KGGCNEFK@?$AAh?$AAe?$AA?$AA@ 000000018002b978     LIBCMT:winapinls.obj
 0002:00004980       ??_C@_15PGHLIDMF@?$AAh?$AAu?$AA?$AA@ 000000018002b980     LIBCMT:winapinls.obj
 0002:00004988       ??_C@_15BIEMAPLM@?$AAi?$AAs?$AA?$AA@ 000000018002b988     LIBCMT:winapinls.obj
 0002:00004990       ??_C@_15IFJLDHAF@?$AAi?$AAt?$AA?$AA@ 000000018002b990     LIBCMT:winapinls.obj
 0002:00004998       ??_C@_15GEMIOCAG@?$AAj?$AAa?$AA?$AA@ 000000018002b998     LIBCMT:winapinls.obj
 0002:000049a0       ??_C@_15EPELEGJA@?$AAk?$AAo?$AA?$AA@ 000000018002b9a0     LIBCMT:winapinls.obj
 0002:000049a8       ??_C@_15NDDHIMN@?$AAn?$AAl?$AA?$AA@ 000000018002b9a8     LIBCMT:winapinls.obj
 0002:000049b0       ??_C@_15BPIGNHCD@?$AAn?$AAo?$AA?$AA@ 000000018002b9b0     LIBCMT:winapinls.obj
 0002:000049b8       ??_C@_15DEOPBLCG@?$AAp?$AAl?$AA?$AA@ 000000018002b9b8     LIBCMT:winapinls.obj
 0002:000049c0       ??_C@_15KBECGEFG@?$AAp?$AAt?$AA?$AA@ 000000018002b9c0     LIBCMT:winapinls.obj
 0002:000049c8       ??_C@_15GLJCBFMD@?$AAr?$AAo?$AA?$AA@ 000000018002b9c8     LIBCMT:winapinls.obj
 0002:000049d0       ??_C@_15FEDGKCDI@?$AAr?$AAu?$AA?$AA@ 000000018002b9d0     LIBCMT:winapinls.obj
 0002:000049d8       ??_C@_15GLKMLLHM@?$AAh?$AAr?$AA?$AA@ 000000018002b9d8     LIBCMT:winapinls.obj
 0002:000049e0       ??_C@_15CPKMFBDB@?$AAs?$AAk?$AA?$AA@ 000000018002b9e0     LIBCMT:winapinls.obj
 0002:000049e8       ??_C@_15BAAIOGMK@?$AAs?$AAq?$AA?$AA@ 000000018002b9e8     LIBCMT:winapinls.obj
 0002:000049f0       ??_C@_15INNPNOHD@?$AAs?$AAv?$AA?$AA@ 000000018002b9f0     LIBCMT:winapinls.obj
 0002:000049f8       ??_C@_15CABMMOGH@?$AAt?$AAh?$AA?$AA@ 000000018002b9f8     LIBCMT:winapinls.obj
 0002:00004a00       ??_C@_15BPLIHJJM@?$AAt?$AAr?$AA?$AA@ 000000018002ba00     LIBCMT:winapinls.obj
 0002:00004a08       ??_C@_15NEOEKKDJ@?$AAu?$AAr?$AA?$AA@ 000000018002ba08     LIBCMT:winapinls.obj
 0002:00004a10       ??_C@_15NFICGAJK@?$AAi?$AAd?$AA?$AA@ 000000018002ba10     LIBCMT:winapinls.obj
 0002:00004a18       ??_C@_15PJPFLCCM@?$AAu?$AAk?$AA?$AA@ 000000018002ba18     LIBCMT:winapinls.obj
 0002:00004a20       ??_C@_15HPJPHDM@?$AAb?$AAe?$AA?$AA@ 000000018002ba20     LIBCMT:winapinls.obj
 0002:00004a28       ??_C@_15LCHLGJII@?$AAs?$AAl?$AA?$AA@ 000000018002ba28     LIBCMT:winapinls.obj
 0002:00004a30       ??_C@_15PCFJPHHO@?$AAe?$AAt?$AA?$AA@ 000000018002ba30     LIBCMT:winapinls.obj
 0002:00004a38       ??_C@_15HPFPGODN@?$AAl?$AAv?$AA?$AA@ 000000018002ba38     LIBCMT:winapinls.obj
 0002:00004a40       ??_C@_15NFFGKGLG@?$AAl?$AAt?$AA?$AA@ 000000018002ba40     LIBCMT:winapinls.obj
 0002:00004a48       ??_C@_15BDAKCCHN@?$AAf?$AAa?$AA?$AA@ 000000018002ba48     LIBCMT:winapinls.obj
 0002:00004a50       ??_C@_15NFGIAIAJ@?$AAv?$AAi?$AA?$AA@ 000000018002ba50     LIBCMT:winapinls.obj
 0002:00004a58       ??_C@_15LMKNDMHN@?$AAh?$AAy?$AA?$AA@ 000000018002ba58     LIBCMT:winapinls.obj
 0002:00004a60       ??_C@_15IJBHMCFL@?$AAa?$AAz?$AA?$AA@ 000000018002ba60     LIBCMT:winapinls.obj
 0002:00004a68       ??_C@_15EKOFJABL@?$AAe?$AAu?$AA?$AA@ 000000018002ba68     LIBCMT:winapinls.obj
 0002:00004a70       ??_C@_15BGHADCNK@?$AAm?$AAk?$AA?$AA@ 000000018002ba70     LIBCMT:winapinls.obj
 0002:00004a78       ??_C@_15JDNICKHM@?$AAa?$AAf?$AA?$AA@ 000000018002ba78     LIBCMT:winapinls.obj
 0002:00004a80       ??_C@_15KPJEDBKD@?$AAk?$AAa?$AA?$AA@ 000000018002ba80     LIBCMT:winapinls.obj
 0002:00004a88       ??_C@_15PDNFFFEO@?$AAf?$AAo?$AA?$AA@ 000000018002ba88     LIBCMT:winapinls.obj
 0002:00004a90       ??_C@_15OMLEGLOC@?$AAh?$AAi?$AA?$AA@ 000000018002ba90     LIBCMT:winapinls.obj
 0002:00004a98       ??_C@_15IDNNENKK@?$AAm?$AAs?$AA?$AA@ 000000018002ba98     LIBCMT:winapinls.obj
 0002:00004aa0       ??_C@_15MACJNBMH@?$AAk?$AAk?$AA?$AA@ 000000018002baa0     LIBCMT:winapinls.obj
 0002:00004aa8       ??_C@_15DKDJEOND@?$AAk?$AAy?$AA?$AA@ 000000018002baa8     LIBCMT:winapinls.obj
 0002:00004ab0       ??_C@_15DFGDLJBG@?$AAs?$AAw?$AA?$AA@ 000000018002bab0     LIBCMT:winapinls.obj
 0002:00004ab8       ??_C@_15BBFAICNG@?$AAu?$AAz?$AA?$AA@ 000000018002bab8     LIBCMT:winapinls.obj
 0002:00004ac0       ??_C@_15DKNDCGEA@?$AAt?$AAt?$AA?$AA@ 000000018002bac0     LIBCMT:winapinls.obj
 0002:00004ac8       ??_C@_15MGIFMDPL@?$AAp?$AAa?$AA?$AA@ 000000018002bac8     LIBCMT:winapinls.obj
 0002:00004ad0       ??_C@_15HCNDBBA@?$AAg?$AAu?$AA?$AA@ 000000018002bad0     LIBCMT:winapinls.obj
 0002:00004ad8       ??_C@_15FNBEIBON@?$AAt?$AAa?$AA?$AA@ 000000018002bad8     LIBCMT:winapinls.obj
 0002:00004ae0       ??_C@_15NCHGBGLK@?$AAt?$AAe?$AA?$AA@ 000000018002bae0     LIBCMT:winapinls.obj
 0002:00004ae8       ??_C@_15PHPHCBPF@?$AAk?$AAn?$AA?$AA@ 000000018002bae8     LIBCMT:winapinls.obj
 0002:00004af0       ??_C@_15DLGBCKMP@?$AAm?$AAr?$AA?$AA@ 000000018002baf0     LIBCMT:winapinls.obj
 0002:00004af8       ??_C@_15EABBLBFF@?$AAs?$AAa?$AA?$AA@ 000000018002baf8     LIBCMT:winapinls.obj
 0002:00004b00       ??_C@_15CBKOMCOI@?$AAm?$AAn?$AA?$AA@ 000000018002bb00     LIBCMT:winapinls.obj
 0002:00004b08       ??_C@_15CKDMCJAF@?$AAg?$AAl?$AA?$AA@ 000000018002bb08     LIBCMT:winapinls.obj
 0002:00004b10       ??_C@_17CNJFBPG@?$AAk?$AAo?$AAk?$AA?$AA@ 000000018002bb10     LIBCMT:winapinls.obj
 0002:00004b18       ??_C@_17FFBJICPL@?$AAs?$AAy?$AAr?$AA?$AA@ 000000018002bb18     LIBCMT:winapinls.obj
 0002:00004b20       ??_C@_17KPNDCPAF@?$AAd?$AAi?$AAv?$AA?$AA@ 000000018002bb20     LIBCMT:winapinls.obj
 0002:00004b28       ??_C@_1M@OKAHONE@?$AAa?$AAr?$AA?9?$AAS?$AAA?$AA?$AA@ 000000018002bb28     LIBCMT:winapinls.obj
 0002:00004b38       ??_C@_1M@FFFIGIGK@?$AAb?$AAg?$AA?9?$AAB?$AAG?$AA?$AA@ 000000018002bb38     LIBCMT:winapinls.obj
 0002:00004b48       ??_C@_1M@BJNKEDC@?$AAc?$AAa?$AA?9?$AAE?$AAS?$AA?$AA@ 000000018002bb48     LIBCMT:winapinls.obj
 0002:00004b58       ??_C@_1M@CLNBBOPM@?$AAz?$AAh?$AA?9?$AAT?$AAW?$AA?$AA@ 000000018002bb58     LIBCMT:winapinls.obj
 0002:00004b68       ??_C@_1M@IJJHFJHA@?$AAc?$AAs?$AA?9?$AAC?$AAZ?$AA?$AA@ 000000018002bb68     LIBCMT:winapinls.obj
 0002:00004b78       ??_C@_1M@CLPEOBGI@?$AAd?$AAa?$AA?9?$AAD?$AAK?$AA?$AA@ 000000018002bb78     LIBCMT:winapinls.obj
 0002:00004b88       ??_C@_1M@MCMADGCB@?$AAd?$AAe?$AA?9?$AAD?$AAE?$AA?$AA@ 000000018002bb88     LIBCMT:winapinls.obj
 0002:00004b98       ??_C@_1M@OOCKEMAM@?$AAe?$AAl?$AA?9?$AAG?$AAR?$AA?$AA@ 000000018002bb98     LIBCMT:winapinls.obj
 0002:00004ba8       ??_C@_1M@BMHNFIME@?$AAe?$AAn?$AA?9?$AAU?$AAS?$AA?$AA@ 000000018002bba8     LIBCMT:winapinls.obj
 0002:00004bb8       ??_C@_1M@DDNJFGID@?$AAf?$AAi?$AA?9?$AAF?$AAI?$AA?$AA@ 000000018002bbb8     LIBCMT:winapinls.obj
 0002:00004bc8       ??_C@_1M@GLIPPMAC@?$AAf?$AAr?$AA?9?$AAF?$AAR?$AA?$AA@ 000000018002bbc8     LIBCMT:winapinls.obj
 0002:00004bd8       ??_C@_1M@GFMCHPE@?$AAh?$AAe?$AA?9?$AAI?$AAL?$AA?$AA@ 000000018002bbd8     LIBCMT:winapinls.obj
 0002:00004be8       ??_C@_1M@MHLPGNKM@?$AAh?$AAu?$AA?9?$AAH?$AAU?$AA?$AA@ 000000018002bbe8     LIBCMT:winapinls.obj
 0002:00004bf8       ??_C@_1M@LPDDNNPN@?$AAi?$AAs?$AA?9?$AAI?$AAS?$AA?$AA@ 000000018002bbf8     LIBCMT:winapinls.obj
 0002:00004c08       ??_C@_1M@MADIPODN@?$AAi?$AAt?$AA?9?$AAI?$AAT?$AA?$AA@ 000000018002bc08     LIBCMT:winapinls.obj
 0002:00004c18       ??_C@_1M@HPNHIDJI@?$AAj?$AAa?$AA?9?$AAJ?$AAP?$AA?$AA@ 000000018002bc18     LIBCMT:winapinls.obj
 0002:00004c28       ??_C@_1M@JLOOOEGK@?$AAk?$AAo?$AA?9?$AAK?$AAR?$AA?$AA@ 000000018002bc28     LIBCMT:winapinls.obj
 0002:00004c38       ??_C@_1M@IHBJJGG@?$AAn?$AAl?$AA?9?$AAN?$AAL?$AA?$AA@ 000000018002bc38     LIBCMT:winapinls.obj
 0002:00004c48       ??_C@_1M@EANAGDL@?$AAn?$AAb?$AA?9?$AAN?$AAO?$AA?$AA@ 000000018002bc48     LIBCMT:winapinls.obj
 0002:00004c58       ??_C@_1M@NEIEMEGP@?$AAp?$AAl?$AA?9?$AAP?$AAL?$AA?$AA@ 000000018002bc58     LIBCMT:winapinls.obj
 0002:00004c68       ??_C@_1M@BOCFIGEP@?$AAp?$AAt?$AA?9?$AAB?$AAR?$AA?$AA@ 000000018002bc68     LIBCMT:winapinls.obj
 0002:00004c78       ??_C@_1M@IMPFOPBG@?$AAr?$AAo?$AA?9?$AAR?$AAO?$AA?$AA@ 000000018002bc78     LIBCMT:winapinls.obj
 0002:00004c88       ??_C@_1M@IDNNEJMM@?$AAr?$AAu?$AA?9?$AAR?$AAU?$AA?$AA@ 000000018002bc88     LIBCMT:winapinls.obj
 0002:00004c98       ??_C@_1M@LILEEOGM@?$AAh?$AAr?$AA?9?$AAH?$AAR?$AA?$AA@ 000000018002bc98     LIBCMT:winapinls.obj
 0002:00004ca8       ??_C@_1M@FKIFEHPB@?$AAs?$AAk?$AA?9?$AAS?$AAK?$AA?$AA@ 000000018002bca8     LIBCMT:winapinls.obj
 0002:00004cb8       ??_C@_1M@LJMAMNPJ@?$AAs?$AAq?$AA?9?$AAA?$AAL?$AA?$AA@ 000000018002bcb8     LIBCMT:winapinls.obj
 0002:00004cc8       ??_C@_1M@GIAKDKJK@?$AAs?$AAv?$AA?9?$AAS?$AAE?$AA?$AA@ 000000018002bcc8     LIBCMT:winapinls.obj
 0002:00004cd8       ??_C@_1M@MKJKIKCL@?$AAt?$AAh?$AA?9?$AAT?$AAH?$AA?$AA@ 000000018002bcd8     LIBCMT:winapinls.obj
 0002:00004ce8       ??_C@_1M@MFLCCMPB@?$AAt?$AAr?$AA?9?$AAT?$AAR?$AA?$AA@ 000000018002bce8     LIBCMT:winapinls.obj
 0002:00004cf8       ??_C@_1M@OIJHDKJN@?$AAu?$AAr?$AA?9?$AAP?$AAK?$AA?$AA@ 000000018002bcf8     LIBCMT:winapinls.obj
 0002:00004d08       ??_C@_1M@LHIPCIEK@?$AAi?$AAd?$AA?9?$AAI?$AAD?$AA?$AA@ 000000018002bd08     LIBCMT:winapinls.obj
 0002:00004d18       ??_C@_1M@MFMOBGI@?$AAu?$AAk?$AA?9?$AAU?$AAA?$AA?$AA@ 000000018002bd18     LIBCMT:winapinls.obj
 0002:00004d28       ??_C@_1M@OBGLJIPL@?$AAb?$AAe?$AA?9?$AAB?$AAY?$AA?$AA@ 000000018002bd28     LIBCMT:winapinls.obj
 0002:00004d38       ??_C@_1M@BCFAJEAD@?$AAs?$AAl?$AA?9?$AAS?$AAI?$AA?$AA@ 000000018002bd38     LIBCMT:winapinls.obj
 0002:00004d48       ??_C@_1M@FKFFEDDN@?$AAe?$AAt?$AA?9?$AAE?$AAE?$AA?$AA@ 000000018002bd48     LIBCMT:winapinls.obj
 0002:00004d58       ??_C@_1M@KGKKAACI@?$AAl?$AAv?$AA?9?$AAL?$AAV?$AA?$AA@ 000000018002bd58     LIBCMT:winapinls.obj
 0002:00004d68       ??_C@_1M@IFGBIJO@?$AAl?$AAt?$AA?9?$AAL?$AAT?$AA?$AA@ 000000018002bd68     LIBCMT:winapinls.obj
 0002:00004d78       ??_C@_1M@FGEAHEDM@?$AAf?$AAa?$AA?9?$AAI?$AAR?$AA?$AA@ 000000018002bd78     LIBCMT:winapinls.obj
 0002:00004d88       ??_C@_1M@KBMAIBFN@?$AAv?$AAi?$AA?9?$AAV?$AAN?$AA?$AA@ 000000018002bd88     LIBCMT:winapinls.obj
 0002:00004d98       ??_C@_1M@GPCBKDJK@?$AAh?$AAy?$AA?9?$AAA?$AAM?$AA?$AA@ 000000018002bd98     LIBCMT:winapinls.obj
 0002:00004da8       ??_C@_1BG@BECMDDJB@?$AAa?$AAz?$AA?9?$AAA?$AAZ?$AA?9?$AAL?$AAa?$AAt?$AAn?$AA?$AA@ 000000018002bda8     LIBCMT:winapinls.obj
 0002:00004dc0       ??_C@_1M@MAOFCAEA@?$AAe?$AAu?$AA?9?$AAE?$AAS?$AA?$AA@ 000000018002bdc0     LIBCMT:winapinls.obj
 0002:00004dd0       ??_C@_1M@IGHABKPI@?$AAm?$AAk?$AA?9?$AAM?$AAK?$AA?$AA@ 000000018002bdd0     LIBCMT:winapinls.obj
 0002:00004de0       ??_C@_1M@IAIGNEJG@?$AAt?$AAn?$AA?9?$AAZ?$AAA?$AA?$AA@ 000000018002bde0     LIBCMT:winapinls.obj
 0002:00004df0       ??_C@_1M@IIJCOJFA@?$AAx?$AAh?$AA?9?$AAZ?$AAA?$AA?$AA@ 000000018002bdf0     LIBCMT:winapinls.obj
 0002:00004e00       ??_C@_1M@LGPJHNJH@?$AAz?$AAu?$AA?9?$AAZ?$AAA?$AA?$AA@ 000000018002be00     LIBCMT:winapinls.obj
 0002:00004e10       ??_C@_1M@HOKAOIO@?$AAa?$AAf?$AA?9?$AAZ?$AAA?$AA?$AA@ 000000018002be10     LIBCMT:winapinls.obj
 0002:00004e20       ??_C@_1M@DPCLHLIE@?$AAk?$AAa?$AA?9?$AAG?$AAE?$AA?$AA@ 000000018002be20     LIBCMT:winapinls.obj
 0002:00004e30       ??_C@_1M@BLKMHJBI@?$AAf?$AAo?$AA?9?$AAF?$AAO?$AA?$AA@ 000000018002be30     LIBCMT:winapinls.obj
 0002:00004e40       ??_C@_1M@LGGJAPPB@?$AAh?$AAi?$AA?9?$AAI?$AAN?$AA?$AA@ 000000018002be40     LIBCMT:winapinls.obj
 0002:00004e50       ??_C@_1M@FIKPIHFE@?$AAm?$AAt?$AA?9?$AAM?$AAT?$AA?$AA@ 000000018002be50     LIBCMT:winapinls.obj
 0002:00004e60       ??_C@_1M@HEGGPBFA@?$AAs?$AAe?$AA?9?$AAN?$AAO?$AA?$AA@ 000000018002be60     LIBCMT:winapinls.obj
 0002:00004e70       ??_C@_1M@EIBJEEPA@?$AAm?$AAs?$AA?9?$AAM?$AAY?$AA?$AA@ 000000018002be70     LIBCMT:winapinls.obj
 0002:00004e80       ??_C@_1M@FHLBGMPP@?$AAk?$AAk?$AA?9?$AAK?$AAZ?$AA?$AA@ 000000018002be80     LIBCMT:winapinls.obj
 0002:00004e90       ??_C@_1M@NGJJLCGI@?$AAk?$AAy?$AA?9?$AAK?$AAG?$AA?$AA@ 000000018002be90     LIBCMT:winapinls.obj
 0002:00004ea0       ??_C@_1M@GIENNBFC@?$AAs?$AAw?$AA?9?$AAK?$AAE?$AA?$AA@ 000000018002bea0     LIBCMT:winapinls.obj
 0002:00004eb0       ??_C@_1BG@NDGMJIMJ@?$AAu?$AAz?$AA?9?$AAU?$AAZ?$AA?9?$AAL?$AAa?$AAt?$AAn?$AA?$AA@ 000000018002beb0     LIBCMT:winapinls.obj
 0002:00004ec8       ??_C@_1M@IDCCIHBC@?$AAt?$AAt?$AA?9?$AAR?$AAU?$AA?$AA@ 000000018002bec8     LIBCMT:winapinls.obj
 0002:00004ed8       ??_C@_1M@LOICPMOJ@?$AAb?$AAn?$AA?9?$AAI?$AAN?$AA?$AA@ 000000018002bed8     LIBCMT:winapinls.obj
 0002:00004ee8       ??_C@_1M@KPKKNEAH@?$AAp?$AAa?$AA?9?$AAI?$AAN?$AA?$AA@ 000000018002bee8     LIBCMT:winapinls.obj
 0002:00004ef8       ??_C@_1M@PJGPPBOG@?$AAg?$AAu?$AA?9?$AAI?$AAN?$AA?$AA@ 000000018002bef8     LIBCMT:winapinls.obj
 0002:00004f08       ??_C@_1M@KMKMOPHI@?$AAt?$AAa?$AA?9?$AAI?$AAN?$AA?$AA@ 000000018002bf08     LIBCMT:winapinls.obj
 0002:00004f18       ??_C@_1M@KFEHEPAC@?$AAt?$AAe?$AA?9?$AAI?$AAN?$AA?$AA@ 000000018002bf18     LIBCMT:winapinls.obj
 0002:00004f28       ??_C@_1M@CDCLMGHI@?$AAk?$AAn?$AA?9?$AAI?$AAN?$AA?$AA@ 000000018002bf28     LIBCMT:winapinls.obj
 0002:00004f38       ??_C@_1M@MIODLDKF@?$AAm?$AAl?$AA?9?$AAI?$AAN?$AA?$AA@ 000000018002bf38     LIBCMT:winapinls.obj
 0002:00004f48       ??_C@_1M@PBIEACPO@?$AAm?$AAr?$AA?9?$AAI?$AAN?$AA?$AA@ 000000018002bf48     LIBCMT:winapinls.obj
 0002:00004f58       ??_C@_1M@NIDEAGPH@?$AAs?$AAa?$AA?9?$AAI?$AAN?$AA?$AA@ 000000018002bf58     LIBCMT:winapinls.obj
 0002:00004f68       ??_C@_1M@FHIHCBIO@?$AAm?$AAn?$AA?9?$AAM?$AAN?$AA?$AA@ 000000018002bf68     LIBCMT:winapinls.obj
 0002:00004f78       ??_C@_1M@JAIJPENP@?$AAc?$AAy?$AA?9?$AAG?$AAB?$AA?$AA@ 000000018002bf78     LIBCMT:winapinls.obj
 0002:00004f88       ??_C@_1M@PHGFBEPN@?$AAg?$AAl?$AA?9?$AAE?$AAS?$AA?$AA@ 000000018002bf88     LIBCMT:winapinls.obj
 0002:00004f98       ??_C@_1O@KPIPDNCP@?$AAk?$AAo?$AAk?$AA?9?$AAI?$AAN?$AA?$AA@ 000000018002bf98     LIBCMT:winapinls.obj
 0002:00004fa8       ??_C@_1O@KNHJLDJA@?$AAs?$AAy?$AAr?$AA?9?$AAS?$AAY?$AA?$AA@ 000000018002bfa8     LIBCMT:winapinls.obj
 0002:00004fb8       ??_C@_1O@MKEKBLAH@?$AAd?$AAi?$AAv?$AA?9?$AAM?$AAV?$AA?$AA@ 000000018002bfb8     LIBCMT:winapinls.obj
 0002:00004fc8       ??_C@_1O@OHDCKDDF@?$AAq?$AAu?$AAz?$AA?9?$AAB?$AAO?$AA?$AA@ 000000018002bfc8     LIBCMT:winapinls.obj
 0002:00004fd8       ??_C@_1M@LEPJNLFD@?$AAn?$AAs?$AA?9?$AAZ?$AAA?$AA?$AA@ 000000018002bfd8     LIBCMT:winapinls.obj
 0002:00004fe8       ??_C@_1M@OMLEIIJB@?$AAm?$AAi?$AA?9?$AAN?$AAZ?$AA?$AA@ 000000018002bfe8     LIBCMT:winapinls.obj
 0002:00004ff8       ??_C@_1M@PMPEAILG@?$AAa?$AAr?$AA?9?$AAI?$AAQ?$AA?$AA@ 000000018002bff8     LIBCMT:winapinls.obj
 0002:00005008       ??_C@_1M@BIBDDEMK@?$AAz?$AAh?$AA?9?$AAC?$AAN?$AA?$AA@ 000000018002c008     LIBCMT:winapinls.obj
 0002:00005018       ??_C@_1M@CNKPNOEE@?$AAd?$AAe?$AA?9?$AAC?$AAH?$AA?$AA@ 000000018002c018     LIBCMT:winapinls.obj
 0002:00005028       ??_C@_1M@LKMGMLKO@?$AAe?$AAn?$AA?9?$AAG?$AAB?$AA?$AA@ 000000018002c028     LIBCMT:winapinls.obj
 0002:00005038       ??_C@_1M@PGKJFFGL@?$AAe?$AAs?$AA?9?$AAM?$AAX?$AA?$AA@ 000000018002c038     LIBCMT:winapinls.obj
 0002:00005048       ??_C@_1M@DNNANBDC@?$AAf?$AAr?$AA?9?$AAB?$AAE?$AA?$AA@ 000000018002c048     LIBCMT:winapinls.obj
 0002:00005058       ??_C@_1M@HLGMDFHM@?$AAi?$AAt?$AA?9?$AAC?$AAH?$AA?$AA@ 000000018002c058     LIBCMT:winapinls.obj
 0002:00005068       ??_C@_1M@CLLBGJH@?$AAn?$AAl?$AA?9?$AAB?$AAE?$AA?$AA@ 000000018002c068     LIBCMT:winapinls.obj
 0002:00005078       ??_C@_1M@BODBOGLF@?$AAn?$AAn?$AA?9?$AAN?$AAO?$AA?$AA@ 000000018002c078     LIBCMT:winapinls.obj
 0002:00005088       ??_C@_1M@HFFAHKAD@?$AAp?$AAt?$AA?9?$AAP?$AAT?$AA?$AA@ 000000018002c088     LIBCMT:winapinls.obj
 0002:00005098       ??_C@_1BG@LNOAKHIE@?$AAs?$AAr?$AA?9?$AAS?$AAP?$AA?9?$AAL?$AAa?$AAt?$AAn?$AA?$AA@ 000000018002c098     LIBCMT:winapinls.obj
 0002:000050b0       ??_C@_1M@HBMHBGAK@?$AAs?$AAv?$AA?9?$AAF?$AAI?$AA?$AA@ 000000018002c0b0     LIBCMT:winapinls.obj
 0002:000050c0       ??_C@_1BG@DGCJGJBE@?$AAa?$AAz?$AA?9?$AAA?$AAZ?$AA?9?$AAC?$AAy?$AAr?$AAl?$AA?$AA@ 000000018002c0c0     LIBCMT:winapinls.obj
 0002:000050d8       ??_C@_1M@KEJDAAHB@?$AAs?$AAe?$AA?9?$AAS?$AAE?$AA?$AA@ 000000018002c0d8     LIBCMT:winapinls.obj
 0002:000050e8       ??_C@_1M@HEIBJJAD@?$AAm?$AAs?$AA?9?$AAB?$AAN?$AA?$AA@ 000000018002c0e8     LIBCMT:winapinls.obj
 0002:000050f8       ??_C@_1BG@PBGJMCEM@?$AAu?$AAz?$AA?9?$AAU?$AAZ?$AA?9?$AAC?$AAy?$AAr?$AAl?$AA?$AA@ 000000018002c0f8     LIBCMT:winapinls.obj
 0002:00005110       ??_C@_1O@LAOBCMDF@?$AAq?$AAu?$AAz?$AA?9?$AAE?$AAC?$AA?$AA@ 000000018002c110     LIBCMT:winapinls.obj
 0002:00005120       ??_C@_1M@POEEMAIO@?$AAa?$AAr?$AA?9?$AAE?$AAG?$AA?$AA@ 000000018002c120     LIBCMT:winapinls.obj
 0002:00005130       ??_C@_1M@EFAKDEDL@?$AAz?$AAh?$AA?9?$AAH?$AAK?$AA?$AA@ 000000018002c130     LIBCMT:winapinls.obj
 0002:00005140       ??_C@_1M@HKKIJHGI@?$AAd?$AAe?$AA?9?$AAA?$AAT?$AA?$AA@ 000000018002c140     LIBCMT:winapinls.obj
 0002:00005150       ??_C@_1M@KBFBEHJF@?$AAe?$AAn?$AA?9?$AAA?$AAU?$AA?$AA@ 000000018002c150     LIBCMT:winapinls.obj
 0002:00005160       ??_C@_1M@MNPLFAAH@?$AAe?$AAs?$AA?9?$AAE?$AAS?$AA?$AA@ 000000018002c160     LIBCMT:winapinls.obj
 0002:00005170       ??_C@_1M@HJOOJFMA@?$AAf?$AAr?$AA?9?$AAC?$AAA?$AA?$AA@ 000000018002c170     LIBCMT:winapinls.obj
 0002:00005180       ??_C@_1BG@JPOFPNAB@?$AAs?$AAr?$AA?9?$AAS?$AAP?$AA?9?$AAC?$AAy?$AAr?$AAl?$AA?$AA@ 000000018002c180     LIBCMT:winapinls.obj
 0002:00005198       ??_C@_1M@LNFOCMOB@?$AAs?$AAe?$AA?9?$AAF?$AAI?$AA?$AA@ 000000018002c198     LIBCMT:winapinls.obj
 0002:000051a8       ??_C@_1O@MGJBOAMB@?$AAq?$AAu?$AAz?$AA?9?$AAP?$AAE?$AA?$AA@ 000000018002c1a8     LIBCMT:winapinls.obj
 0002:000051b8       ??_C@_1M@GJINLBOK@?$AAa?$AAr?$AA?9?$AAL?$AAY?$AA?$AA@ 000000018002c1b8     LIBCMT:winapinls.obj
 0002:000051c8       ??_C@_1M@GGMNHJNL@?$AAz?$AAh?$AA?9?$AAS?$AAG?$AA?$AA@ 000000018002c1c8     LIBCMT:winapinls.obj
 0002:000051d8       ??_C@_1M@HOIKODND@?$AAd?$AAe?$AA?9?$AAL?$AAU?$AA?$AA@ 000000018002c1d8     LIBCMT:winapinls.obj
 0002:000051e8       ??_C@_1M@DDOCCGFG@?$AAe?$AAn?$AA?9?$AAC?$AAA?$AA?$AA@ 000000018002c1e8     LIBCMT:winapinls.obj
 0002:000051f8       ??_C@_1M@BNOEMJLF@?$AAe?$AAs?$AA?9?$AAG?$AAT?$AA?$AA@ 000000018002c1f8     LIBCMT:winapinls.obj
 0002:00005208       ??_C@_1M@EOGNKEK@?$AAf?$AAr?$AA?9?$AAC?$AAH?$AA?$AA@ 000000018002c208     LIBCMT:winapinls.obj
 0002:00005218       ??_C@_1M@FLIDJFHL@?$AAh?$AAr?$AA?9?$AAB?$AAA?$AA?$AA@ 000000018002c218     LIBCMT:winapinls.obj
 0002:00005228       ??_C@_1O@FMCELNAJ@?$AAs?$AAm?$AAj?$AA?9?$AAN?$AAO?$AA?$AA@ 000000018002c228     LIBCMT:winapinls.obj
 0002:00005238       ??_C@_1M@JHGLJMGJ@?$AAa?$AAr?$AA?9?$AAD?$AAZ?$AA?$AA@ 000000018002c238     LIBCMT:winapinls.obj
 0002:00005248       ??_C@_1M@JKKFDCNP@?$AAz?$AAh?$AA?9?$AAM?$AAO?$AA?$AA@ 000000018002c248     LIBCMT:winapinls.obj
 0002:00005258       ??_C@_1M@GEEFALPE@?$AAd?$AAe?$AA?9?$AAL?$AAI?$AA?$AA@ 000000018002c258     LIBCMT:winapinls.obj
 0002:00005268       ??_C@_1M@IGEOFBG@?$AAe?$AAn?$AA?9?$AAN?$AAZ?$AA?$AA@ 000000018002c268     LIBCMT:winapinls.obj
 0002:00005278       ??_C@_1M@KDBONEHP@?$AAe?$AAs?$AA?9?$AAC?$AAR?$AA?$AA@ 000000018002c278     LIBCMT:winapinls.obj
 0002:00005288       ??_C@_1M@FHMDOHNN@?$AAf?$AAr?$AA?9?$AAL?$AAU?$AA?$AA@ 000000018002c288     LIBCMT:winapinls.obj
 0002:00005298       ??_C@_1BG@NFKKMAFG@?$AAb?$AAs?$AA?9?$AAB?$AAA?$AA?9?$AAL?$AAa?$AAt?$AAn?$AA?$AA@ 000000018002c298     LIBCMT:winapinls.obj
 0002:000052b0       ??_C@_1O@IMNBEMCI@?$AAs?$AAm?$AAj?$AA?9?$AAS?$AAE?$AA?$AA@ 000000018002c2b0     LIBCMT:winapinls.obj
 0002:000052c0       ??_C@_1M@DHHMBNDP@?$AAa?$AAr?$AA?9?$AAM?$AAA?$AA?$AA@ 000000018002c2c0     LIBCMT:winapinls.obj
 0002:000052d0       ??_C@_1M@BNBLJCGH@?$AAe?$AAn?$AA?9?$AAI?$AAE?$AA?$AA@ 000000018002c2d0     LIBCMT:winapinls.obj
 0002:000052e0       ??_C@_1M@GEPAFMDL@?$AAe?$AAs?$AA?9?$AAP?$AAA?$AA?$AA@ 000000018002c2e0     LIBCMT:winapinls.obj
 0002:000052f0       ??_C@_1M@OJONDMDL@?$AAf?$AAr?$AA?9?$AAM?$AAC?$AA?$AA@ 000000018002c2f0     LIBCMT:winapinls.obj
 0002:00005300       ??_C@_1BG@OBCNFJB@?$AAs?$AAr?$AA?9?$AAB?$AAA?$AA?9?$AAL?$AAa?$AAt?$AAn?$AA?$AA@ 000000018002c300     LIBCMT:winapinls.obj
 0002:00005318       ??_C@_1O@KEMEEGPO@?$AAs?$AAm?$AAa?$AA?9?$AAN?$AAO?$AA?$AA@ 000000018002c318     LIBCMT:winapinls.obj
 0002:00005328       ??_C@_1M@ELMGFODK@?$AAa?$AAr?$AA?9?$AAT?$AAN?$AA?$AA@ 000000018002c328     LIBCMT:winapinls.obj
 0002:00005338       ??_C@_1M@BHDLHFAF@?$AAe?$AAn?$AA?9?$AAZ?$AAA?$AA?$AA@ 000000018002c338     LIBCMT:winapinls.obj
 0002:00005348       ??_C@_1M@BMGIGLIF@?$AAe?$AAs?$AA?9?$AAD?$AAO?$AA?$AA@ 000000018002c348     LIBCMT:winapinls.obj
 0002:00005358       ??_C@_1BG@CMBHIPBE@?$AAs?$AAr?$AA?9?$AAB?$AAA?$AA?9?$AAC?$AAy?$AAr?$AAl?$AA?$AA@ 000000018002c358     LIBCMT:winapinls.obj
 0002:00005370       ??_C@_1O@HEDBLHNP@?$AAs?$AAm?$AAa?$AA?9?$AAS?$AAE?$AA?$AA@ 000000018002c370     LIBCMT:winapinls.obj
 0002:00005380       ??_C@_1M@DAGCADIM@?$AAa?$AAr?$AA?9?$AAO?$AAM?$AA?$AA@ 000000018002c380     LIBCMT:winapinls.obj
 0002:00005390       ??_C@_1M@FODLMICG@?$AAe?$AAn?$AA?9?$AAJ?$AAM?$AA?$AA@ 000000018002c390     LIBCMT:winapinls.obj
 0002:000053a0       ??_C@_1M@DNMLCIHB@?$AAe?$AAs?$AA?9?$AAV?$AAE?$AA?$AA@ 000000018002c3a0     LIBCMT:winapinls.obj
 0002:000053b0       ??_C@_1O@EOKHMKJK@?$AAs?$AAm?$AAs?$AA?9?$AAF?$AAI?$AA?$AA@ 000000018002c3b0     LIBCMT:winapinls.obj
 0002:000053c0       ??_C@_1M@CAFJMKOF@?$AAa?$AAr?$AA?9?$AAY?$AAE?$AA?$AA@ 000000018002c3c0     LIBCMT:winapinls.obj
 0002:000053d0       ??_C@_1M@CBFHIJLI@?$AAe?$AAn?$AA?9?$AAC?$AAB?$AA?$AA@ 000000018002c3d0     LIBCMT:winapinls.obj
 0002:000053e0       ??_C@_1M@BGNFLDN@?$AAe?$AAs?$AA?9?$AAC?$AAO?$AA?$AA@ 000000018002c3e0     LIBCMT:winapinls.obj
 0002:000053f0       ??_C@_1O@JMPHMAMC@?$AAs?$AAm?$AAn?$AA?9?$AAF?$AAI?$AA?$AA@ 000000018002c3f0     LIBCMT:winapinls.obj
 0002:00005400       ??_C@_1M@JLANABKE@?$AAa?$AAr?$AA?9?$AAS?$AAY?$AA?$AA@ 000000018002c400     LIBCMT:winapinls.obj
 0002:00005410       ??_C@_1M@HPKGCFGN@?$AAe?$AAn?$AA?9?$AAB?$AAZ?$AA?$AA@ 000000018002c410     LIBCMT:winapinls.obj
 0002:00005420       ??_C@_1M@OLJCMLGM@?$AAe?$AAs?$AA?9?$AAP?$AAE?$AA?$AA@ 000000018002c420     LIBCMT:winapinls.obj
 0002:00005430       ??_C@_1M@MKKGFKLE@?$AAa?$AAr?$AA?9?$AAJ?$AAO?$AA?$AA@ 000000018002c430     LIBCMT:winapinls.obj
 0002:00005440       ??_C@_1M@EKPGLDNI@?$AAe?$AAn?$AA?9?$AAT?$AAT?$AA?$AA@ 000000018002c440     LIBCMT:winapinls.obj
 0002:00005450       ??_C@_1M@OONGHFHE@?$AAe?$AAs?$AA?9?$AAA?$AAR?$AA?$AA@ 000000018002c450     LIBCMT:winapinls.obj
 0002:00005460       ??_C@_1M@OOJFGBHE@?$AAa?$AAr?$AA?9?$AAL?$AAB?$AA?$AA@ 000000018002c460     LIBCMT:winapinls.obj
 0002:00005470       ??_C@_1M@GCEJHNEG@?$AAe?$AAn?$AA?9?$AAZ?$AAW?$AA?$AA@ 000000018002c470     LIBCMT:winapinls.obj
 0002:00005480       ??_C@_1M@JNOCAHJI@?$AAe?$AAs?$AA?9?$AAE?$AAC?$AA?$AA@ 000000018002c480     LIBCMT:winapinls.obj
 0002:00005490       ??_C@_1M@JEFHPGGB@?$AAa?$AAr?$AA?9?$AAK?$AAW?$AA?$AA@ 000000018002c490     LIBCMT:winapinls.obj
 0002:000054a0       ??_C@_1M@MLKIBJOJ@?$AAe?$AAn?$AA?9?$AAP?$AAH?$AA?$AA@ 000000018002c4a0     LIBCMT:winapinls.obj
 0002:000054b0       ??_C@_1M@BDNIPEND@?$AAe?$AAs?$AA?9?$AAC?$AAL?$AA?$AA@ 000000018002c4b0     LIBCMT:winapinls.obj
 0002:000054c0       ??_C@_1M@MPNMEKBD@?$AAa?$AAr?$AA?9?$AAA?$AAE?$AA?$AA@ 000000018002c4c0     LIBCMT:winapinls.obj
 0002:000054d0       ??_C@_1M@KBJALCPI@?$AAe?$AAs?$AA?9?$AAU?$AAY?$AA?$AA@ 000000018002c4d0     LIBCMT:winapinls.obj
 0002:000054e0       ??_C@_1M@LLCCOAGA@?$AAa?$AAr?$AA?9?$AAB?$AAH?$AA?$AA@ 000000018002c4e0     LIBCMT:winapinls.obj
 0002:000054f0       ??_C@_1M@PBFNCDEL@?$AAe?$AAs?$AA?9?$AAP?$AAY?$AA?$AA@ 000000018002c4f0     LIBCMT:winapinls.obj
 0002:00005500       ??_C@_1M@EDGINPNP@?$AAa?$AAr?$AA?9?$AAQ?$AAA?$AA?$AA@ 000000018002c500     LIBCMT:winapinls.obj
 0002:00005510       ??_C@_1M@MKDBIIJI@?$AAe?$AAs?$AA?9?$AAB?$AAO?$AA?$AA@ 000000018002c510     LIBCMT:winapinls.obj
 0002:00005520       ??_C@_1M@CPKKEBLD@?$AAe?$AAs?$AA?9?$AAS?$AAV?$AA?$AA@ 000000018002c520     LIBCMT:winapinls.obj
 0002:00005530       ??_C@_1M@NDBGMMJL@?$AAe?$AAs?$AA?9?$AAH?$AAN?$AA?$AA@ 000000018002c530     LIBCMT:winapinls.obj
 0002:00005540       ??_C@_1M@JIJIBHDP@?$AAe?$AAs?$AA?9?$AAN?$AAI?$AA?$AA@ 000000018002c540     LIBCMT:winapinls.obj
 0002:00005550       ??_C@_1M@CGFMKEEK@?$AAe?$AAs?$AA?9?$AAP?$AAR?$AA?$AA@ 000000018002c550     LIBCMT:winapinls.obj
 0002:00005560       ??_C@_1O@ICJHKIIK@?$AAz?$AAh?$AA?9?$AAC?$AAH?$AAT?$AA?$AA@ 000000018002c560     LIBCMT:winapinls.obj
 0002:00005570       ??_C@_15CLNEJCE@?$AAs?$AAr?$AA?$AA@ 000000018002c570     LIBCMT:winapinls.obj
 0002:00005578       ??_C@_1M@KAHEKEIG@?$AAa?$AAf?$AA?9?$AAz?$AAa?$AA?$AA@ 000000018002c578     LIBCMT:winapinls.obj
 0002:00005588       ??_C@_1M@GIECOABL@?$AAa?$AAr?$AA?9?$AAa?$AAe?$AA?$AA@ 000000018002c588     LIBCMT:winapinls.obj
 0002:00005598       ??_C@_1M@BMLMEKGI@?$AAa?$AAr?$AA?9?$AAb?$AAh?$AA?$AA@ 000000018002c598     LIBCMT:winapinls.obj
 0002:000055a8       ??_C@_1M@DAPFDGGB@?$AAa?$AAr?$AA?9?$AAd?$AAz?$AA?$AA@ 000000018002c5a8     LIBCMT:winapinls.obj
 0002:000055b8       ??_C@_1M@FJNKGKIG@?$AAa?$AAr?$AA?9?$AAe?$AAg?$AA?$AA@ 000000018002c5b8     LIBCMT:winapinls.obj
 0002:000055c8       ??_C@_1M@FLGKKCLO@?$AAa?$AAr?$AA?9?$AAi?$AAq?$AA?$AA@ 000000018002c5c8     LIBCMT:winapinls.obj
 0002:000055d8       ??_C@_1M@GNDIPALM@?$AAa?$AAr?$AA?9?$AAj?$AAo?$AA?$AA@ 000000018002c5d8     LIBCMT:winapinls.obj
 0002:000055e8       ??_C@_1M@DDMJFMGJ@?$AAa?$AAr?$AA?9?$AAk?$AAw?$AA?$AA@ 000000018002c5e8     LIBCMT:winapinls.obj
 0002:000055f8       ??_C@_1M@EJALMLHM@?$AAa?$AAr?$AA?9?$AAl?$AAb?$AA?$AA@ 000000018002c5f8     LIBCMT:winapinls.obj
 0002:00005608       ??_C@_1M@MOBDBLOC@?$AAa?$AAr?$AA?9?$AAl?$AAy?$AA?$AA@ 000000018002c608     LIBCMT:winapinls.obj
 0002:00005618       ??_C@_1M@JAOCLHDH@?$AAa?$AAr?$AA?9?$AAm?$AAa?$AA?$AA@ 000000018002c618     LIBCMT:winapinls.obj
 0002:00005628       ??_C@_1M@JHPMKJIE@?$AAa?$AAr?$AA?9?$AAo?$AAm?$AA?$AA@ 000000018002c628     LIBCMT:winapinls.obj
 0002:00005638       ??_C@_1M@OEPGHFNH@?$AAa?$AAr?$AA?9?$AAq?$AAa?$AA?$AA@ 000000018002c638     LIBCMT:winapinls.obj
 0002:00005648       ??_C@_1M@KJDONENM@?$AAa?$AAr?$AA?9?$AAs?$AAa?$AA?$AA@ 000000018002c648     LIBCMT:winapinls.obj
 0002:00005658       ??_C@_1M@DMJDKLKM@?$AAa?$AAr?$AA?9?$AAs?$AAy?$AA?$AA@ 000000018002c658     LIBCMT:winapinls.obj
 0002:00005668       ??_C@_1M@OMFIPEDC@?$AAa?$AAr?$AA?9?$AAt?$AAn?$AA?$AA@ 000000018002c668     LIBCMT:winapinls.obj
 0002:00005678       ??_C@_1M@IHMHGAON@?$AAa?$AAr?$AA?9?$AAy?$AAe?$AA?$AA@ 000000018002c678     LIBCMT:winapinls.obj
 0002:00005688       ??_C@_1BG@KDCPGJGB@?$AAa?$AAz?$AA?9?$AAa?$AAz?$AA?9?$AAc?$AAy?$AAr?$AAl?$AA?$AA@ 000000018002c688     LIBCMT:winapinls.obj
 0002:000056a0       ??_C@_1BG@IBCKDDOE@?$AAa?$AAz?$AA?9?$AAa?$AAz?$AA?9?$AAl?$AAa?$AAt?$AAn?$AA?$AA@ 000000018002c6a0     LIBCMT:winapinls.obj
 0002:000056b8       ??_C@_1M@EGPFDCPD@?$AAb?$AAe?$AA?9?$AAb?$AAy?$AA?$AA@ 000000018002c6b8     LIBCMT:winapinls.obj
 0002:000056c8       ??_C@_1M@PCMGMCGC@?$AAb?$AAg?$AA?9?$AAb?$AAg?$AA?$AA@ 000000018002c6c8     LIBCMT:winapinls.obj
 0002:000056d8       ??_C@_1M@BJBMFGOB@?$AAb?$AAn?$AA?9?$AAi?$AAn?$AA?$AA@ 000000018002c6d8     LIBCMT:winapinls.obj
 0002:000056e8       ??_C@_1BG@EAKMMACD@?$AAb?$AAs?$AA?9?$AAb?$AAa?$AA?9?$AAl?$AAa?$AAt?$AAn?$AA?$AA@ 000000018002c6e8     LIBCMT:winapinls.obj
 0002:00005700       ??_C@_1M@KGADAODK@?$AAc?$AAa?$AA?9?$AAe?$AAs?$AA?$AA@ 000000018002c700     LIBCMT:winapinls.obj
 0002:00005710       ??_C@_1M@COAJPDHI@?$AAc?$AAs?$AA?9?$AAc?$AAz?$AA?$AA@ 000000018002c710     LIBCMT:winapinls.obj
 0002:00005720       ??_C@_1M@DHBHFONH@?$AAc?$AAy?$AA?9?$AAg?$AAb?$AA?$AA@ 000000018002c720     LIBCMT:winapinls.obj
 0002:00005730       ??_C@_1M@IMGKELGA@?$AAd?$AAa?$AA?9?$AAd?$AAk?$AA?$AA@ 000000018002c730     LIBCMT:winapinls.obj
 0002:00005740       ??_C@_1M@NNDGDNGA@?$AAd?$AAe?$AA?9?$AAa?$AAt?$AA?$AA@ 000000018002c740     LIBCMT:winapinls.obj
 0002:00005750       ??_C@_1M@IKDBHEEM@?$AAd?$AAe?$AA?9?$AAc?$AAh?$AA?$AA@ 000000018002c750     LIBCMT:winapinls.obj
 0002:00005760       ??_C@_1M@GFFOJMCJ@?$AAd?$AAe?$AA?9?$AAd?$AAe?$AA?$AA@ 000000018002c760     LIBCMT:winapinls.obj
 0002:00005770       ??_C@_1M@MDNLKBPM@?$AAd?$AAe?$AA?9?$AAl?$AAi?$AA?$AA@ 000000018002c770     LIBCMT:winapinls.obj
 0002:00005780       ??_C@_1M@NJBEEJNL@?$AAd?$AAe?$AA?9?$AAl?$AAu?$AA?$AA@ 000000018002c780     LIBCMT:winapinls.obj
 0002:00005790       ??_C@_1O@GNNELBAP@?$AAd?$AAi?$AAv?$AA?9?$AAm?$AAv?$AA?$AA@ 000000018002c790     LIBCMT:winapinls.obj
 0002:000057a0       ??_C@_1M@EJLEOGAE@?$AAe?$AAl?$AA?9?$AAg?$AAr?$AA?$AA@ 000000018002c7a0     LIBCMT:winapinls.obj
 0002:000057b0       ??_C@_1M@GMPONJN@?$AAe?$AAn?$AA?9?$AAa?$AAu?$AA?$AA@ 000000018002c7b0     LIBCMT:winapinls.obj
 0002:000057c0       ??_C@_1M@NIDIIPGF@?$AAe?$AAn?$AA?9?$AAb?$AAz?$AA?$AA@ 000000018002c7c0     LIBCMT:winapinls.obj
 0002:000057d0       ??_C@_1M@JEHMIMFO@?$AAe?$AAn?$AA?9?$AAc?$AAa?$AA?$AA@ 000000018002c7d0     LIBCMT:winapinls.obj
 0002:000057e0       ??_C@_1M@IGMJCDLA@?$AAe?$AAn?$AA?9?$AAc?$AAb?$AA?$AA@ 000000018002c7e0     LIBCMT:winapinls.obj
 0002:000057f0       ??_C@_1M@BNFIGBKG@?$AAe?$AAn?$AA?9?$AAg?$AAb?$AA?$AA@ 000000018002c7f0     LIBCMT:winapinls.obj
 0002:00005800       ??_C@_1M@LKIFDIGP@?$AAe?$AAn?$AA?9?$AAi?$AAe?$AA?$AA@ 000000018002c800     LIBCMT:winapinls.obj
 0002:00005810       ??_C@_1M@PJKFGCCO@?$AAe?$AAn?$AA?9?$AAj?$AAm?$AA?$AA@ 000000018002c810     LIBCMT:winapinls.obj
 0002:00005820       ??_C@_1M@KPPKEPBO@?$AAe?$AAn?$AA?9?$AAn?$AAz?$AA?$AA@ 000000018002c820     LIBCMT:winapinls.obj
 0002:00005830       ??_C@_1M@GMDGLDOB@?$AAe?$AAn?$AA?9?$AAp?$AAh?$AA?$AA@ 000000018002c830     LIBCMT:winapinls.obj
 0002:00005840       ??_C@_1M@ONGIBJNA@?$AAe?$AAn?$AA?9?$AAt?$AAt?$AA?$AA@ 000000018002c840     LIBCMT:winapinls.obj
 0002:00005850       ??_C@_1M@LLODPCMM@?$AAe?$AAn?$AA?9?$AAu?$AAs?$AA?$AA@ 000000018002c850     LIBCMT:winapinls.obj
 0002:00005860       ??_C@_1M@LAKFNPAN@?$AAe?$AAn?$AA?9?$AAz?$AAa?$AA?$AA@ 000000018002c860     LIBCMT:winapinls.obj
 0002:00005870       ??_C@_1M@MFNHNHEO@?$AAe?$AAn?$AA?9?$AAz?$AAw?$AA?$AA@ 000000018002c870     LIBCMT:winapinls.obj
 0002:00005880       ??_C@_1M@EJEINPHM@?$AAe?$AAs?$AA?9?$AAa?$AAr?$AA?$AA@ 000000018002c880     LIBCMT:winapinls.obj
 0002:00005890       ??_C@_1M@GNKPCCJA@?$AAe?$AAs?$AA?9?$AAb?$AAo?$AA?$AA@ 000000018002c890     LIBCMT:winapinls.obj
 0002:000058a0       ??_C@_1M@LEEGFONL@?$AAe?$AAs?$AA?9?$AAc?$AAl?$AA?$AA@ 000000018002c8a0     LIBCMT:winapinls.obj
 0002:000058b0       ??_C@_1M@KGPDPBDF@?$AAe?$AAs?$AA?9?$AAc?$AAo?$AA?$AA@ 000000018002c8b0     LIBCMT:winapinls.obj
 0002:000058c0       ??_C@_1M@EIAHOHH@?$AAe?$AAs?$AA?9?$AAc?$AAr?$AA?$AA@ 000000018002c8c0     LIBCMT:winapinls.obj
 0002:000058d0       ??_C@_1M@LLPGMBIN@?$AAe?$AAs?$AA?9?$AAd?$AAo?$AA?$AA@ 000000018002c8d0     LIBCMT:winapinls.obj
 0002:000058e0       ??_C@_1M@DKHMKNJA@?$AAe?$AAs?$AA?9?$AAe?$AAc?$AA?$AA@ 000000018002c8e0     LIBCMT:winapinls.obj
 0002:000058f0       ??_C@_1M@GKGFPKAP@?$AAe?$AAs?$AA?9?$AAe?$AAs?$AA?$AA@ 000000018002c8f0     LIBCMT:winapinls.obj
 0002:00005900       ??_C@_1M@LKHKGDLN@?$AAe?$AAs?$AA?9?$AAg?$AAt?$AA?$AA@ 000000018002c900     LIBCMT:winapinls.obj
 0002:00005910       ??_C@_1M@HEIIGGJD@?$AAe?$AAs?$AA?9?$AAh?$AAn?$AA?$AA@ 000000018002c910     LIBCMT:winapinls.obj
 0002:00005920       ??_C@_1M@FBDHPPGD@?$AAe?$AAs?$AA?9?$AAm?$AAx?$AA?$AA@ 000000018002c920     LIBCMT:winapinls.obj
 0002:00005930       ??_C@_1M@DPAGLNDH@?$AAe?$AAs?$AA?9?$AAn?$AAi?$AA?$AA@ 000000018002c930     LIBCMT:winapinls.obj
 0002:00005940       ??_C@_1M@MDGOPGDD@?$AAe?$AAs?$AA?9?$AAp?$AAa?$AA?$AA@ 000000018002c940     LIBCMT:winapinls.obj
 0002:00005950       ??_C@_1M@EMAMGBGE@?$AAe?$AAs?$AA?9?$AAp?$AAe?$AA?$AA@ 000000018002c950     LIBCMT:winapinls.obj
 0002:00005960       ??_C@_1M@IBMCAOEC@?$AAe?$AAs?$AA?9?$AAp?$AAr?$AA?$AA@ 000000018002c960     LIBCMT:winapinls.obj
 0002:00005970       ??_C@_1M@FGMDIJED@?$AAe?$AAs?$AA?9?$AAp?$AAy?$AA?$AA@ 000000018002c970     LIBCMT:winapinls.obj
 0002:00005980       ??_C@_1M@IIDEOLLL@?$AAe?$AAs?$AA?9?$AAs?$AAv?$AA?$AA@ 000000018002c980     LIBCMT:winapinls.obj
 0002:00005990       ??_C@_1M@GAOBIPA@?$AAe?$AAs?$AA?9?$AAu?$AAy?$AA?$AA@ 000000018002c990     LIBCMT:winapinls.obj
 0002:000059a0       ??_C@_1M@JKFFICHJ@?$AAe?$AAs?$AA?9?$AAv?$AAe?$AA?$AA@ 000000018002c9a0     LIBCMT:winapinls.obj
 0002:000059b0       ??_C@_1M@PNMLOJDF@?$AAe?$AAt?$AA?9?$AAe?$AAe?$AA?$AA@ 000000018002c9b0     LIBCMT:winapinls.obj
 0002:000059c0       ??_C@_1M@GHHLIKEI@?$AAe?$AAu?$AA?9?$AAe?$AAs?$AA?$AA@ 000000018002c9c0     LIBCMT:winapinls.obj
 0002:000059d0       ??_C@_1M@PBNONODE@?$AAf?$AAa?$AA?9?$AAi?$AAr?$AA?$AA@ 000000018002c9d0     LIBCMT:winapinls.obj
 0002:000059e0       ??_C@_1M@JEEHPMIL@?$AAf?$AAi?$AA?9?$AAf?$AAi?$AA?$AA@ 000000018002c9e0     LIBCMT:winapinls.obj
 0002:000059f0       ??_C@_1M@LMDCNDBA@?$AAf?$AAo?$AA?9?$AAf?$AAo?$AA?$AA@ 000000018002c9f0     LIBCMT:winapinls.obj
 0002:00005a00       ??_C@_1M@JKEOHLDK@?$AAf?$AAr?$AA?9?$AAb?$AAe?$AA?$AA@ 000000018002ca00     LIBCMT:winapinls.obj
 0002:00005a10       ??_C@_1M@NOHADPMI@?$AAf?$AAr?$AA?9?$AAc?$AAa?$AA?$AA@ 000000018002ca10     LIBCMT:winapinls.obj
 0002:00005a20       ??_C@_1M@KDHIHAEC@?$AAf?$AAr?$AA?9?$AAc?$AAh?$AA?$AA@ 000000018002ca20     LIBCMT:winapinls.obj
 0002:00005a30       ??_C@_1M@MMBBFGAK@?$AAf?$AAr?$AA?9?$AAf?$AAr?$AA?$AA@ 000000018002ca30     LIBCMT:winapinls.obj
 0002:00005a40       ??_C@_1M@PAFNENNF@?$AAf?$AAr?$AA?9?$AAl?$AAu?$AA?$AA@ 000000018002ca40     LIBCMT:winapinls.obj
 0002:00005a50       ??_C@_1M@EOHDJGDD@?$AAf?$AAr?$AA?9?$AAm?$AAc?$AA?$AA@ 000000018002ca50     LIBCMT:winapinls.obj
 0002:00005a60       ??_C@_1M@FAPLLOPF@?$AAg?$AAl?$AA?9?$AAe?$AAs?$AA?$AA@ 000000018002ca60     LIBCMT:winapinls.obj
 0002:00005a70       ??_C@_1M@FOPBFLOO@?$AAg?$AAu?$AA?9?$AAi?$AAn?$AA?$AA@ 000000018002ca70     LIBCMT:winapinls.obj
 0002:00005a80       ??_C@_1M@KBMCINPM@?$AAh?$AAe?$AA?9?$AAi?$AAl?$AA?$AA@ 000000018002ca80     LIBCMT:winapinls.obj
 0002:00005a90       ??_C@_1M@BBPHKFPJ@?$AAh?$AAi?$AA?9?$AAi?$AAn?$AA?$AA@ 000000018002ca90     LIBCMT:winapinls.obj
 0002:00005aa0       ??_C@_1M@PMBNDPHD@?$AAh?$AAr?$AA?9?$AAb?$AAa?$AA?$AA@ 000000018002caa0     LIBCMT:winapinls.obj
 0002:00005ab0       ??_C@_1M@BPCKOEGE@?$AAh?$AAr?$AA?9?$AAh?$AAr?$AA?$AA@ 000000018002cab0     LIBCMT:winapinls.obj
 0002:00005ac0       ??_C@_1M@GACBMHKE@?$AAh?$AAu?$AA?9?$AAh?$AAu?$AA?$AA@ 000000018002cac0     LIBCMT:winapinls.obj
 0002:00005ad0       ??_C@_1M@MILPAJJC@?$AAh?$AAy?$AA?9?$AAa?$AAm?$AA?$AA@ 000000018002cad0     LIBCMT:winapinls.obj
 0002:00005ae0       ??_C@_1M@BABBICEC@?$AAi?$AAd?$AA?9?$AAi?$AAd?$AA?$AA@ 000000018002cae0     LIBCMT:winapinls.obj
 0002:00005af0       ??_C@_1M@BIKNHHPF@?$AAi?$AAs?$AA?9?$AAi?$AAs?$AA?$AA@ 000000018002caf0     LIBCMT:winapinls.obj
 0002:00005b00       ??_C@_1M@NMPCJPHE@?$AAi?$AAt?$AA?9?$AAc?$AAh?$AA?$AA@ 000000018002cb00     LIBCMT:winapinls.obj
 0002:00005b10       ??_C@_1M@GHKGFEDF@?$AAi?$AAt?$AA?9?$AAi?$AAt?$AA?$AA@ 000000018002cb10     LIBCMT:winapinls.obj
 0002:00005b20       ??_C@_1M@NIEJCJJA@?$AAj?$AAa?$AA?9?$AAj?$AAp?$AA?$AA@ 000000018002cb20     LIBCMT:winapinls.obj
 0002:00005b30       ??_C@_1M@JILFNBIM@?$AAk?$AAa?$AA?9?$AAg?$AAe?$AA?$AA@ 000000018002cb30     LIBCMT:winapinls.obj
 0002:00005b40       ??_C@_1M@PACPMGPH@?$AAk?$AAk?$AA?9?$AAk?$AAz?$AA?$AA@ 000000018002cb40     LIBCMT:winapinls.obj
 0002:00005b50       ??_C@_1M@IELFGMHA@?$AAk?$AAn?$AA?9?$AAi?$AAn?$AA?$AA@ 000000018002cb50     LIBCMT:winapinls.obj
 0002:00005b60       ??_C@_1O@IBBJHCH@?$AAk?$AAo?$AAk?$AA?9?$AAi?$AAn?$AA?$AA@ 000000018002cb60     LIBCMT:winapinls.obj
 0002:00005b70       ??_C@_1M@DMHAEOGC@?$AAk?$AAo?$AA?9?$AAk?$AAr?$AA?$AA@ 000000018002cb70     LIBCMT:winapinls.obj
 0002:00005b80       ??_C@_1M@HBAHBIGA@?$AAk?$AAy?$AA?9?$AAk?$AAg?$AA?$AA@ 000000018002cb80     LIBCMT:winapinls.obj
 0002:00005b90       ??_C@_1M@KPMILCJG@?$AAl?$AAt?$AA?9?$AAl?$AAt?$AA?$AA@ 000000018002cb90     LIBCMT:winapinls.obj
 0002:00005ba0       ??_C@_1M@BDEKKCA@?$AAl?$AAv?$AA?9?$AAl?$AAv?$AA?$AA@ 000000018002cba0     LIBCMT:winapinls.obj
 0002:00005bb0       ??_C@_1M@ELCKCCJJ@?$AAm?$AAi?$AA?9?$AAn?$AAz?$AA?$AA@ 000000018002cbb0     LIBCMT:winapinls.obj
 0002:00005bc0       ??_C@_1M@CBOOLAPA@?$AAm?$AAk?$AA?9?$AAm?$AAk?$AA?$AA@ 000000018002cbc0     LIBCMT:winapinls.obj
 0002:00005bd0       ??_C@_1M@GPHNBJKN@?$AAm?$AAl?$AA?9?$AAi?$AAn?$AA?$AA@ 000000018002cbd0     LIBCMT:winapinls.obj
 0002:00005be0       ??_C@_1M@PABJILIG@?$AAm?$AAn?$AA?9?$AAm?$AAn?$AA?$AA@ 000000018002cbe0     LIBCMT:winapinls.obj
 0002:00005bf0       ??_C@_1M@FGBKKIPG@?$AAm?$AAr?$AA?9?$AAi?$AAn?$AA?$AA@ 000000018002cbf0     LIBCMT:winapinls.obj
 0002:00005c00       ??_C@_1M@NDBPDDAL@?$AAm?$AAs?$AA?9?$AAb?$AAn?$AA?$AA@ 000000018002cc00     LIBCMT:winapinls.obj
 0002:00005c10       ??_C@_1M@OPIHOOPI@?$AAm?$AAs?$AA?9?$AAm?$AAy?$AA?$AA@ 000000018002cc10     LIBCMT:winapinls.obj
 0002:00005c20       ??_C@_1M@PPDBCNFM@?$AAm?$AAt?$AA?9?$AAm?$AAt?$AA?$AA@ 000000018002cc20     LIBCMT:winapinls.obj
 0002:00005c30       ??_C@_1M@KDJDKMDD@?$AAn?$AAb?$AA?9?$AAn?$AAo?$AA?$AA@ 000000018002cc30     LIBCMT:winapinls.obj
 0002:00005c40       ??_C@_1M@KFCFLMJP@?$AAn?$AAl?$AA?9?$AAb?$AAe?$AA?$AA@ 000000018002cc40     LIBCMT:winapinls.obj
 0002:00005c50       ??_C@_1M@KPOPDDGO@?$AAn?$AAl?$AA?9?$AAn?$AAl?$AA?$AA@ 000000018002cc50     LIBCMT:winapinls.obj
 0002:00005c60       ??_C@_1M@LJKPEMLN@?$AAn?$AAn?$AA?9?$AAn?$AAo?$AA?$AA@ 000000018002cc60     LIBCMT:winapinls.obj
 0002:00005c70       ??_C@_1M@BDGHHBFL@?$AAn?$AAs?$AA?9?$AAz?$AAa?$AA?$AA@ 000000018002cc70     LIBCMT:winapinls.obj
 0002:00005c80       ??_C@_1M@IDEHOAP@?$AAp?$AAa?$AA?9?$AAi?$AAn?$AA?$AA@ 000000018002cc80     LIBCMT:winapinls.obj
 0002:00005c90       ??_C@_1M@HDBKGOGH@?$AAp?$AAl?$AA?9?$AAp?$AAl?$AA?$AA@ 000000018002cc90     LIBCMT:winapinls.obj
 0002:00005ca0       ??_C@_1M@LJLLCMEH@?$AAp?$AAt?$AA?9?$AAb?$AAr?$AA?$AA@ 000000018002cca0     LIBCMT:winapinls.obj
 0002:00005cb0       ??_C@_1M@NCMONAAL@?$AAp?$AAt?$AA?9?$AAp?$AAt?$AA?$AA@ 000000018002ccb0     LIBCMT:winapinls.obj
 0002:00005cc0       ??_C@_1O@EAKMAJDN@?$AAq?$AAu?$AAz?$AA?9?$AAb?$AAo?$AA?$AA@ 000000018002ccc0     LIBCMT:winapinls.obj
 0002:00005cd0       ??_C@_1O@BHHPIGDN@?$AAq?$AAu?$AAz?$AA?9?$AAe?$AAc?$AA?$AA@ 000000018002ccd0     LIBCMT:winapinls.obj
 0002:00005ce0       ??_C@_1O@GBAPEKMJ@?$AAq?$AAu?$AAz?$AA?9?$AAp?$AAe?$AA?$AA@ 000000018002cce0     LIBCMT:winapinls.obj
 0002:00005cf0       ??_C@_1M@CLGLEFBO@?$AAr?$AAo?$AA?9?$AAr?$AAo?$AA?$AA@ 000000018002ccf0     LIBCMT:winapinls.obj
 0002:00005d00       ??_C@_1M@CEEDODME@?$AAr?$AAu?$AA?9?$AAr?$AAu?$AA?$AA@ 000000018002cd00     LIBCMT:winapinls.obj
 0002:00005d10       ??_C@_1M@HPKKKMPP@?$AAs?$AAa?$AA?9?$AAi?$AAn?$AA?$AA@ 000000018002cd10     LIBCMT:winapinls.obj
 0002:00005d20       ??_C@_1M@BKMAIGOJ@?$AAs?$AAe?$AA?9?$AAf?$AAi?$AA?$AA@ 000000018002cd20     LIBCMT:winapinls.obj
 0002:00005d30       ??_C@_1M@NDPIFLFI@?$AAs?$AAe?$AA?9?$AAn?$AAo?$AA?$AA@ 000000018002cd30     LIBCMT:winapinls.obj
 0002:00005d40       ??_C@_1M@DANKKHJ@?$AAs?$AAe?$AA?9?$AAs?$AAe?$AA?$AA@ 000000018002cd40     LIBCMT:winapinls.obj
 0002:00005d50       ??_C@_1M@PNBLONPJ@?$AAs?$AAk?$AA?9?$AAs?$AAk?$AA?$AA@ 000000018002cd50     LIBCMT:winapinls.obj
 0002:00005d60       ??_C@_1M@LFMODOAL@?$AAs?$AAl?$AA?9?$AAs?$AAi?$AA?$AA@ 000000018002cd60     LIBCMT:winapinls.obj
 0002:00005d70       ??_C@_1O@DFKOMPG@?$AAs?$AAm?$AAa?$AA?9?$AAn?$AAo?$AA?$AA@ 000000018002cd70     LIBCMT:winapinls.obj
 0002:00005d80       ??_C@_1O@NDKPBNNH@?$AAs?$AAm?$AAa?$AA?9?$AAs?$AAe?$AA?$AA@ 000000018002cd80     LIBCMT:winapinls.obj
 0002:00005d90       ??_C@_1O@PLLKBHAB@?$AAs?$AAm?$AAj?$AA?9?$AAn?$AAo?$AA?$AA@ 000000018002cd90     LIBCMT:winapinls.obj
 0002:00005da0       ??_C@_1O@CLEPOGCA@?$AAs?$AAm?$AAj?$AA?9?$AAs?$AAe?$AA?$AA@ 000000018002cda0     LIBCMT:winapinls.obj
 0002:00005db0       ??_C@_1O@DLGJGKMK@?$AAs?$AAm?$AAn?$AA?9?$AAf?$AAi?$AA?$AA@ 000000018002cdb0     LIBCMT:winapinls.obj
 0002:00005dc0       ??_C@_1O@OJDJGAJC@?$AAs?$AAm?$AAs?$AA?9?$AAf?$AAi?$AA?$AA@ 000000018002cdc0     LIBCMT:winapinls.obj
 0002:00005dd0       ??_C@_1M@BOFOGHPB@?$AAs?$AAq?$AA?9?$AAa?$AAl?$AA?$AA@ 000000018002cdd0     LIBCMT:winapinls.obj
 0002:00005de0       ??_C@_1BG@LJBBIPGB@?$AAs?$AAr?$AA?9?$AAb?$AAa?$AA?9?$AAc?$AAy?$AAr?$AAl?$AA?$AA@ 000000018002cde0     LIBCMT:winapinls.obj
 0002:00005df8       ??_C@_1BG@JLBENFOE@?$AAs?$AAr?$AA?9?$AAb?$AAa?$AA?9?$AAl?$AAa?$AAt?$AAn?$AA?$AA@ 000000018002cdf8     LIBCMT:winapinls.obj
 0002:00005e10       ??_C@_1BG@KODPNHE@?$AAs?$AAr?$AA?9?$AAs?$AAp?$AA?9?$AAc?$AAy?$AAr?$AAl?$AA?$AA@ 000000018002ce10     LIBCMT:winapinls.obj
 0002:00005e28       ??_C@_1BG@CIOGKHPB@?$AAs?$AAr?$AA?9?$AAs?$AAp?$AA?9?$AAl?$AAa?$AAt?$AAn?$AA?$AA@ 000000018002ce28     LIBCMT:winapinls.obj
 0002:00005e40       ??_C@_1M@NGFJLMAC@?$AAs?$AAv?$AA?9?$AAf?$AAi?$AA?$AA@ 000000018002ce40     LIBCMT:winapinls.obj
 0002:00005e50       ??_C@_1M@MPJEJAJC@?$AAs?$AAv?$AA?9?$AAs?$AAe?$AA?$AA@ 000000018002ce50     LIBCMT:winapinls.obj
 0002:00005e60       ??_C@_1M@MPNDHLFK@?$AAs?$AAw?$AA?9?$AAk?$AAe?$AA?$AA@ 000000018002ce60     LIBCMT:winapinls.obj
 0002:00005e70       ??_C@_1O@KOHBJJI@?$AAs?$AAy?$AAr?$AA?9?$AAs?$AAy?$AA?$AA@ 000000018002ce70     LIBCMT:winapinls.obj
 0002:00005e80       ??_C@_1M@LDCEFHA@?$AAt?$AAa?$AA?9?$AAi?$AAn?$AA?$AA@ 000000018002ce80     LIBCMT:winapinls.obj
 0002:00005e90       ??_C@_1M@CNJOFAK@?$AAt?$AAe?$AA?9?$AAi?$AAn?$AA?$AA@ 000000018002ce90     LIBCMT:winapinls.obj
 0002:00005ea0       ??_C@_1M@GNAECACD@?$AAt?$AAh?$AA?9?$AAt?$AAh?$AA?$AA@ 000000018002cea0     LIBCMT:winapinls.obj
 0002:00005eb0       ??_C@_1M@CHBIHOJO@?$AAt?$AAn?$AA?9?$AAz?$AAa?$AA?$AA@ 000000018002ceb0     LIBCMT:winapinls.obj
 0002:00005ec0       ??_C@_1M@GCCMIGPJ@?$AAt?$AAr?$AA?9?$AAt?$AAr?$AA?$AA@ 000000018002cec0     LIBCMT:winapinls.obj
 0002:00005ed0       ??_C@_1M@CELMCNBK@?$AAt?$AAt?$AA?9?$AAr?$AAu?$AA?$AA@ 000000018002ced0     LIBCMT:winapinls.obj
 0002:00005ee0       ??_C@_1M@KLMCELGA@?$AAu?$AAk?$AA?9?$AAu?$AAa?$AA?$AA@ 000000018002cee0     LIBCMT:winapinls.obj
 0002:00005ef0       ??_C@_1M@EPAJJAJF@?$AAu?$AAr?$AA?9?$AAp?$AAk?$AA?$AA@ 000000018002cef0     LIBCMT:winapinls.obj
 0002:00005f00       ??_C@_1BG@GEGPMCDJ@?$AAu?$AAz?$AA?9?$AAu?$AAz?$AA?9?$AAc?$AAy?$AAr?$AAl?$AA?$AA@ 000000018002cf00     LIBCMT:winapinls.obj
 0002:00005f18       ??_C@_1BG@EGGKJILM@?$AAu?$AAz?$AA?9?$AAu?$AAz?$AA?9?$AAl?$AAa?$AAt?$AAn?$AA?$AA@ 000000018002cf18     LIBCMT:winapinls.obj
 0002:00005f30       ??_C@_1M@GFOCLFF@?$AAv?$AAi?$AA?9?$AAv?$AAn?$AA?$AA@ 000000018002cf30     LIBCMT:winapinls.obj
 0002:00005f40       ??_C@_1M@CPAMEDFI@?$AAx?$AAh?$AA?9?$AAz?$AAa?$AA?$AA@ 000000018002cf40     LIBCMT:winapinls.obj
 0002:00005f50       ??_C@_1O@EBKIFIGN@?$AAz?$AAh?$AA?9?$AAc?$AAh?$AAs?$AA?$AA@ 000000018002cf50     LIBCMT:winapinls.obj
 0002:00005f60       ??_C@_1O@NMHPGANE@?$AAz?$AAh?$AA?9?$AAc?$AAh?$AAt?$AA?$AA@ 000000018002cf60     LIBCMT:winapinls.obj
 0002:00005f70       ??_C@_1M@LPINJOMC@?$AAz?$AAh?$AA?9?$AAc?$AAn?$AA?$AA@ 000000018002cf70     LIBCMT:winapinls.obj
 0002:00005f80       ??_C@_1M@OCJEJODD@?$AAz?$AAh?$AA?9?$AAh?$AAk?$AA?$AA@ 000000018002cf80     LIBCMT:winapinls.obj
 0002:00005f90       ??_C@_1M@DNDLJINH@?$AAz?$AAh?$AA?9?$AAm?$AAo?$AA?$AA@ 000000018002cf90     LIBCMT:winapinls.obj
 0002:00005fa0       ??_C@_1M@MBFDNDND@?$AAz?$AAh?$AA?9?$AAs?$AAg?$AA?$AA@ 000000018002cfa0     LIBCMT:winapinls.obj
 0002:00005fb0       ??_C@_1M@IMEPLEPE@?$AAz?$AAh?$AA?9?$AAt?$AAw?$AA?$AA@ 000000018002cfb0     LIBCMT:winapinls.obj
 0002:00005fc0       ??_C@_1M@BBGHNHJP@?$AAz?$AAu?$AA?9?$AAz?$AAa?$AA?$AA@ 000000018002cfc0     LIBCMT:winapinls.obj
 0002:00005fcc       ??_C@_04EIAKFFMI@sqrt?$AA@ 000000018002cfcc     LIBCMT:sqrt.obj
 0002:00005fe8       ??_C@_1BI@BGOHAHKC@?$AAm?$AAs?$AAc?$AAo?$AAr?$AAe?$AAe?$AA?4?$AAd?$AAl?$AAl?$AA?$AA@ 000000018002cfe8     LIBCMT:crt0dat.obj
 0002:00006000       ??_C@_0P@MIGLKIOC@CorExitProcess?$AA@ 000000018002d000     LIBCMT:crt0dat.obj
 0002:00006010       ??_C@_06OJHGLDPL@?$CInull?$CJ?$AA@ 000000018002d010     LIBCMT:output.obj
 0002:00006018       ??_C@_1O@CEDCILHN@?$AA?$CI?$AAn?$AAu?$AAl?$AAl?$AA?$CJ?$AA?$AA@ 000000018002d018     LIBCMT:output.obj
 0002:00006030       __lookuptable              000000018002d030     LIBCMT:output.obj
 0002:00006200       ??_C@_1FK@PGACCAFB@?$AAR?$AA6?$AA0?$AA0?$AA2?$AA?$AN?$AA?6?$AA?9?$AA?5?$AAf?$AAl?$AAo?$AAa?$AAt?$AAi?$AAn?$AAg?$AA?5?$AAp?$AAo?$AAi?$AAn?$AAt?$AA?5?$AAs?$AAu?$AAp?$AAp?$AAo?$AAr?$AAt?$AA?5@ 000000018002d200     LIBCMT:crt0msg.obj
 0002:00006260       ??_C@_1FE@LLNEDJMD@?$AAR?$AA6?$AA0?$AA0?$AA8?$AA?$AN?$AA?6?$AA?9?$AA?5?$AAn?$AAo?$AAt?$AA?5?$AAe?$AAn?$AAo?$AAu?$AAg?$AAh?$AA?5?$AAs?$AAp?$AAa?$AAc?$AAe?$AA?5?$AAf?$AAo?$AAr?$AA?5?$AAa?$AAr@ 000000018002d260     LIBCMT:crt0msg.obj
 0002:000062c0       ??_C@_1FI@HONFMGBI@?$AAR?$AA6?$AA0?$AA0?$AA9?$AA?$AN?$AA?6?$AA?9?$AA?5?$AAn?$AAo?$AAt?$AA?5?$AAe?$AAn?$AAo?$AAu?$AAg?$AAh?$AA?5?$AAs?$AAp?$AAa?$AAc?$AAe?$AA?5?$AAf?$AAo?$AAr?$AA?5?$AAe?$AAn@ 000000018002d2c0     LIBCMT:crt0msg.obj
 0002:00006320       ??_C@_1EG@BEHAGFJD@?$AAR?$AA6?$AA0?$AA1?$AA0?$AA?$AN?$AA?6?$AA?9?$AA?5?$AAa?$AAb?$AAo?$AAr?$AAt?$AA?$CI?$AA?$CJ?$AA?5?$AAh?$AAa?$AAs?$AA?5?$AAb?$AAe?$AAe?$AAn?$AA?5?$AAc?$AAa?$AAl?$AAl?$AAe?$AAd@ 000000018002d320     LIBCMT:crt0msg.obj
 0002:00006370       ??_C@_1FI@LOGNIKDM@?$AAR?$AA6?$AA0?$AA1?$AA6?$AA?$AN?$AA?6?$AA?9?$AA?5?$AAn?$AAo?$AAt?$AA?5?$AAe?$AAn?$AAo?$AAu?$AAg?$AAh?$AA?5?$AAs?$AAp?$AAa?$AAc?$AAe?$AA?5?$AAf?$AAo?$AAr?$AA?5?$AAt?$AAh@ 000000018002d370     LIBCMT:crt0msg.obj
 0002:000063d0       ??_C@_1FK@BEOGODMC@?$AAR?$AA6?$AA0?$AA1?$AA7?$AA?$AN?$AA?6?$AA?9?$AA?5?$AAu?$AAn?$AAe?$AAx?$AAp?$AAe?$AAc?$AAt?$AAe?$AAd?$AA?5?$AAm?$AAu?$AAl?$AAt?$AAi?$AAt?$AAh?$AAr?$AAe?$AAa?$AAd?$AA?5@ 000000018002d3d0     LIBCMT:crt0msg.obj
 0002:00006430       ??_C@_1EC@JIBHAOPH@?$AAR?$AA6?$AA0?$AA1?$AA8?$AA?$AN?$AA?6?$AA?9?$AA?5?$AAu?$AAn?$AAe?$AAx?$AAp?$AAe?$AAc?$AAt?$AAe?$AAd?$AA?5?$AAh?$AAe?$AAa?$AAp?$AA?5?$AAe?$AAr?$AAr?$AAo?$AAr?$AA?$AN?$AA?6@ 000000018002d430     LIBCMT:crt0msg.obj
 0002:00006480       ??_C@_1FC@ECHBIFBC@?$AAR?$AA6?$AA0?$AA1?$AA9?$AA?$AN?$AA?6?$AA?9?$AA?5?$AAu?$AAn?$AAa?$AAb?$AAl?$AAe?$AA?5?$AAt?$AAo?$AA?5?$AAo?$AAp?$AAe?$AAn?$AA?5?$AAc?$AAo?$AAn?$AAs?$AAo?$AAl?$AAe?$AA?5@ 000000018002d480     LIBCMT:crt0msg.obj
 0002:000064e0       ??_C@_1GK@FHCKBEFA@?$AAR?$AA6?$AA0?$AA2?$AA4?$AA?$AN?$AA?6?$AA?9?$AA?5?$AAn?$AAo?$AAt?$AA?5?$AAe?$AAn?$AAo?$AAu?$AAg?$AAh?$AA?5?$AAs?$AAp?$AAa?$AAc?$AAe?$AA?5?$AAf?$AAo?$AAr?$AA?5?$AA_?$AAo@ 000000018002d4e0     LIBCMT:crt0msg.obj
 0002:00006550       ??_C@_1EM@MAADIHMB@?$AAR?$AA6?$AA0?$AA2?$AA5?$AA?$AN?$AA?6?$AA?9?$AA?5?$AAp?$AAu?$AAr?$AAe?$AA?5?$AAv?$AAi?$AAr?$AAt?$AAu?$AAa?$AAl?$AA?5?$AAf?$AAu?$AAn?$AAc?$AAt?$AAi?$AAo?$AAn?$AA?5?$AAc@ 000000018002d550     LIBCMT:crt0msg.obj
 0002:000065a0       ??_C@_1GK@MCAAGJMO@?$AAR?$AA6?$AA0?$AA2?$AA6?$AA?$AN?$AA?6?$AA?9?$AA?5?$AAn?$AAo?$AAt?$AA?5?$AAe?$AAn?$AAo?$AAu?$AAg?$AAh?$AA?5?$AAs?$AAp?$AAa?$AAc?$AAe?$AA?5?$AAf?$AAo?$AAr?$AA?5?$AAs?$AAt@ 000000018002d5a0     LIBCMT:crt0msg.obj
 0002:00006610       ??_C@_1GK@MFGOKLAG@?$AAR?$AA6?$AA0?$AA2?$AA7?$AA?$AN?$AA?6?$AA?9?$AA?5?$AAn?$AAo?$AAt?$AA?5?$AAe?$AAn?$AAo?$AAu?$AAg?$AAh?$AA?5?$AAs?$AAp?$AAa?$AAc?$AAe?$AA?5?$AAf?$AAo?$AAr?$AA?5?$AAl?$AAo@ 000000018002d610     LIBCMT:crt0msg.obj
 0002:00006680       ??_C@_1EK@HHFLMAOL@?$AAR?$AA6?$AA0?$AA2?$AA8?$AA?$AN?$AA?6?$AA?9?$AA?5?$AAu?$AAn?$AAa?$AAb?$AAl?$AAe?$AA?5?$AAt?$AAo?$AA?5?$AAi?$AAn?$AAi?$AAt?$AAi?$AAa?$AAl?$AAi?$AAz?$AAe?$AA?5?$AAh?$AAe@ 000000018002d680     LIBCMT:crt0msg.obj
 0002:000066d0       ??_C@_1DO@BMFCDCD@?$AAR?$AA6?$AA0?$AA3?$AA0?$AA?$AN?$AA?6?$AA?9?$AA?5?$AAC?$AAR?$AAT?$AA?5?$AAn?$AAo?$AAt?$AA?5?$AAi?$AAn?$AAi?$AAt?$AAi?$AAa?$AAl?$AAi?$AAz?$AAe?$AAd?$AA?$AN?$AA?6?$AA?$AA@ 000000018002d6d0     LIBCMT:crt0msg.obj
 0002:00006710       ??_C@_1MG@ENCOOIDF@?$AAR?$AA6?$AA0?$AA3?$AA1?$AA?$AN?$AA?6?$AA?9?$AA?5?$AAA?$AAt?$AAt?$AAe?$AAm?$AAp?$AAt?$AA?5?$AAt?$AAo?$AA?5?$AAi?$AAn?$AAi?$AAt?$AAi?$AAa?$AAl?$AAi?$AAz?$AAe?$AA?5?$AAt@ 000000018002d710     LIBCMT:crt0msg.obj
 0002:000067e0       ??_C@_1GG@GOPILAJP@?$AAR?$AA6?$AA0?$AA3?$AA2?$AA?$AN?$AA?6?$AA?9?$AA?5?$AAn?$AAo?$AAt?$AA?5?$AAe?$AAn?$AAo?$AAu?$AAg?$AAh?$AA?5?$AAs?$AAp?$AAa?$AAc?$AAe?$AA?5?$AAf?$AAo?$AAr?$AA?5?$AAl?$AAo@ 000000018002d7e0     LIBCMT:crt0msg.obj
 0002:00006850       ??_C@_1BOO@KGEDBGAJ@?$AAR?$AA6?$AA0?$AA3?$AA3?$AA?$AN?$AA?6?$AA?9?$AA?5?$AAA?$AAt?$AAt?$AAe?$AAm?$AAp?$AAt?$AA?5?$AAt?$AAo?$AA?5?$AAu?$AAs?$AAe?$AA?5?$AAM?$AAS?$AAI?$AAL?$AA?5?$AAc?$AAo?$AAd@ 000000018002d850     LIBCMT:crt0msg.obj
 0002:00006a40       ??_C@_1GG@MKFPEKFO@?$AAR?$AA6?$AA0?$AA3?$AA4?$AA?$AN?$AA?6?$AA?9?$AA?5?$AAi?$AAn?$AAc?$AAo?$AAn?$AAs?$AAi?$AAs?$AAt?$AAe?$AAn?$AAt?$AA?5?$AAo?$AAn?$AAe?$AAx?$AAi?$AAt?$AA?5?$AAb?$AAe?$AAg@ 000000018002da40     LIBCMT:crt0msg.obj
 0002:00006aa8       ??_C@_1BO@BFCDCGC@?$AAD?$AAO?$AAM?$AAA?$AAI?$AAN?$AA?5?$AAe?$AAr?$AAr?$AAo?$AAr?$AA?$AN?$AA?6?$AA?$AA@ 000000018002daa8     LIBCMT:crt0msg.obj
 0002:00006ac8       ??_C@_1BK@KMOMNAAI@?$AAS?$AAI?$AAN?$AAG?$AA?5?$AAe?$AAr?$AAr?$AAo?$AAr?$AA?$AN?$AA?6?$AA?$AA@ 000000018002dac8     LIBCMT:crt0msg.obj
 0002:00006ae8       ??_C@_1BM@JBBEPPHI@?$AAT?$AAL?$AAO?$AAS?$AAS?$AA?5?$AAe?$AAr?$AAr?$AAo?$AAr?$AA?$AN?$AA?6?$AA?$AA@ 000000018002dae8     LIBCMT:crt0msg.obj
 0002:00006b04       ??_C@_15JNBOKNOG@?$AA?$AN?$AA?6?$AA?$AA@ 000000018002db04     LIBCMT:crt0msg.obj
 0002:00006b10       ??_C@_1BO@BKOMIGKJ@?$AAr?$AAu?$AAn?$AAt?$AAi?$AAm?$AAe?$AA?5?$AAe?$AAr?$AAr?$AAo?$AAr?$AA?5?$AA?$AA@ 000000018002db10     LIBCMT:crt0msg.obj
 0002:00006b30       ??_C@_1DE@JNGNBFGO@?$AAR?$AAu?$AAn?$AAt?$AAi?$AAm?$AAe?$AA?5?$AAE?$AAr?$AAr?$AAo?$AAr?$AA?$CB?$AA?6?$AA?6?$AAP?$AAr?$AAo?$AAg?$AAr?$AAa?$AAm?$AA?3?$AA?5?$AA?$AA@ 000000018002db30     LIBCMT:crt0msg.obj
 0002:00006b64       ??_C@_03KOEHGMDN@Sun?$AA@  000000018002db64     LIBCMT:nlsdata.obj
 0002:00006b68       ??_C@_03PDAGKDH@Mon?$AA@   000000018002db68     LIBCMT:nlsdata.obj
 0002:00006b6c       ??_C@_03NAGEINEP@Tue?$AA@  000000018002db6c     LIBCMT:nlsdata.obj
 0002:00006b70       ??_C@_03MHOMLAJA@Wed?$AA@  000000018002db70     LIBCMT:nlsdata.obj
 0002:00006b74       ??_C@_03IOFIKPDN@Thu?$AA@  000000018002db74     LIBCMT:nlsdata.obj
 0002:00006b78       ??_C@_03IDIOELNC@Fri?$AA@  000000018002db78     LIBCMT:nlsdata.obj
 0002:00006b7c       ??_C@_03FEFJNEK@Sat?$AA@   000000018002db7c     LIBCMT:nlsdata.obj
 0002:00006b80       ??_C@_06OOPIFAJ@Sunday?$AA@ 000000018002db80     LIBCMT:nlsdata.obj
 0002:00006b88       ??_C@_06JLEDEDGH@Monday?$AA@ 000000018002db88     LIBCMT:nlsdata.obj
 0002:00006b90       ??_C@_07BAAGCFCM@Tuesday?$AA@ 000000018002db90     LIBCMT:nlsdata.obj
 0002:00006b98       ??_C@_09DLIGFAKA@Wednesday?$AA@ 000000018002db98     LIBCMT:nlsdata.obj
 0002:00006ba8       ??_C@_08HACCIKIA@Thursday?$AA@ 000000018002dba8     LIBCMT:nlsdata.obj
 0002:00006bb4       ??_C@_06JECMNKMI@Friday?$AA@ 000000018002dbb4     LIBCMT:nlsdata.obj
 0002:00006bc0       ??_C@_08INBOOONO@Saturday?$AA@ 000000018002dbc0     LIBCMT:nlsdata.obj
 0002:00006bcc       ??_C@_03JIHJHPIE@Jan?$AA@  000000018002dbcc     LIBCMT:nlsdata.obj
 0002:00006bd0       ??_C@_03HJBDCHOM@Feb?$AA@  000000018002dbd0     LIBCMT:nlsdata.obj
 0002:00006bd4       ??_C@_03ODNJBKGA@Mar?$AA@  000000018002dbd4     LIBCMT:nlsdata.obj
 0002:00006bd8       ??_C@_03LEOLGMJP@Apr?$AA@  000000018002dbd8     LIBCMT:nlsdata.obj
 0002:00006bdc       ??_C@_03CNMDKL@May?$AA@    000000018002dbdc     LIBCMT:nlsdata.obj
 0002:00006be0       ??_C@_03IDFGHECI@Jun?$AA@  000000018002dbe0     LIBCMT:nlsdata.obj
 0002:00006be4       ??_C@_03LBGABGKK@Jul?$AA@  000000018002dbe4     LIBCMT:nlsdata.obj
 0002:00006be8       ??_C@_03IFJFEIGA@Aug?$AA@  000000018002dbe8     LIBCMT:nlsdata.obj
 0002:00006bec       ??_C@_03GGCAPAJC@Sep?$AA@  000000018002dbec     LIBCMT:nlsdata.obj
 0002:00006bf0       ??_C@_03BMAOKBAD@Oct?$AA@  000000018002dbf0     LIBCMT:nlsdata.obj
 0002:00006bf4       ??_C@_03JPJOFNIA@Nov?$AA@  000000018002dbf4     LIBCMT:nlsdata.obj
 0002:00006bf8       ??_C@_03MKABNOCG@Dec?$AA@  000000018002dbf8     LIBCMT:nlsdata.obj
 0002:00006c00       ??_C@_07CGJPFGJA@January?$AA@ 000000018002dc00     LIBCMT:nlsdata.obj
 0002:00006c08       ??_C@_08GNJGEPFN@February?$AA@ 000000018002dc08     LIBCMT:nlsdata.obj
 0002:00006c14       ??_C@_05HPCKOFNC@March?$AA@ 000000018002dc14     LIBCMT:nlsdata.obj
 0002:00006c1c       ??_C@_05DMJDNLEJ@April?$AA@ 000000018002dc1c     LIBCMT:nlsdata.obj
 0002:00006c24       ??_C@_04CNLMGBGM@June?$AA@ 000000018002dc24     LIBCMT:nlsdata.obj
 0002:00006c2c       ??_C@_04MIEPOIFP@July?$AA@ 000000018002dc2c     LIBCMT:nlsdata.obj
 0002:00006c34       ??_C@_06LBBHFDDG@August?$AA@ 000000018002dc34     LIBCMT:nlsdata.obj
 0002:00006c40       ??_C@_09BHHEALKD@September?$AA@ 000000018002dc40     LIBCMT:nlsdata.obj
 0002:00006c50       ??_C@_07JJNFCEND@October?$AA@ 000000018002dc50     LIBCMT:nlsdata.obj
 0002:00006c58       ??_C@_08HCHEGEOA@November?$AA@ 000000018002dc58     LIBCMT:nlsdata.obj
 0002:00006c68       ??_C@_08EDHMEBNP@December?$AA@ 000000018002dc68     LIBCMT:nlsdata.obj
 0002:00006c74       ??_C@_02DEDBPAFC@AM?$AA@   000000018002dc74     LIBCMT:nlsdata.obj
 0002:00006c78       ??_C@_02CJNFDJBF@PM?$AA@   000000018002dc78     LIBCMT:nlsdata.obj
 0002:00006c80       ??_C@_08BPBNCDIB@MM?1dd?1yy?$AA@ 000000018002dc80     LIBCMT:nlsdata.obj
 0002:00006c90       ??_C@_0BE@CKGJFCPC@dddd?0?5MMMM?5dd?0?5yyyy?$AA@ 000000018002dc90     LIBCMT:nlsdata.obj
 0002:00006ca8       ??_C@_08JCCMCCIL@HH?3mm?3ss?$AA@ 000000018002dca8     LIBCMT:nlsdata.obj
 0002:00006cb8       ??_C@_17MBGCMIPB@?$AAS?$AAu?$AAn?$AA?$AA@ 000000018002dcb8     LIBCMT:nlsdata.obj
 0002:00006cc0       ??_C@_17KBOMKBF@?$AAM?$AAo?$AAn?$AA?$AA@ 000000018002dcc0     LIBCMT:nlsdata.obj
 0002:00006cc8       ??_C@_17BMKGEGOJ@?$AAT?$AAu?$AAe?$AA?$AA@ 000000018002dcc8     LIBCMT:nlsdata.obj
 0002:00006cd0       ??_C@_17CJEDCEPE@?$AAW?$AAe?$AAd?$AA?$AA@ 000000018002dcd0     LIBCMT:nlsdata.obj
 0002:00006cd8       ??_C@_17PDPHAADD@?$AAT?$AAh?$AAu?$AA?$AA@ 000000018002dcd8     LIBCMT:nlsdata.obj
 0002:00006ce0       ??_C@_17HFOLPPLP@?$AAF?$AAr?$AAi?$AA?$AA@ 000000018002dce0     LIBCMT:nlsdata.obj
 0002:00006ce8       ??_C@_17GGIBDPIH@?$AAS?$AAa?$AAt?$AA?$AA@ 000000018002dce8     LIBCMT:nlsdata.obj
 0002:00006cf0       ??_C@_1O@IHNHDHPB@?$AAS?$AAu?$AAn?$AAd?$AAa?$AAy?$AA?$AA@ 000000018002dcf0     LIBCMT:nlsdata.obj
 0002:00006d00       ??_C@_1O@MMNBFLIA@?$AAM?$AAo?$AAn?$AAd?$AAa?$AAy?$AA?$AA@ 000000018002dd00     LIBCMT:nlsdata.obj
 0002:00006d10       ??_C@_1BA@ENFBFFEK@?$AAT?$AAu?$AAe?$AAs?$AAd?$AAa?$AAy?$AA?$AA@ 000000018002dd10     LIBCMT:nlsdata.obj
 0002:00006d20       ??_C@_1BE@EBOGMDOH@?$AAW?$AAe?$AAd?$AAn?$AAe?$AAs?$AAd?$AAa?$AAy?$AA?$AA@ 000000018002dd20     LIBCMT:nlsdata.obj
 0002:00006d38       ??_C@_1BC@HHMNLIHE@?$AAT?$AAh?$AAu?$AAr?$AAs?$AAd?$AAa?$AAy?$AA?$AA@ 000000018002dd38     LIBCMT:nlsdata.obj
 0002:00006d50       ??_C@_1O@PDICJHAG@?$AAF?$AAr?$AAi?$AAd?$AAa?$AAy?$AA?$AA@ 000000018002dd50     LIBCMT:nlsdata.obj
 0002:00006d60       ??_C@_1BC@ENMNNPAJ@?$AAS?$AAa?$AAt?$AAu?$AAr?$AAd?$AAa?$AAy?$AA?$AA@ 000000018002dd60     LIBCMT:nlsdata.obj
 0002:00006d78       ??_C@_17DKNBKCHM@?$AAJ?$AAa?$AAn?$AA?$AA@ 000000018002dd78     LIBCMT:nlsdata.obj
 0002:00006d80       ??_C@_17LMDJEKJN@?$AAF?$AAe?$AAb?$AA?$AA@ 000000018002dd80     LIBCMT:nlsdata.obj
 0002:00006d88       ??_C@_17CKNLEDEC@?$AAM?$AAa?$AAr?$AA?$AA@ 000000018002dd88     LIBCMT:nlsdata.obj
 0002:00006d90       ??_C@_17LFPOIHDD@?$AAA?$AAp?$AAr?$AA?$AA@ 000000018002dd90     LIBCMT:nlsdata.obj
 0002:00006d98       ??_C@_17PNNKMEED@?$AAM?$AAa?$AAy?$AA?$AA@ 000000018002dd98     LIBCMT:nlsdata.obj
 0002:00006da0       ??_C@_17KCJGOCPB@?$AAJ?$AAu?$AAn?$AA?$AA@ 000000018002dda0     LIBCMT:nlsdata.obj
 0002:00006da8       ??_C@_17IJPCKHK@?$AAJ?$AAu?$AAl?$AA?$AA@ 000000018002dda8     LIBCMT:nlsdata.obj
 0002:00006db0       ??_C@_17ICPELBCN@?$AAA?$AAu?$AAg?$AA?$AA@ 000000018002ddb0     LIBCMT:nlsdata.obj
 0002:00006db8       ??_C@_17HCHCOKMG@?$AAS?$AAe?$AAp?$AA?$AA@ 000000018002ddb8     LIBCMT:nlsdata.obj
 0002:00006dc0       ??_C@_17FNLKOI@?$AAO?$AAc?$AAt?$AA?$AA@ 000000018002ddc0     LIBCMT:nlsdata.obj
 0002:00006dc8       ??_C@_17BBDMLCIG@?$AAN?$AAo?$AAv?$AA?$AA@ 000000018002ddc8     LIBCMT:nlsdata.obj
 0002:00006dd0       ??_C@_17EGKACKIF@?$AAD?$AAe?$AAc?$AA?$AA@ 000000018002ddd0     LIBCMT:nlsdata.obj
 0002:00006dd8       ??_C@_1BA@EFMEIEBA@?$AAJ?$AAa?$AAn?$AAu?$AAa?$AAr?$AAy?$AA?$AA@ 000000018002ddd8     LIBCMT:nlsdata.obj
 0002:00006de8       ??_C@_1BC@JGDDFFAM@?$AAF?$AAe?$AAb?$AAr?$AAu?$AAa?$AAr?$AAy?$AA?$AA@ 000000018002dde8     LIBCMT:nlsdata.obj
 0002:00006e00       ??_C@_1M@IKEENEDF@?$AAM?$AAa?$AAr?$AAc?$AAh?$AA?$AA@ 000000018002de00     LIBCMT:nlsdata.obj
 0002:00006e10       ??_C@_1M@GJNLMHFD@?$AAA?$AAp?$AAr?$AAi?$AAl?$AA?$AA@ 000000018002de10     LIBCMT:nlsdata.obj
 0002:00006e20       ??_C@_19EPFLPGAP@?$AAJ?$AAu?$AAn?$AAe?$AA?$AA@ 000000018002de20     LIBCMT:nlsdata.obj
 0002:00006e30       ??_C@_19BIFMLPCD@?$AAJ?$AAu?$AAl?$AAy?$AA?$AA@ 000000018002de30     LIBCMT:nlsdata.obj
 0002:00006e40       ??_C@_1O@PAHLKOAC@?$AAA?$AAu?$AAg?$AAu?$AAs?$AAt?$AA?$AA@ 000000018002de40     LIBCMT:nlsdata.obj
 0002:00006e50       ??_C@_1BE@DKAAMBJL@?$AAS?$AAe?$AAp?$AAt?$AAe?$AAm?$AAb?$AAe?$AAr?$AA?$AA@ 000000018002de50     LIBCMT:nlsdata.obj
 0002:00006e68       ??_C@_1BA@EPANDLNG@?$AAO?$AAc?$AAt?$AAo?$AAb?$AAe?$AAr?$AA?$AA@ 000000018002de68     LIBCMT:nlsdata.obj
 0002:00006e78       ??_C@_1BC@BGLIFPF@?$AAN?$AAo?$AAv?$AAe?$AAm?$AAb?$AAe?$AAr?$AA?$AA@ 000000018002de78     LIBCMT:nlsdata.obj
 0002:00006e90       ??_C@_1BC@FEMKIFH@?$AAD?$AAe?$AAc?$AAe?$AAm?$AAb?$AAe?$AAr?$AA?$AA@ 000000018002de90     LIBCMT:nlsdata.obj
 0002:00006ea4       ??_C@_15ODEHAHHF@?$AAA?$AAM?$AA?$AA@ 000000018002dea4     LIBCMT:nlsdata.obj
 0002:00006eac       ??_C@_15CLMNNGEL@?$AAP?$AAM?$AA?$AA@ 000000018002deac     LIBCMT:nlsdata.obj
 0002:00006eb8       ??_C@_1BC@IEBCMHCM@?$AAM?$AAM?$AA?1?$AAd?$AAd?$AA?1?$AAy?$AAy?$AA?$AA@ 000000018002deb8     LIBCMT:nlsdata.obj
 0002:00006ed0       ??_C@_1CI@KNAKOEBC@?$AAd?$AAd?$AAd?$AAd?$AA?0?$AA?5?$AAM?$AAM?$AAM?$AAM?$AA?5?$AAd?$AAd?$AA?0?$AA?5?$AAy?$AAy?$AAy?$AAy?$AA?$AA@ 000000018002ded0     LIBCMT:nlsdata.obj
 0002:00006ef8       ??_C@_1BC@GDGBMEMK@?$AAH?$AAH?$AA?3?$AAm?$AAm?$AA?3?$AAs?$AAs?$AA?$AA@ 000000018002def8     LIBCMT:nlsdata.obj
 0002:00006f10       ??_C@_1BG@GOEBHBDC@?$AAU?$AAS?$AAE?$AAR?$AA3?$AA2?$AA?4?$AAD?$AAL?$AAL?$AA?$AA@ 000000018002df10     LIBCMT:crtmboxw.obj
 0002:00006f28       ??_C@_0M@DLDCCGNP@MessageBoxW?$AA@ 000000018002df28     LIBCMT:crtmboxw.obj
 0002:00006f38       ??_C@_0BA@HNOPNCHB@GetActiveWindow?$AA@ 000000018002df38     LIBCMT:crtmboxw.obj
 0002:00006f48       ??_C@_0BD@HHGDFDBJ@GetLastActivePopup?$AA@ 000000018002df48     LIBCMT:crtmboxw.obj
 0002:00006f60       ??_C@_0BK@DEKFELLI@GetUserObjectInformationW?$AA@ 000000018002df60     LIBCMT:crtmboxw.obj
 0002:00006f80       ??_C@_0BI@DFKBFLJE@GetProcessWindowStation?$AA@ 000000018002df80     LIBCMT:crtmboxw.obj
 0002:00006fc0       __lc_category              000000018002dfc0     LIBCMT:wsetloca.obj
 0002:00007050       ??_C@_1O@GIFLHMA@?$AAL?$AAC?$AA_?$AAA?$AAL?$AAL?$AA?$AA@ 000000018002e050     LIBCMT:wsetloca.obj
 0002:00007060       ??_C@_1BG@PPOMIBNJ@?$AAL?$AAC?$AA_?$AAC?$AAO?$AAL?$AAL?$AAA?$AAT?$AAE?$AA?$AA@ 000000018002e060     LIBCMT:wsetloca.obj
 0002:00007078       ??_C@_1BC@FFJGAPJM@?$AAL?$AAC?$AA_?$AAC?$AAT?$AAY?$AAP?$AAE?$AA?$AA@ 000000018002e078     LIBCMT:wsetloca.obj
 0002:00007090       ??_C@_1BI@PCKFNJFB@?$AAL?$AAC?$AA_?$AAM?$AAO?$AAN?$AAE?$AAT?$AAA?$AAR?$AAY?$AA?$AA@ 000000018002e090     LIBCMT:wsetloca.obj
 0002:000070a8       ??_C@_1BG@ENIEDKID@?$AAL?$AAC?$AA_?$AAN?$AAU?$AAM?$AAE?$AAR?$AAI?$AAC?$AA?$AA@ 000000018002e0a8     LIBCMT:wsetloca.obj
 0002:000070c0       ??_C@_1BA@HAAOMIIG@?$AAL?$AAC?$AA_?$AAT?$AAI?$AAM?$AAE?$AA?$AA@ 000000018002e0c0     LIBCMT:wsetloca.obj
 0002:00007150       ??_C@_15NBPDDFIP@?$AA?$DN?$AA?$DL?$AA?$AA@ 000000018002e150     LIBCMT:wsetloca.obj
 0002:00007158       ??_C@_13PJJBFPED@?$AA?$DL?$AA?$AA@ 000000018002e158     LIBCMT:wsetloca.obj
 0002:0000715c       ??_C@_13NMPKAAJP@?$AA?$DN?$AA?$AA@ 000000018002e15c     LIBCMT:wsetloca.obj
 0002:00007160       ??_C@_13FHBKNHDA@?$AAC?$AA?$AA@ 000000018002e160     LIBCMT:wsetloca.obj
 0002:00007168       ??_C@_17MBJJLFDM@?$AA_?$AA?4?$AA?0?$AA?$AA@ 000000018002e168     LIBCMT:wsetloca.obj
 0002:00007170       ??_C@_13ENNFDPBH@?$AA_?$AA?$AA@ 000000018002e170     LIBCMT:wsetloca.obj
 0002:00007174       ??_C@_13JOFGPIOO@?$AA?4?$AA?$AA@ 000000018002e174     LIBCMT:wsetloca.obj
 0002:00007180       _XcptActTab                000000018002e180     LIBCMT:winxfltr.obj
 0002:00007240       _XcptActTabCount           000000018002e240     LIBCMT:winxfltr.obj
 0002:00007244       _XcptActTabSize            000000018002e244     LIBCMT:winxfltr.obj
 0002:00007248       _First_FPE_Indx            000000018002e248     LIBCMT:winxfltr.obj
 0002:0000724c       _Num_FPE                   000000018002e24c     LIBCMT:winxfltr.obj
 0002:00007250       _pDestructExceptionObject  000000018002e250     LIBCMT:frame.obj
 0002:00007260       ??_7bad_exception@std@@6B@ 000000018002e260     LIBCMT:frame.obj
 0002:00007270       ??_C@_0O@DPKOEFFH@bad?5exception?$AA@ 000000018002e270     LIBCMT:frame.obj
 0002:00007280       ??_C@_05KLBDPFGC@e?$CL000?$AA@ 000000018002e280     LIBCMT:cvt.obj
 0002:00007288       ??_C@_03KHJOGHMM@exp?$AA@  000000018002e288     LIBCMT:fpexcept.obj
 0002:0000728c       ??_C@_03JGHBODFD@pow?$AA@  000000018002e28c     LIBCMT:fpexcept.obj
 0002:00007290       ??_C@_03MGHMBJCF@log?$AA@  000000018002e290     LIBCMT:fpexcept.obj
 0002:00007294       ??_C@_05HGHHAHAP@log10?$AA@ 000000018002e294     LIBCMT:fpexcept.obj
 0002:0000729c       ??_C@_04COOMCNPB@sinh?$AA@ 000000018002e29c     LIBCMT:fpexcept.obj
 0002:000072a4       ??_C@_04HPJJNFIM@cosh?$AA@ 000000018002e2a4     LIBCMT:fpexcept.obj
 0002:000072ac       ??_C@_04FJHINJAO@tanh?$AA@ 000000018002e2ac     LIBCMT:fpexcept.obj
 0002:000072b4       ??_C@_04FIHNOPOL@asin?$AA@ 000000018002e2b4     LIBCMT:fpexcept.obj
 0002:000072bc       ??_C@_04PDIFKINK@acos?$AA@ 000000018002e2bc     LIBCMT:fpexcept.obj
 0002:000072c4       ??_C@_04MLLJIGOK@atan?$AA@ 000000018002e2c4     LIBCMT:fpexcept.obj
 0002:000072cc       ??_C@_05KNGEOGJB@atan2?$AA@ 000000018002e2cc     LIBCMT:fpexcept.obj
 0002:000072d4       ??_C@_03BLEJJJBH@sin?$AA@  000000018002e2d4     LIBCMT:fpexcept.obj
 0002:000072d8       ??_C@_03LALBNOCG@cos?$AA@  000000018002e2d8     LIBCMT:fpexcept.obj
 0002:000072dc       ??_C@_03IIINPABG@tan?$AA@  000000018002e2dc     LIBCMT:fpexcept.obj
 0002:000072e0       ??_C@_04GFPJNGEK@ceil?$AA@ 000000018002e2e0     LIBCMT:fpexcept.obj
 0002:000072e8       ??_C@_05PBJFFIGL@floor?$AA@ 000000018002e2e8     LIBCMT:fpexcept.obj
 0002:000072f0       ??_C@_04ODHECPBC@fabs?$AA@ 000000018002e2f0     LIBCMT:fpexcept.obj
 0002:000072f8       ??_C@_04EHEDPDJG@modf?$AA@ 000000018002e2f8     LIBCMT:fpexcept.obj
 0002:00007300       ??_C@_05CEJMAHNP@ldexp?$AA@ 000000018002e300     LIBCMT:fpexcept.obj
 0002:00007308       ??_C@_05KBKMEMPO@_cabs?$AA@ 000000018002e308     LIBCMT:fpexcept.obj
 0002:00007310       ??_C@_04KEPJIHGP@fmod?$AA@ 000000018002e310     LIBCMT:fpexcept.obj
 0002:00007318       ??_C@_05GKKHEGJL@frexp?$AA@ 000000018002e318     LIBCMT:fpexcept.obj
 0002:00007320       ??_C@_03MJLDFKDL@_y0?$AA@  000000018002e320     LIBCMT:fpexcept.obj
 0002:00007324       ??_C@_03NAKIGLHK@_y1?$AA@  000000018002e324     LIBCMT:fpexcept.obj
 0002:00007328       ??_C@_03ONILCKOB@_yn?$AA@  000000018002e328     LIBCMT:fpexcept.obj
 0002:0000732c       ??_C@_05JGDBENOH@_logb?$AA@ 000000018002e32c     LIBCMT:fpexcept.obj
 0002:00007338       ??_C@_0L@KDOEJCKC@_nextafter?$AA@ 000000018002e338     LIBCMT:fpexcept.obj
 0002:00007348       __dnames                   000000018002e348     LIBCMT:timeset.obj
 0002:00007360       __mnames                   000000018002e360     LIBCMT:timeset.obj
 0002:00007390       __lookuptable_s            000000018002e390     LIBCMT:outputs.obj
 0002:00007718       ??_C@_08EHJDFFNH@__based?$CI?$AA@ 000000018002e718     LIBCMT:undname.obj
 0002:00007728       ??_C@_07KOLFKCDI@__cdecl?$AA@ 000000018002e728     LIBCMT:undname.obj
 0002:00007730       ??_C@_08GHMPAG@__pascal?$AA@ 000000018002e730     LIBCMT:undname.obj
 0002:00007740       ??_C@_09IFJBGAPI@__stdcall?$AA@ 000000018002e740     LIBCMT:undname.obj
 0002:00007750       ??_C@_0L@NPHFGOKO@__thiscall?$AA@ 000000018002e750     LIBCMT:undname.obj
 0002:00007760       ??_C@_0L@JMKHOMEK@__fastcall?$AA@ 000000018002e760     LIBCMT:undname.obj
 0002:00007770       ??_C@_0N@BCKKPABJ@__vectorcall?$AA@ 000000018002e770     LIBCMT:undname.obj
 0002:00007780       ??_C@_09HIJEGCPM@__clrcall?$AA@ 000000018002e780     LIBCMT:undname.obj
 0002:0000778c       ??_C@_06GHPCKEAG@__eabi?$AA@ 000000018002e78c     LIBCMT:undname.obj
 0002:00007798       ??_C@_07JOMMBBKO@__ptr64?$AA@ 000000018002e798     LIBCMT:undname.obj
 0002:000077a0       ??_C@_0L@PILCLIHE@__restrict?$AA@ 000000018002e7a0     LIBCMT:undname.obj
 0002:000077b0       ??_C@_0M@GFIIJFMG@__unaligned?$AA@ 000000018002e7b0     LIBCMT:undname.obj
 0002:000077c0       ??_C@_09DHDLOLLB@restrict?$CI?$AA@ 000000018002e7c0     LIBCMT:undname.obj
 0002:000077cc       ??_C@_04NIHEBCM@?5new?$AA@ 000000018002e7cc     LIBCMT:undname.obj
 0002:000077d8       ??_C@_07FPCDHGMM@?5delete?$AA@ 000000018002e7d8     LIBCMT:undname.obj
 0002:000077e0       ??_C@_01NEMOKFLO@?$DN?$AA@ 000000018002e7e0     LIBCMT:undname.obj
 0002:000077e4       ??_C@_02GPIOPFAK@?$DO?$DO?$AA@ 000000018002e7e4     LIBCMT:undname.obj
 0002:000077e8       ??_C@_02FODMEDOG@?$DM?$DM?$AA@ 000000018002e7e8     LIBCMT:undname.obj
 0002:000077ec       ??_C@_01DCLJPIOD@?$CB?$AA@ 000000018002e7ec     LIBCMT:undname.obj
 0002:000077f0       ??_C@_02EGOFBIJA@?$DN?$DN?$AA@ 000000018002e7f0     LIBCMT:undname.obj
 0002:000077f4       ??_C@_02FDNJECIE@?$CB?$DN?$AA@ 000000018002e7f4     LIBCMT:undname.obj
 0002:000077f8       ??_C@_02GPECMEKF@?$FL?$FN?$AA@ 000000018002e7f8     LIBCMT:undname.obj
 0002:00007800       ??_C@_08LHJFAFGD@operator?$AA@ 000000018002e800     LIBCMT:undname.obj
 0002:0000780c       ??_C@_02HBOOOICD@?9?$DO?$AA@ 000000018002e80c     LIBCMT:undname.obj
 0002:00007810       ??_C@_02ECNGHCIF@?$CL?$CL?$AA@ 000000018002e810     LIBCMT:undname.obj
 0002:00007814       ??_C@_02BAABKJLB@?9?9?$AA@ 000000018002e814     LIBCMT:undname.obj
 0002:00007818       ??_C@_01MIFGBAGJ@?$CL?$AA@ 000000018002e818     LIBCMT:undname.obj
 0002:0000781c       ??_C@_01HNPIGOCE@?$CG?$AA@ 000000018002e81c     LIBCMT:undname.obj
 0002:00007820       ??_C@_03MNHNFDLC@?9?$DO?$CK?$AA@ 000000018002e820     LIBCMT:undname.obj
 0002:00007824       ??_C@_01KMDKNFGN@?1?$AA@   000000018002e824     LIBCMT:undname.obj
 0002:00007828       ??_C@_01FGNFDNOH@?$CF?$AA@ 000000018002e828     LIBCMT:undname.obj
 0002:0000782c       ??_C@_01MNNFJEPP@?$DM?$AA@ 000000018002e82c     LIBCMT:undname.obj
 0002:00007830       ??_C@_02EHCHHCKH@?$DM?$DN?$AA@ 000000018002e830     LIBCMT:undname.obj
 0002:00007834       ??_C@_01PPODPGHN@?$DO?$AA@ 000000018002e834     LIBCMT:undname.obj
 0002:00007838       ??_C@_02EEKDKGMJ@?$DO?$DN?$AA@ 000000018002e838     LIBCMT:undname.obj
 0002:0000783c       ??_C@_01IHBHIGKO@?0?$AA@   000000018002e83c     LIBCMT:undname.obj
 0002:00007840       ??_C@_02HCKGKOFO@?$CI?$CJ?$AA@ 000000018002e840     LIBCMT:undname.obj
 0002:00007844       ??_C@_01PJKLJHI@?$HO?$AA@  000000018002e844     LIBCMT:undname.obj
 0002:00007848       ??_C@_01JKBOJNNK@?$FO?$AA@ 000000018002e848     LIBCMT:undname.obj
 0002:0000784c       ??_C@_01DNKMNLPK@?$HM?$AA@ 000000018002e84c     LIBCMT:undname.obj
 0002:00007850       ??_C@_02PPKAJPJL@?$CG?$CG?$AA@ 000000018002e850     LIBCMT:undname.obj
 0002:00007854       ??_C@_02NONPIBCD@?$HM?$HM?$AA@ 000000018002e854     LIBCMT:undname.obj
 0002:00007858       ??_C@_02FPIMKNGF@?$CK?$DN?$AA@ 000000018002e858     LIBCMT:undname.obj
 0002:0000785c       ??_C@_02FOEOMHFC@?$CL?$DN?$AA@ 000000018002e85c     LIBCMT:undname.obj
 0002:00007860       ??_C@_02FKMDLLOA@?9?$DN?$AA@ 000000018002e860     LIBCMT:undname.obj
 0002:00007864       ??_C@_02FJEHGPIO@?1?$DN?$AA@ 000000018002e864     LIBCMT:undname.obj
 0002:00007868       ??_C@_02FENAOKFI@?$CF?$DN?$AA@ 000000018002e868     LIBCMT:undname.obj
 0002:0000786c       ??_C@_03IKFCCPFF@?$DO?$DO?$DN?$AA@ 000000018002e86c     LIBCMT:undname.obj
 0002:00007870       ??_C@_03CDNPDDLA@?$DM?$DM?$DN?$AA@ 000000018002e870     LIBCMT:undname.obj
 0002:00007874       ??_C@_02FGJGFEAB@?$CG?$DN?$AA@ 000000018002e874     LIBCMT:undname.obj
 0002:00007878       ??_C@_02DHLNPPGH@?$HM?$DN?$AA@ 000000018002e878     LIBCMT:undname.obj
 0002:0000787c       ??_C@_02MHEGNOJ@?$FO?$DN?$AA@ 000000018002e87c     LIBCMT:undname.obj
 0002:00007880       ??_C@_09IFPLHPGF@?$GAvftable?8?$AA@ 000000018002e880     LIBCMT:undname.obj
 0002:00007890       ??_C@_09BLBHBJP@?$GAvbtable?8?$AA@ 000000018002e890     LIBCMT:undname.obj
 0002:000078a0       ??_C@_07FEEIOKP@?$GAvcall?8?$AA@ 000000018002e8a0     LIBCMT:undname.obj
 0002:000078a8       ??_C@_08LLFFHHDJ@?$GAtypeof?8?$AA@ 000000018002e8a8     LIBCMT:undname.obj
 0002:000078b8       ??_C@_0BF@KDPPACIK@?$GAlocal?5static?5guard?8?$AA@ 000000018002e8b8     LIBCMT:undname.obj
 0002:000078d0       ??_C@_08OBABFOLI@?$GAstring?8?$AA@ 000000018002e8d0     LIBCMT:undname.obj
 0002:000078e0       ??_C@_0BD@JDLKDPAB@?$GAvbase?5destructor?8?$AA@ 000000018002e8e0     LIBCMT:undname.obj
 0002:000078f8       ??_C@_0BN@DEGPLNFK@?$GAvector?5deleting?5destructor?8?$AA@ 000000018002e8f8     LIBCMT:undname.obj
 0002:00007918       ??_C@_0BO@OBMKPJIG@?$GAdefault?5constructor?5closure?8?$AA@ 000000018002e918     LIBCMT:undname.obj
 0002:00007938       ??_C@_0BN@IMDCHIKM@?$GAscalar?5deleting?5destructor?8?$AA@ 000000018002e938     LIBCMT:undname.obj
 0002:00007958       ??_C@_0BO@PFGOCPJJ@?$GAvector?5constructor?5iterator?8?$AA@ 000000018002e958     LIBCMT:undname.obj
 0002:00007978       ??_C@_0BN@LFPFMEDL@?$GAvector?5destructor?5iterator?8?$AA@ 000000018002e978     LIBCMT:undname.obj
 0002:00007998       ??_C@_0CE@IKBNEHA@?$GAvector?5vbase?5constructor?5iterat@ 000000018002e998     LIBCMT:undname.obj
 0002:000079c0       ??_C@_0BL@NILFHHPC@?$GAvirtual?5displacement?5map?8?$AA@ 000000018002e9c0     LIBCMT:undname.obj
 0002:000079e0       ??_C@_0CB@JONCMFFK@?$GAeh?5vector?5constructor?5iterator?8@ 000000018002e9e0     LIBCMT:undname.obj
 0002:00007a08       ??_C@_0CA@GCEOPDGL@?$GAeh?5vector?5destructor?5iterator?8?$AA@ 000000018002ea08     LIBCMT:undname.obj
 0002:00007a28       ??_C@_0CH@OOJPLCPH@?$GAeh?5vector?5vbase?5constructor?5ite@ 000000018002ea28     LIBCMT:undname.obj
 0002:00007a50       ??_C@_0BL@LLKPOHJI@?$GAcopy?5constructor?5closure?8?$AA@ 000000018002ea50     LIBCMT:undname.obj
 0002:00007a70       ??_C@_0BA@KBCDOMBN@?$GAudt?5returning?8?$AA@ 000000018002ea70     LIBCMT:undname.obj
 0002:00007a80       ??_C@_03KLGMFNMG@?$GAEH?$AA@ 000000018002ea80     LIBCMT:undname.obj
 0002:00007a84       ??_C@_05KHLCHHI@?$GARTTI?$AA@ 000000018002ea84     LIBCMT:undname.obj
 0002:00007a90       ??_C@_0BA@KKLDJDLB@?$GAlocal?5vftable?8?$AA@ 000000018002ea90     LIBCMT:undname.obj
 0002:00007aa0       ??_C@_0CE@IIHCMGGL@?$GAlocal?5vftable?5constructor?5closu@ 000000018002eaa0     LIBCMT:undname.obj
 0002:00007ac4       ??_C@_06FHBGPFGH@?5new?$FL?$FN?$AA@ 000000018002eac4     LIBCMT:undname.obj
 0002:00007ad0       ??_C@_09LBNFPBCA@?5delete?$FL?$FN?$AA@ 000000018002ead0     LIBCMT:undname.obj
 0002:00007ae0       ??_C@_0P@HJKNJFNN@?$GAomni?5callsig?8?$AA@ 000000018002eae0     LIBCMT:undname.obj
 0002:00007af0       ??_C@_0BL@CNOONJFP@?$GAplacement?5delete?5closure?8?$AA@ 000000018002eaf0     LIBCMT:undname.obj
 0002:00007b10       ??_C@_0BN@CKNJLHMB@?$GAplacement?5delete?$FL?$FN?5closure?8?$AA@ 000000018002eb10     LIBCMT:undname.obj
 0002:00007b30       ??_C@_0CG@CFDHKGGD@?$GAmanaged?5vector?5constructor?5iter@ 000000018002eb30     LIBCMT:undname.obj
 0002:00007b58       ??_C@_0CF@IMGKMJNO@?$GAmanaged?5vector?5destructor?5itera@ 000000018002eb58     LIBCMT:undname.obj
 0002:00007b80       ??_C@_0CG@HLDDJMAG@?$GAeh?5vector?5copy?5constructor?5iter@ 000000018002eb80     LIBCMT:undname.obj
 0002:00007ba8       ??_C@_0CM@FCBBDIGB@?$GAeh?5vector?5vbase?5copy?5constructo@ 000000018002eba8     LIBCMT:undname.obj
 0002:00007bd8       ??_C@_0BL@CLIPGLGB@?$GAdynamic?5initializer?5for?5?8?$AA@ 000000018002ebd8     LIBCMT:undname.obj
 0002:00007bf8       ??_C@_0CB@PDBIFEP@?$GAdynamic?5atexit?5destructor?5for?5?8@ 000000018002ebf8     LIBCMT:undname.obj
 0002:00007c20       ??_C@_0CD@CGAJBKEJ@?$GAvector?5copy?5constructor?5iterato@ 000000018002ec20     LIBCMT:undname.obj
 0002:00007c48       ??_C@_0CJ@GJELGAMM@?$GAvector?5vbase?5copy?5constructor?5i@ 000000018002ec48     LIBCMT:undname.obj
 0002:00007c78       ??_C@_0CL@FGIJHLCE@?$GAmanaged?5vector?5copy?5constructor@ 000000018002ec78     LIBCMT:undname.obj
 0002:00007ca8       ??_C@_0BM@PMGGMLDN@?$GAlocal?5static?5thread?5guard?8?$AA@ 000000018002eca8     LIBCMT:undname.obj
 0002:00007cc8       ??_C@_0BC@DAFEJGAK@?5Type?5Descriptor?8?$AA@ 000000018002ecc8     LIBCMT:undname.obj
 0002:00007ce0       ??_C@_0BM@LDKODKLH@?5Base?5Class?5Descriptor?5at?5?$CI?$AA@ 000000018002ece0     LIBCMT:undname.obj
 0002:00007d00       ??_C@_0BD@LGICGFMM@?5Base?5Class?5Array?8?$AA@ 000000018002ed00     LIBCMT:undname.obj
 0002:00007d18       ??_C@_0BN@MECKDCOJ@?5Class?5Hierarchy?5Descriptor?8?$AA@ 000000018002ed18     LIBCMT:undname.obj
 0002:00007d38       ??_C@_0BK@CFCOFLF@?5Complete?5Object?5Locator?8?$AA@ 000000018002ed38     LIBCMT:undname.obj
 0002:00007d60       __rg_language              000000018002ed60     LIBCMT:getqloc.obj
 0002:00008170       ??_C@_1BC@LLOKLNP@?$AAa?$AAm?$AAe?$AAr?$AAi?$AAc?$AAa?$AAn?$AA?$AA@ 000000018002f170     LIBCMT:getqloc.obj
 0002:00008188       ??_C@_1CC@HEIGCDGG@?$AAa?$AAm?$AAe?$AAr?$AAi?$AAc?$AAa?$AAn?$AA?5?$AAe?$AAn?$AAg?$AAl?$AAi?$AAs?$AAh?$AA?$AA@ 000000018002f188     LIBCMT:getqloc.obj
 0002:000081b0       ??_C@_1CC@IHCNOMIN@?$AAa?$AAm?$AAe?$AAr?$AAi?$AAc?$AAa?$AAn?$AA?9?$AAe?$AAn?$AAg?$AAl?$AAi?$AAs?$AAh?$AA?$AA@ 000000018002f1b0     LIBCMT:getqloc.obj
 0002:000081d8       ??_C@_1BG@GKAGPCGG@?$AAa?$AAu?$AAs?$AAt?$AAr?$AAa?$AAl?$AAi?$AAa?$AAn?$AA?$AA@ 000000018002f1d8     LIBCMT:getqloc.obj
 0002:000081f0       ??_C@_1BA@GMENCENF@?$AAb?$AAe?$AAl?$AAg?$AAi?$AAa?$AAn?$AA?$AA@ 000000018002f1f0     LIBCMT:getqloc.obj
 0002:00008200       ??_C@_1BC@PJMIIAAN@?$AAc?$AAa?$AAn?$AAa?$AAd?$AAi?$AAa?$AAn?$AA?$AA@ 000000018002f200     LIBCMT:getqloc.obj
 0002:00008218       ??_C@_17NOIMNFBF@?$AAc?$AAh?$AAh?$AA?$AA@ 000000018002f218     LIBCMT:getqloc.obj
 0002:00008220       ??_C@_17GGDALCHA@?$AAc?$AAh?$AAi?$AA?$AA@ 000000018002f220     LIBCMT:getqloc.obj
 0002:00008228       ??_C@_1BA@NPNJKIBL@?$AAc?$AAh?$AAi?$AAn?$AAe?$AAs?$AAe?$AA?$AA@ 000000018002f228     LIBCMT:getqloc.obj
 0002:00008238       ??_C@_1CC@DINBAMMJ@?$AAc?$AAh?$AAi?$AAn?$AAe?$AAs?$AAe?$AA?9?$AAh?$AAo?$AAn?$AAg?$AAk?$AAo?$AAn?$AAg?$AA?$AA@ 000000018002f238     LIBCMT:getqloc.obj
 0002:00008260       ??_C@_1CG@IOBJPACO@?$AAc?$AAh?$AAi?$AAn?$AAe?$AAs?$AAe?$AA?9?$AAs?$AAi?$AAm?$AAp?$AAl?$AAi?$AAf?$AAi?$AAe?$AAd?$AA?$AA@ 000000018002f260     LIBCMT:getqloc.obj
 0002:00008288       ??_C@_1CE@GAJNDCKG@?$AAc?$AAh?$AAi?$AAn?$AAe?$AAs?$AAe?$AA?9?$AAs?$AAi?$AAn?$AAg?$AAa?$AAp?$AAo?$AAr?$AAe?$AA?$AA@ 000000018002f288     LIBCMT:getqloc.obj
 0002:000082b0       ??_C@_1CI@PAJPIOOD@?$AAc?$AAh?$AAi?$AAn?$AAe?$AAs?$AAe?$AA?9?$AAt?$AAr?$AAa?$AAd?$AAi?$AAt?$AAi?$AAo?$AAn?$AAa?$AAl?$AA?$AA@ 000000018002f2b0     LIBCMT:getqloc.obj
 0002:000082d8       ??_C@_1BM@NILJBMMD@?$AAd?$AAu?$AAt?$AAc?$AAh?$AA?9?$AAb?$AAe?$AAl?$AAg?$AAi?$AAa?$AAn?$AA?$AA@ 000000018002f2d8     LIBCMT:getqloc.obj
 0002:000082f8       ??_C@_1CC@OOJPJNEJ@?$AAe?$AAn?$AAg?$AAl?$AAi?$AAs?$AAh?$AA?9?$AAa?$AAm?$AAe?$AAr?$AAi?$AAc?$AAa?$AAn?$AA?$AA@ 000000018002f2f8     LIBCMT:getqloc.obj
 0002:00008320       ??_C@_1BI@IOLFEEM@?$AAe?$AAn?$AAg?$AAl?$AAi?$AAs?$AAh?$AA?9?$AAa?$AAu?$AAs?$AA?$AA@ 000000018002f320     LIBCMT:getqloc.obj
 0002:00008338       ??_C@_1BO@HFFNLENJ@?$AAe?$AAn?$AAg?$AAl?$AAi?$AAs?$AAh?$AA?9?$AAb?$AAe?$AAl?$AAi?$AAz?$AAe?$AA?$AA@ 000000018002f338     LIBCMT:getqloc.obj
 0002:00008358       ??_C@_1BI@HAPKJMPO@?$AAe?$AAn?$AAg?$AAl?$AAi?$AAs?$AAh?$AA?9?$AAc?$AAa?$AAn?$AA?$AA@ 000000018002f358     LIBCMT:getqloc.obj
 0002:00008370       ??_C@_1CE@HLNDMIOJ@?$AAe?$AAn?$AAg?$AAl?$AAi?$AAs?$AAh?$AA?9?$AAc?$AAa?$AAr?$AAi?$AAb?$AAb?$AAe?$AAa?$AAn?$AA?$AA@ 000000018002f370     LIBCMT:getqloc.obj
 0002:00008398       ??_C@_1BI@LDHJHHAC@?$AAe?$AAn?$AAg?$AAl?$AAi?$AAs?$AAh?$AA?9?$AAi?$AAr?$AAe?$AA?$AA@ 000000018002f398     LIBCMT:getqloc.obj
 0002:000083b0       ??_C@_1CA@NJMMCFOC@?$AAe?$AAn?$AAg?$AAl?$AAi?$AAs?$AAh?$AA?9?$AAj?$AAa?$AAm?$AAa?$AAi?$AAc?$AAa?$AA?$AA@ 000000018002f3b0     LIBCMT:getqloc.obj
 0002:000083d0       ??_C@_1BG@BHJEBBGG@?$AAe?$AAn?$AAg?$AAl?$AAi?$AAs?$AAh?$AA?9?$AAn?$AAz?$AA?$AA@ 000000018002f3d0     LIBCMT:getqloc.obj
 0002:000083e8       ??_C@_1CK@FGOEJJCO@?$AAe?$AAn?$AAg?$AAl?$AAi?$AAs?$AAh?$AA?9?$AAs?$AAo?$AAu?$AAt?$AAh?$AA?5?$AAa?$AAf?$AAr?$AAi?$AAc?$AAa?$AA?$AA@ 000000018002f3e8     LIBCMT:getqloc.obj
 0002:00008418       ??_C@_1DE@PDBJPCJ@?$AAe?$AAn?$AAg?$AAl?$AAi?$AAs?$AAh?$AA?9?$AAt?$AAr?$AAi?$AAn?$AAi?$AAd?$AAa?$AAd?$AA?5?$AAy?$AA?5?$AAt?$AAo?$AAb?$AAa?$AAg?$AAo?$AA?$AA@ 000000018002f418     LIBCMT:getqloc.obj
 0002:00008450       ??_C@_1BG@JGCANDME@?$AAe?$AAn?$AAg?$AAl?$AAi?$AAs?$AAh?$AA?9?$AAu?$AAk?$AA?$AA@ 000000018002f450     LIBCMT:getqloc.obj
 0002:00008468       ??_C@_1BG@DINKMLE@?$AAe?$AAn?$AAg?$AAl?$AAi?$AAs?$AAh?$AA?9?$AAu?$AAs?$AA?$AA@ 000000018002f468     LIBCMT:getqloc.obj
 0002:00008480       ??_C@_1BI@NMFDBHJE@?$AAe?$AAn?$AAg?$AAl?$AAi?$AAs?$AAh?$AA?9?$AAu?$AAs?$AAa?$AA?$AA@ 000000018002f480     LIBCMT:getqloc.obj
 0002:00008498       ??_C@_1BO@OIHKJKII@?$AAf?$AAr?$AAe?$AAn?$AAc?$AAh?$AA?9?$AAb?$AAe?$AAl?$AAg?$AAi?$AAa?$AAn?$AA?$AA@ 000000018002f498     LIBCMT:getqloc.obj
 0002:000084b8       ??_C@_1CA@NKAELJKI@?$AAf?$AAr?$AAe?$AAn?$AAc?$AAh?$AA?9?$AAc?$AAa?$AAn?$AAa?$AAd?$AAi?$AAa?$AAn?$AA?$AA@ 000000018002f4b8     LIBCMT:getqloc.obj
 0002:000084d8       ??_C@_1CE@MGKCNLGN@?$AAf?$AAr?$AAe?$AAn?$AAc?$AAh?$AA?9?$AAl?$AAu?$AAx?$AAe?$AAm?$AAb?$AAo?$AAu?$AAr?$AAg?$AA?$AA@ 000000018002f4d8     LIBCMT:getqloc.obj
 0002:00008500       ??_C@_1BK@CEGEAILM@?$AAf?$AAr?$AAe?$AAn?$AAc?$AAh?$AA?9?$AAs?$AAw?$AAi?$AAs?$AAs?$AA?$AA@ 000000018002f500     LIBCMT:getqloc.obj
 0002:00008520       ??_C@_1CA@PAFKEOCC@?$AAg?$AAe?$AAr?$AAm?$AAa?$AAn?$AA?9?$AAa?$AAu?$AAs?$AAt?$AAr?$AAi?$AAa?$AAn?$AA?$AA@ 000000018002f520     LIBCMT:getqloc.obj
 0002:00008540       ??_C@_1CI@HCFHGOFD@?$AAg?$AAe?$AAr?$AAm?$AAa?$AAn?$AA?9?$AAl?$AAi?$AAc?$AAh?$AAt?$AAe?$AAn?$AAs?$AAt?$AAe?$AAi?$AAn?$AA?$AA@ 000000018002f540     LIBCMT:getqloc.obj
 0002:00008568       ??_C@_1CE@FEDDNPDG@?$AAg?$AAe?$AAr?$AAm?$AAa?$AAn?$AA?9?$AAl?$AAu?$AAx?$AAe?$AAm?$AAb?$AAo?$AAu?$AAr?$AAg?$AA?$AA@ 000000018002f568     LIBCMT:getqloc.obj
 0002:00008590       ??_C@_1BK@LIMINNMN@?$AAg?$AAe?$AAr?$AAm?$AAa?$AAn?$AA?9?$AAs?$AAw?$AAi?$AAs?$AAs?$AA?$AA@ 000000018002f590     LIBCMT:getqloc.obj
 0002:000085b0       ??_C@_1BM@LGMDBEPD@?$AAi?$AAr?$AAi?$AAs?$AAh?$AA?9?$AAe?$AAn?$AAg?$AAl?$AAi?$AAs?$AAh?$AA?$AA@ 000000018002f5b0     LIBCMT:getqloc.obj
 0002:000085d0       ??_C@_1BM@NNCFBAEE@?$AAi?$AAt?$AAa?$AAl?$AAi?$AAa?$AAn?$AA?9?$AAs?$AAw?$AAi?$AAs?$AAs?$AA?$AA@ 000000018002f5d0     LIBCMT:getqloc.obj
 0002:000085f0       ??_C@_1BE@FEDJNPIB@?$AAn?$AAo?$AAr?$AAw?$AAe?$AAg?$AAi?$AAa?$AAn?$AA?$AA@ 000000018002f5f0     LIBCMT:getqloc.obj
 0002:00008608       ??_C@_1CC@CILKDEIE@?$AAn?$AAo?$AAr?$AAw?$AAe?$AAg?$AAi?$AAa?$AAn?$AA?9?$AAb?$AAo?$AAk?$AAm?$AAa?$AAl?$AA?$AA@ 000000018002f608     LIBCMT:getqloc.obj
 0002:00008630       ??_C@_1CE@DHMMHEPL@?$AAn?$AAo?$AAr?$AAw?$AAe?$AAg?$AAi?$AAa?$AAn?$AA?9?$AAn?$AAy?$AAn?$AAo?$AAr?$AAs?$AAk?$AA?$AA@ 000000018002f630     LIBCMT:getqloc.obj
 0002:00008658       ??_C@_1CK@OPNMHECD@?$AAp?$AAo?$AAr?$AAt?$AAu?$AAg?$AAu?$AAe?$AAs?$AAe?$AA?9?$AAb?$AAr?$AAa?$AAz?$AAi?$AAl?$AAi?$AAa?$AAn?$AA?$AA@ 000000018002f658     LIBCMT:getqloc.obj
 0002:00008688       ??_C@_1CE@KEEHCDB@?$AAs?$AAp?$AAa?$AAn?$AAi?$AAs?$AAh?$AA?9?$AAa?$AAr?$AAg?$AAe?$AAn?$AAt?$AAi?$AAn?$AAa?$AA?$AA@ 000000018002f688     LIBCMT:getqloc.obj
 0002:000086b0       ??_C@_1CA@GIAOLHJD@?$AAs?$AAp?$AAa?$AAn?$AAi?$AAs?$AAh?$AA?9?$AAb?$AAo?$AAl?$AAi?$AAv?$AAi?$AAa?$AA?$AA@ 000000018002f6b0     LIBCMT:getqloc.obj
 0002:000086d0       ??_C@_1BM@OJNDFNPD@?$AAs?$AAp?$AAa?$AAn?$AAi?$AAs?$AAh?$AA?9?$AAc?$AAh?$AAi?$AAl?$AAe?$AA?$AA@ 000000018002f6d0     LIBCMT:getqloc.obj
 0002:000086f0       ??_C@_1CC@OCOLPALL@?$AAs?$AAp?$AAa?$AAn?$AAi?$AAs?$AAh?$AA?9?$AAc?$AAo?$AAl?$AAo?$AAm?$AAb?$AAi?$AAa?$AA?$AA@ 000000018002f6f0     LIBCMT:getqloc.obj
 0002:00008718       ??_C@_1CG@BPOFMKBB@?$AAs?$AAp?$AAa?$AAn?$AAi?$AAs?$AAh?$AA?9?$AAc?$AAo?$AAs?$AAt?$AAa?$AA?5?$AAr?$AAi?$AAc?$AAa?$AA?$AA@ 000000018002f718     LIBCMT:getqloc.obj
 0002:00008740       ??_C@_1DG@IGOBAPBB@?$AAs?$AAp?$AAa?$AAn?$AAi?$AAs?$AAh?$AA?9?$AAd?$AAo?$AAm?$AAi?$AAn?$AAi?$AAc?$AAa?$AAn?$AA?5?$AAr?$AAe?$AAp?$AAu?$AAb?$AAl?$AAi?$AAc?$AA?$AA@ 000000018002f740     LIBCMT:getqloc.obj
 0002:00008778       ??_C@_1CA@JHAPGEGI@?$AAs?$AAp?$AAa?$AAn?$AAi?$AAs?$AAh?$AA?9?$AAe?$AAc?$AAu?$AAa?$AAd?$AAo?$AAr?$AA?$AA@ 000000018002f778     LIBCMT:getqloc.obj
 0002:00008798       ??_C@_1CI@LAPALJPP@?$AAs?$AAp?$AAa?$AAn?$AAi?$AAs?$AAh?$AA?9?$AAe?$AAl?$AA?5?$AAs?$AAa?$AAl?$AAv?$AAa?$AAd?$AAo?$AAr?$AA?$AA@ 000000018002f798     LIBCMT:getqloc.obj
 0002:000087c0       ??_C@_1CE@PDGBOFOM@?$AAs?$AAp?$AAa?$AAn?$AAi?$AAs?$AAh?$AA?9?$AAg?$AAu?$AAa?$AAt?$AAe?$AAm?$AAa?$AAl?$AAa?$AA?$AA@ 000000018002f7c0     LIBCMT:getqloc.obj
 0002:000087e8       ??_C@_1CC@NBEBAODI@?$AAs?$AAp?$AAa?$AAn?$AAi?$AAs?$AAh?$AA?9?$AAh?$AAo?$AAn?$AAd?$AAu?$AAr?$AAa?$AAs?$AA?$AA@ 000000018002f7e8     LIBCMT:getqloc.obj
 0002:00008810       ??_C@_1CA@LLKGHBMF@?$AAs?$AAp?$AAa?$AAn?$AAi?$AAs?$AAh?$AA?9?$AAm?$AAe?$AAx?$AAi?$AAc?$AAa?$AAn?$AA?$AA@ 000000018002f810     LIBCMT:getqloc.obj
 0002:00008830       ??_C@_1BO@LKNDOIGD@?$AAs?$AAp?$AAa?$AAn?$AAi?$AAs?$AAh?$AA?9?$AAm?$AAo?$AAd?$AAe?$AAr?$AAn?$AA?$AA@ 000000018002f830     LIBCMT:getqloc.obj
 0002:00008850       ??_C@_1CE@NMDMOEEB@?$AAs?$AAp?$AAa?$AAn?$AAi?$AAs?$AAh?$AA?9?$AAn?$AAi?$AAc?$AAa?$AAr?$AAa?$AAg?$AAu?$AAa?$AA?$AA@ 000000018002f850     LIBCMT:getqloc.obj
 0002:00008878       ??_C@_1BO@LLCBEJGB@?$AAs?$AAp?$AAa?$AAn?$AAi?$AAs?$AAh?$AA?9?$AAp?$AAa?$AAn?$AAa?$AAm?$AAa?$AA?$AA@ 000000018002f878     LIBCMT:getqloc.obj
 0002:00008898       ??_C@_1CC@FKPGGIHO@?$AAs?$AAp?$AAa?$AAn?$AAi?$AAs?$AAh?$AA?9?$AAp?$AAa?$AAr?$AAa?$AAg?$AAu?$AAa?$AAy?$AA?$AA@ 000000018002f898     LIBCMT:getqloc.obj
 0002:000088c0       ??_C@_1BK@CDEIHOOP@?$AAs?$AAp?$AAa?$AAn?$AAi?$AAs?$AAh?$AA?9?$AAp?$AAe?$AAr?$AAu?$AA?$AA@ 000000018002f8c0     LIBCMT:getqloc.obj
 0002:000088e0       ??_C@_1CI@GAHAKKGP@?$AAs?$AAp?$AAa?$AAn?$AAi?$AAs?$AAh?$AA?9?$AAp?$AAu?$AAe?$AAr?$AAt?$AAo?$AA?5?$AAr?$AAi?$AAc?$AAo?$AA?$AA@ 000000018002f8e0     LIBCMT:getqloc.obj
 0002:00008908       ??_C@_1CA@NKJBCAGP@?$AAs?$AAp?$AAa?$AAn?$AAi?$AAs?$AAh?$AA?9?$AAu?$AAr?$AAu?$AAg?$AAu?$AAa?$AAy?$AA?$AA@ 000000018002f908     LIBCMT:getqloc.obj
 0002:00008928       ??_C@_1CE@ODILCONM@?$AAs?$AAp?$AAa?$AAn?$AAi?$AAs?$AAh?$AA?9?$AAv?$AAe?$AAn?$AAe?$AAz?$AAu?$AAe?$AAl?$AAa?$AA?$AA@ 000000018002f928     LIBCMT:getqloc.obj
 0002:00008950       ??_C@_1CA@OBNMCGFO@?$AAs?$AAw?$AAe?$AAd?$AAi?$AAs?$AAh?$AA?9?$AAf?$AAi?$AAn?$AAl?$AAa?$AAn?$AAd?$AA?$AA@ 000000018002f950     LIBCMT:getqloc.obj
 0002:00008970       ??_C@_1M@PIPDDPPI@?$AAs?$AAw?$AAi?$AAs?$AAs?$AA?$AA@ 000000018002f970     LIBCMT:getqloc.obj
 0002:0000897c       ??_C@_15GMFIMNFM@?$AAu?$AAs?$AA?$AA@ 000000018002f97c     LIBCMT:getqloc.obj
 0002:00008988       ??_C@_17HAEBFAGL@?$AAu?$AAs?$AAa?$AA?$AA@ 000000018002f988     LIBCMT:getqloc.obj
 0002:00008990       __rg_country               000000018002f990     LIBCMT:getqloc.obj
 0002:00008b00       ??_C@_1BA@DPFJEPHB@?$AAa?$AAm?$AAe?$AAr?$AAi?$AAc?$AAa?$AA?$AA@ 000000018002fb00     LIBCMT:getqloc.obj
 0002:00008b10       ??_C@_1BA@ELOGGFK@?$AAb?$AAr?$AAi?$AAt?$AAa?$AAi?$AAn?$AA?$AA@ 000000018002fb10     LIBCMT:getqloc.obj
 0002:00008b20       ??_C@_1M@GHBGIGDA@?$AAc?$AAh?$AAi?$AAn?$AAa?$AA?$AA@ 000000018002fb20     LIBCMT:getqloc.obj
 0002:00008b30       ??_C@_1M@NCHEJOPO@?$AAc?$AAz?$AAe?$AAc?$AAh?$AA?$AA@ 000000018002fb30     LIBCMT:getqloc.obj
 0002:00008b40       ??_C@_1BA@BKPAPBLA@?$AAe?$AAn?$AAg?$AAl?$AAa?$AAn?$AAd?$AA?$AA@ 000000018002fb40     LIBCMT:getqloc.obj
 0002:00008b50       ??_C@_1BM@HKBCKIPC@?$AAg?$AAr?$AAe?$AAa?$AAt?$AA?5?$AAb?$AAr?$AAi?$AAt?$AAa?$AAi?$AAn?$AA?$AA@ 000000018002fb50     LIBCMT:getqloc.obj
 0002:00008b70       ??_C@_1BA@PPCHPGJB@?$AAh?$AAo?$AAl?$AAl?$AAa?$AAn?$AAd?$AA?$AA@ 000000018002fb70     LIBCMT:getqloc.obj
 0002:00008b80       ??_C@_1BE@JBMPEGDG@?$AAh?$AAo?$AAn?$AAg?$AA?9?$AAk?$AAo?$AAn?$AAg?$AA?$AA@ 000000018002fb80     LIBCMT:getqloc.obj
 0002:00008b98       ??_C@_1BI@KOELBBPJ@?$AAn?$AAe?$AAw?$AA?9?$AAz?$AAe?$AAa?$AAl?$AAa?$AAn?$AAd?$AA?$AA@ 000000018002fb98     LIBCMT:getqloc.obj
 0002:00008bb0       ??_C@_15HIEBHAIO@?$AAn?$AAz?$AA?$AA@ 000000018002fbb0     LIBCMT:getqloc.obj
 0002:00008bb8       ??_C@_1BC@CHBCPFPI@?$AAp?$AAr?$AA?5?$AAc?$AAh?$AAi?$AAn?$AAa?$AA?$AA@ 000000018002fbb8     LIBCMT:getqloc.obj
 0002:00008bd0       ??_C@_1BC@JAOIIFKD@?$AAp?$AAr?$AA?9?$AAc?$AAh?$AAi?$AAn?$AAa?$AA?$AA@ 000000018002fbd0     LIBCMT:getqloc.obj
 0002:00008be8       ??_C@_1BI@BEHPPHKC@?$AAp?$AAu?$AAe?$AAr?$AAt?$AAo?$AA?9?$AAr?$AAi?$AAc?$AAo?$AA?$AA@ 000000018002fbe8     LIBCMT:getqloc.obj
 0002:00008c00       ??_C@_1O@PAEOFKDI@?$AAs?$AAl?$AAo?$AAv?$AAa?$AAk?$AA?$AA@ 000000018002fc00     LIBCMT:getqloc.obj
 0002:00008c10       ??_C@_1BK@FIHMCKAM@?$AAs?$AAo?$AAu?$AAt?$AAh?$AA?5?$AAa?$AAf?$AAr?$AAi?$AAc?$AAa?$AA?$AA@ 000000018002fc10     LIBCMT:getqloc.obj
 0002:00008c30       ??_C@_1BI@NAEOODKB@?$AAs?$AAo?$AAu?$AAt?$AAh?$AA?5?$AAk?$AAo?$AAr?$AAe?$AAa?$AA?$AA@ 000000018002fc30     LIBCMT:getqloc.obj
 0002:00008c48       ??_C@_1BK@FBDGGIFF@?$AAs?$AAo?$AAu?$AAt?$AAh?$AA?9?$AAa?$AAf?$AAr?$AAi?$AAc?$AAa?$AA?$AA@ 000000018002fc48     LIBCMT:getqloc.obj
 0002:00008c68       ??_C@_1BI@GHLEJDPK@?$AAs?$AAo?$AAu?$AAt?$AAh?$AA?9?$AAk?$AAo?$AAr?$AAe?$AAa?$AA?$AA@ 000000018002fc68     LIBCMT:getqloc.obj
 0002:00008c80       ??_C@_1CE@PLHLOMJF@?$AAt?$AAr?$AAi?$AAn?$AAi?$AAd?$AAa?$AAd?$AA?5?$AA?$CG?$AA?5?$AAt?$AAo?$AAb?$AAa?$AAg?$AAo?$AA?$AA@ 000000018002fc80     LIBCMT:getqloc.obj
 0002:00008ca8       ??_C@_1BO@MODIMHHI@?$AAu?$AAn?$AAi?$AAt?$AAe?$AAd?$AA?9?$AAk?$AAi?$AAn?$AAg?$AAd?$AAo?$AAm?$AA?$AA@ 000000018002fca8     LIBCMT:getqloc.obj
 0002:00008cc8       ??_C@_1BM@FFHJONBJ@?$AAu?$AAn?$AAi?$AAt?$AAe?$AAd?$AA?9?$AAs?$AAt?$AAa?$AAt?$AAe?$AAs?$AA?$AA@ 000000018002fcc8     LIBCMT:getqloc.obj
 0002:00008ce4       __rg_language_count        000000018002fce4     LIBCMT:getqloc.obj
 0002:00008ce8       __rg_country_count         000000018002fce8     LIBCMT:getqloc.obj
 0002:00008cf0       ??_C@_17DNCLJFIF@?$AAA?$AAC?$AAP?$AA?$AA@ 000000018002fcf0     LIBCMT:getqloc.obj
 0002:00008cf8       ??_C@_17CIKBIHLH@?$AAO?$AAC?$AAP?$AA?$AA@ 000000018002fcf8     LIBCMT:getqloc.obj
 0002:00008d00       __rglangidNotDefault       000000018002fd00     LIBCMT:getqloc_downlevel.obj
 0002:00008d14       ??_C@_06PGGFOGJG@1?$CDSNAN?$AA@ 000000018002fd14     LIBCMT:x10fout.obj
 0002:00008d1c       ??_C@_05PHHOCPM@1?$CDIND?$AA@ 000000018002fd1c     LIBCMT:x10fout.obj
 0002:00008d24       ??_C@_05DNEBIAHO@1?$CDINF?$AA@ 000000018002fd24     LIBCMT:x10fout.obj
 0002:00008d2c       ??_C@_06IMKFLFPG@1?$CDQNAN?$AA@ 000000018002fd2c     LIBCMT:x10fout.obj
 0002:00008d38       ??_C@_1BA@BALFACEM@?$AAC?$AAO?$AAN?$AAO?$AAU?$AAT?$AA$?$AA?$AA@ 000000018002fd38     LIBCMT:initcon.obj
 0002:00008d48       ??_C@_1DG@OKCGPKIB@?$AAp?$AAe?$AAr?$AAs?$AAi?$AAs?$AAt?$AAe?$AAn?$AAt?$AA?$CI?$AA?$CJ?$AA?4?$AAI?$AAs?$AAN?$AAe?$AAa?$AAr?$AAD?$AAe?$AAa?$AAt?$AAh?$AA?$CI?$AA?$CJ?$AA?$AA@ 000000018002fd48     node-midi.obj
 0002:00008d80       ??_C@_1CO@EGNPJLKI@?$AAp?$AAe?$AAr?$AAs?$AAi?$AAs?$AAt?$AAe?$AAn?$AAt?$AA?$CI?$AA?$CJ?$AA?4?$AAI?$AAs?$AAE?$AAm?$AAp?$AAt?$AAy?$AA?$CI?$AA?$CJ?$AA?$AA@ 000000018002fd80     node-midi.obj
 0002:00008db0       ??_C@_1DA@FBGAEOIO@?$AA?$CB?$AAp?$AAe?$AAr?$AAs?$AAi?$AAs?$AAt?$AAe?$AAn?$AAt?$AA?$CI?$AA?$CJ?$AA?4?$AAI?$AAs?$AAE?$AAm?$AAp?$AAt?$AAy?$AA?$CI?$AA?$CJ?$AA?$AA@ 000000018002fdb0     node-midi.obj
 0002:00008de0       ??_C@_1CO@JCKLEFMA@?$AA?$CB?$AAp?$AAe?$AAr?$AAs?$AAi?$AAs?$AAt?$AAe?$AAn?$AAt?$AA?$CI?$AA?$CJ?$AA?4?$AAI?$AAs?$AAW?$AAe?$AAa?$AAk?$AA?$CI?$AA?$CJ?$AA?$AA@ 000000018002fde0     node-midi.obj
 0002:00008e10       ??_C@_1BE@GMLLOIPJ@?$AAr?$AAe?$AAf?$AAs?$AA_?$AA?5?$AA?$DO?$AA?5?$AA0?$AA?$AA@ 000000018002fe10     node-midi.obj
 0002:00008e28       ??_C@_1CC@GBFLAAPF@?$AAw?$AAr?$AAa?$AAp?$AA?9?$AA?$DO?$AAr?$AAe?$AAf?$AAs?$AA_?$AA?5?$AA?$DN?$AA?$DN?$AA?5?$AA0?$AA?$AA@ 000000018002fe28     node-midi.obj
 0002:00008e50       ??_C@_1DI@ELDBKNAK@?$AAw?$AAr?$AAa?$AAp?$AA?9?$AA?$DO?$AAh?$AAa?$AAn?$AAd?$AAl?$AAe?$AA_?$AA?4?$AAI?$AAs?$AAN?$AAe?$AAa?$AAr?$AAD?$AAe?$AAa?$AAt?$AAh?$AA?$CI?$AA?$CJ?$AA?$AA@ 000000018002fe50     node-midi.obj
 0002:00008e88       ??_C@_0BC@BDKFLDHL@unknown?5exception?$AA@ 000000018002fe88     node-midi.obj
 0002:00008ea0       ??_C@_0BA@ELKIONDK@bad?5locale?5name?$AA@ 000000018002fea0     node-midi.obj
 0002:00008eb0       ??_C@_05LAPONLG@false?$AA@ 000000018002feb0     node-midi.obj
 0002:00008eb8       ??_C@_04LOAJBDKD@true?$AA@ 000000018002feb8     node-midi.obj
 0002:00008ebd       ??_C@_00CNPNBAHC@?$AA@     000000018002febd     node-midi.obj
 0002:00008ec0       ??_C@_02LMMGGCAJ@?3?5?$AA@ 000000018002fec0     node-midi.obj
 0002:00008ec8       ??_C@_0BF@PHHKMMFD@ios_base?3?3badbit?5set?$AA@ 000000018002fec8     node-midi.obj
 0002:00008ee0       ??_C@_0BG@FMKFHCIL@ios_base?3?3failbit?5set?$AA@ 000000018002fee0     node-midi.obj
 0002:00008ef8       ??_C@_0BF@OOHOMBOF@ios_base?3?3eofbit?5set?$AA@ 000000018002fef8     node-midi.obj
 0002:00008f10       ??_C@_0BA@JFNIOLAK@string?5too?5long?$AA@ 000000018002ff10     node-midi.obj
 0002:00008f20       ??_C@_1JC@DMDGONNF@?$AAc?$AA?3?$AA?2?$AAu?$AAs?$AAe?$AAr?$AAs?$AA?2?$AAr?$AAa?$AAc?$AAk?$AA?2?$AAw?$AAo?$AAr?$AAk?$AAs?$AAp?$AAa?$AAc?$AAe?$AA?2?$AAa?$AAp?$AA_?$AAf?$AAi?$AAn?$AAa?$AAl@ 000000018002ff20     node-midi.obj
 0002:00008fc0       ??_C@_1EC@MGGLMBLC@?$AAo?$AAb?$AAj?$AAe?$AAc?$AAt?$AA?9?$AA?$DO?$AAI?$AAn?$AAt?$AAe?$AAr?$AAn?$AAa?$AAl?$AAF?$AAi?$AAe?$AAl?$AAd?$AAC?$AAo?$AAu?$AAn?$AAt?$AA?$CI?$AA?$CJ?$AA?5?$AA?$DO?$AA?5?$AA0@ 000000018002ffc0     node-midi.obj
 0002:00009008       ??_C@_07CIFAGBMG@unknown?$AA@ 0000000180030008     node-midi.obj
 0002:00009010       ??_C@_02PHMGELLB@?6?6?$AA@ 0000000180030010     node-midi.obj
 0002:00009018       ??_C@_0DN@NBMELHHC@RtMidiIn?3?5no?5compiled?5API?5suppor@ 0000000180030018     node-midi.obj
 0002:00009058       ??_C@_0DO@DMDIOHPH@RtMidiOut?3?5no?5compiled?5API?5suppo@ 0000000180030058     node-midi.obj
 0002:00009098       ??_C@_0DM@LBLPJMBN@MidiInApi?3?3setCallback?3?5a?5callba@ 0000000180030098     node-midi.obj
 0002:000090d8       ??_C@_0DL@DJPDIHPL@RtMidiIn?3?3setCallback?3?5callback?5@ 00000001800300d8     node-midi.obj
 0002:00009118       ??_C@_0DI@HFFMPAOJ@RtMidiIn?3?3cancelCallback?3?5no?5cal@ 0000000180030118     node-midi.obj
 0002:00009150       ??_C@_0EF@FMKHDLDC@?6RtMidiIn?3?3midiInputCallback?3?5er@ 0000000180030150     node-midi.obj
 0002:00009198       ??_C@_0CL@MCCENNPA@?6RtMidiIn?3?5message?5queue?5limit?5r@ 0000000180030198     node-midi.obj
 0002:000091d0       ??_C@_0EE@IPMEECIL@MidiInWinMM?3?3initialize?3?5no?5MIDI@ 00000001800301d0     node-midi.obj
 0002:00009220       ??_C@_0EH@BMAJHIPK@MidiInWinMM?3?3initialize?3?5Initial@ 0000000180030220     node-midi.obj
 0002:00009268       ??_C@_0DK@PBMBKBAL@MidiInWinMM?3?3openPort?3?5a?5valid?5c@ 0000000180030268     node-midi.obj
 0002:000092a8       ??_C@_0DE@KCECOAJL@MidiInWinMM?3?3openPort?3?5no?5MIDI?5i@ 00000001800302a8     node-midi.obj
 0002:000092e0       ??_C@_0O@EEOKNPGD@?$CJ?5is?5invalid?4?$AA@ 00000001800302e0     node-midi.obj
 0002:000092f0       ??_C@_0DD@CGADPBBF@MidiInWinMM?3?3openPort?3?5the?5?8port@ 00000001800302f0     node-midi.obj
 0002:00009330       ??_C@_0EC@PKAPGDGN@MidiInWinMM?3?3openPort?3?5error?5cre@ 0000000180030330     node-midi.obj
 0002:00009380       ??_C@_0FC@BFOEJABM@MidiInWinMM?3?3openPort?3?5error?5sta@ 0000000180030380     node-midi.obj
 0002:000093e0       ??_C@_0EO@MINAKMAE@MidiInWinMM?3?3openPort?3?5error?5sta@ 00000001800303e0     node-midi.obj
 0002:00009430       ??_C@_0EC@JBFJHBHH@MidiInWinMM?3?3openPort?3?5error?5sta@ 0000000180030430     node-midi.obj
 0002:00009480       ??_C@_0EM@DHFLPFLK@MidiInWinMM?3?3openVirtualPort?3?5ca@ 0000000180030480     node-midi.obj
 0002:000094d0       ??_C@_0FJ@GBGPMIHA@MidiInWinMM?3?3openPort?3?5error?5clo@ 00000001800304d0     node-midi.obj
 0002:00009530       ??_C@_0DG@MABGGHKM@MidiInWinMM?3?3getPortName?3?5the?5?8p@ 0000000180030530     node-midi.obj
 0002:00009568       ??_C@_01CLKCMJKC@?5?$AA@   0000000180030568     node-midi.obj
 0002:00009570       ??_C@_0EG@HGOHIJEA@MidiOutWinMM?3?3initialize?3?5no?5MID@ 0000000180030570     node-midi.obj
 0002:000095b8       ??_C@_0DH@FKBCOHHN@MidiOutWinMM?3?3getPortName?3?5the?5?8@ 00000001800305b8     node-midi.obj
 0002:000095f0       ??_C@_0DL@PKKKNLCJ@MidiOutWinMM?3?3openPort?3?5a?5valid?5@ 00000001800305f0     node-midi.obj
 0002:00009630       ??_C@_0DL@MEHHLGA@MidiOutWinMM?3?3openPort?3?5no?5MIDI?5@ 0000000180030630     node-midi.obj
 0002:00009670       ??_C@_0DE@NOEDIALH@MidiOutWinMM?3?3openPort?3?5the?5?8por@ 0000000180030670     node-midi.obj
 0002:000096b0       ??_C@_0EE@KPCONON@MidiOutWinMM?3?3openPort?3?5error?5cr@ 00000001800306b0     node-midi.obj
 0002:00009700       ??_C@_0EN@IEDPDHOH@MidiOutWinMM?3?3openVirtualPort?3?5c@ 0000000180030700     node-midi.obj
 0002:00009750       ??_C@_0DG@EMFGFCEL@MidiOutWinMM?3?3sendMessage?3?5messa@ 0000000180030750     node-midi.obj
 0002:00009790       ??_C@_0EC@GCIHBMFD@MidiOutWinMM?3?3sendMessage?3?5error@ 0000000180030790     node-midi.obj
 0002:000097d8       ??_C@_0DJ@HAFOECAE@MidiOutWinMM?3?3sendMessage?3?5error@ 00000001800307d8     node-midi.obj
 0002:00009818       ??_C@_0DI@PAGLLKNA@MidiOutWinMM?3?3sendMessage?3?5error@ 0000000180030818     node-midi.obj
 0002:00009850       ??_C@_0FB@EOLHCBHL@MidiOutWinMM?3?3sendMessage?3?5messa@ 0000000180030850     node-midi.obj
 0002:000098a8       ??_C@_0DH@EOELOOOM@MidiOutWinMM?3?3sendMessage?3?5error@ 00000001800308a8     node-midi.obj
 0002:000098e0       ??_C@_0P@MCPLHGEN@NodeMidiOutput?$AA@ 00000001800308e0     node-midi.obj
 0002:000098f0       ??_C@_0N@HGMIGHNC@getPortCount?$AA@ 00000001800308f0     node-midi.obj
 0002:00009900       ??_C@_0M@KKMAGPOE@getPortName?$AA@ 0000000180030900     node-midi.obj
 0002:00009910       ??_C@_08JKHMBBIO@openPort?$AA@ 0000000180030910     node-midi.obj
 0002:00009920       ??_C@_0BA@IMDBMOK@openVirtualPort?$AA@ 0000000180030920     node-midi.obj
 0002:00009930       ??_C@_09FHPAJEFA@closePort?$AA@ 0000000180030930     node-midi.obj
 0002:00009940       ??_C@_0M@LGIGDHKK@sendMessage?$AA@ 0000000180030940     node-midi.obj
 0002:0000994c       ??_C@_06DKIGHACF@output?$AA@ 000000018003094c     node-midi.obj
 0002:00009958       ??_C@_0BF@NLDIIHHC@RtMidi?5Output?5Client?$AA@ 0000000180030958     node-midi.obj
 0002:00009970       ??_C@_0DJ@GBNDAIGD@Use?5the?5new?5operator?5to?5create?5i@ 0000000180030970     node-midi.obj
 0002:000099b0       ??_C@_0CC@PALCHOHL@First?5argument?5must?5be?5an?5intege@ 00000001800309b0     node-midi.obj
 0002:000099d8       ??_C@_0BJ@LOAHHABB@Invalid?5MIDI?5port?5number?$AA@ 00000001800309d8     node-midi.obj
 0002:000099f8       ??_C@_0O@FBCLBJCC@RtMidi?5Output?$AA@ 00000001800309f8     node-midi.obj
 0002:00009a08       ??_C@_0CA@PHEBDBMF@First?5argument?5must?5be?5a?5string?$AA@ 0000000180030a08     node-midi.obj
 0002:00009a28       ??_C@_0CA@NCHFCJGE@First?5argument?5must?5be?5an?5array?$AA@ 0000000180030a28     node-midi.obj
 0002:00009a48       ??_C@_06IJDLPEM@length?$AA@ 0000000180030a48     node-midi.obj
 0002:00009a50       ??_C@_04KNBGJDFM@emit?$AA@ 0000000180030a50     node-midi.obj
 0002:00009a58       ??_C@_07ONPBMBOP@message?$AA@ 0000000180030a58     node-midi.obj
 0002:00009a60       ??_C@_0O@CKDKHOOK@NodeMidiInput?$AA@ 0000000180030a60     node-midi.obj
 0002:00009a70       ??_C@_0M@HBNNCIJG@ignoreTypes?$AA@ 0000000180030a70     node-midi.obj
 0002:00009a7c       ??_C@_05DFJCHPDH@input?$AA@ 0000000180030a7c     node-midi.obj
 0002:00009a88       ??_C@_0BE@OLEEBCPA@RtMidi?5Input?5Client?$AA@ 0000000180030a88     node-midi.obj
 0002:00009aa0       ??_C@_0N@PDKKIMGH@RtMidi?5Input?$AA@ 0000000180030aa0     node-midi.obj
 0002:00009ab0       ??_C@_0BK@IICGJCCH@Arguments?5must?5be?5boolean?$AA@ 0000000180030ab0     node-midi.obj
 0002:00009ad0       ??_C@_0BF@MPGPKPIO@?4?4?2src?2node?9midi?4cpp?$AA@ 0000000180030ad0     node-midi.obj
 0002:00009ae8       ??_C@_04OFLALAIF@midi?$AA@ 0000000180030ae8     node-midi.obj
 0002:00009af0       ??_C@_02BBAHNLBA@?$CFp?$AA@ 0000000180030af0     node-midi.obj
 0002:00009af4       ??_C@_02MDKMJEGG@eE?$AA@   0000000180030af4     node-midi.obj
 0002:00009af8       ??_C@_02OOPEBDOJ@pP?$AA@   0000000180030af8     node-midi.obj
 0002:00009b00       ??_C@_0BM@NMJKDPPO@invalid?5vector?$DMT?$DO?5subscript?$AA@ 0000000180030b00     node-midi.obj
 0002:00009b20       ??_C@_0BI@CFPLBAOH@invalid?5string?5position?$AA@ 0000000180030b20     node-midi.obj
 0002:00009b38       ??_C@_0BD@OLBABOEK@vector?$DMT?$DO?5too?5long?$AA@ 0000000180030b38     node-midi.obj
 0002:00009b50       ??_C@_0BC@KBDMBKEH@deque?$DMT?$DO?5too?5long?$AA@ 0000000180030b50     node-midi.obj
 0002:00009b68       ??_C@_1CE@LNAGEONJ@?$AA?$CB?$AAo?$AAb?$AAj?$AAe?$AAc?$AAt?$AA?4?$AAI?$AAs?$AAE?$AAm?$AAp?$AAt?$AAy?$AA?$CI?$AA?$CJ?$AA?$AA@ 0000000180030b68     node-midi.obj
 0002:00009b90       ??_7?$basic_ostringstream@DU?$char_traits@D@std@@V?$allocator@D@2@@std@@6B@ 0000000180030b90     node-midi.obj
 0002:00009b98       ??_7?$basic_stringbuf@DU?$char_traits@D@std@@V?$allocator@D@2@@std@@6B@ 0000000180030b98     node-midi.obj
 0002:00009c10       ?symbol_message@@3PEBDEB   0000000180030c10     node-midi.obj
 0002:00009c18       ?symbol_emit@@3PEBDEB      0000000180030c18     node-midi.obj
 0002:00009c20       ??_7ObjectWrap@Nan@@6B@    0000000180030c20     node-midi.obj
 0002:00009c38       ??_7MidiInApi@@6B@         0000000180030c38     node-midi.obj
 0002:00009c80       ??_7NodeMidiInput@@6B@     0000000180030c80     node-midi.obj
 0002:00009c98       ??_8?$basic_ostream@DU?$char_traits@D@std@@@std@@7B@ 0000000180030c98     node-midi.obj
 0002:00009ca0       ??_7MidiInWinMM@@6B@       0000000180030ca0     node-midi.obj
 0002:00009ce8       ??_7exception@stdext@@6B@  0000000180030ce8     node-midi.obj
 0002:00009d00       ??_7MidiApi@@6B@           0000000180030d00     node-midi.obj
 0002:00009d40       ??_7RtMidiOut@@6B@         0000000180030d40     node-midi.obj
 0002:00009d40       ??_7RtMidiIn@@6B@          0000000180030d40     node-midi.obj
 0002:00009d80       ??_8?$basic_ostringstream@DU?$char_traits@D@std@@V?$allocator@D@2@@std@@7B@ 0000000180030d80     node-midi.obj
 0002:00009d88       ??_7RtMidi@@6B@            0000000180030d88     node-midi.obj
 0002:00009dc8       ??_7MidiOutWinMM@@6B@      0000000180030dc8     node-midi.obj
 0002:00009e10       ??_7RtMidiError@@6B@       0000000180030e10     node-midi.obj
 0002:00009e40       ??_7NodeMidiOutput@@6B@    0000000180030e40     node-midi.obj
 0002:00009e58       ??_C@_08HCOMDCCD@iojs?4exe?$AA@ 0000000180030e58     win_delay_load_hook.obj
 0002:00009e68       ??_C@_08JDDNMFDB@node?4exe?$AA@ 0000000180030e68     win_delay_load_hook.obj
 0002:0000a8a0       __real@38aa95a5b7f87a0f    00000001800318a0     node-midi.obj
 0002:0000a8a8       __real@3f50624dd2f1a9fc    00000001800318a8     node-midi.obj
 0002:0000a8b0       __real@3fe0000000000000    00000001800318b0     node-midi.obj
 0002:0000a8b8       __real@4202a05f20000000    00000001800318b8     node-midi.obj
 0002:0000a8c0       __real@4733426172c74d82    00000001800318c0     node-midi.obj
 0002:0000a8d0       __xmm@80000000000000008000000000000000 00000001800318d0     node-midi.obj
 0002:0000a8e0       _load_config_used          00000001800318e0     LIBCMT:loadcfg.obj
 0002:0000a9d0       ??_R4_Facet_base@std@@6B@  00000001800319d0     libcpmt:locale0.obj
 0002:0000a9f8       ??_R3_Facet_base@std@@8    00000001800319f8     libcpmt:locale0.obj
 0002:0000aa10       ??_R2_Facet_base@std@@8    0000000180031a10     libcpmt:locale0.obj
 0002:0000aa20       ??_R1A@?0A@EA@_Facet_base@std@@8 0000000180031a20     libcpmt:locale0.obj
 0002:0000aa48       ??_R4_Locimp@locale@std@@6B@ 0000000180031a48     libcpmt:locale0.obj
 0002:0000aa70       ??_R3_Locimp@locale@std@@8 0000000180031a70     libcpmt:locale0.obj
 0002:0000aa88       ??_R2_Locimp@locale@std@@8 0000000180031a88     libcpmt:locale0.obj
 0002:0000aaa8       ??_R1A@?0A@EA@_Locimp@locale@std@@8 0000000180031aa8     libcpmt:locale0.obj
 0002:0000aad0       ??_R1A@?0A@EA@facet@locale@std@@8 0000000180031ad0     libcpmt:locale0.obj
 0002:0000aaf8       ??_R3facet@locale@std@@8   0000000180031af8     libcpmt:locale0.obj
 0002:0000ab10       ??_R2facet@locale@std@@8   0000000180031b10     libcpmt:locale0.obj
 0002:0000ab28       ??_R1A@?0A@EA@exception@std@@8 0000000180031b28     libcpmt:xthrow.obj
 0002:0000ab50       ??_R3exception@std@@8      0000000180031b50     libcpmt:xthrow.obj
 0002:0000ab68       ??_R2exception@std@@8      0000000180031b68     libcpmt:xthrow.obj
 0002:0000ab78       ??_R4bad_alloc@std@@6B@    0000000180031b78     libcpmt:xthrow.obj
 0002:0000aba0       ??_R3bad_alloc@std@@8      0000000180031ba0     libcpmt:xthrow.obj
 0002:0000abb8       ??_R2bad_alloc@std@@8      0000000180031bb8     libcpmt:xthrow.obj
 0002:0000abd0       ??_R1A@?0A@EA@bad_alloc@std@@8 0000000180031bd0     libcpmt:xthrow.obj
 0002:0000abf8       ??_R4logic_error@std@@6B@  0000000180031bf8     libcpmt:xthrow.obj
 0002:0000ac20       ??_R3logic_error@std@@8    0000000180031c20     libcpmt:xthrow.obj
 0002:0000ac38       ??_R2logic_error@std@@8    0000000180031c38     libcpmt:xthrow.obj
 0002:0000ac50       ??_R1A@?0A@EA@logic_error@std@@8 0000000180031c50     libcpmt:xthrow.obj
 0002:0000ac78       ??_R4length_error@std@@6B@ 0000000180031c78     libcpmt:xthrow.obj
 0002:0000aca0       ??_R3length_error@std@@8   0000000180031ca0     libcpmt:xthrow.obj
 0002:0000acb8       ??_R2length_error@std@@8   0000000180031cb8     libcpmt:xthrow.obj
 0002:0000acd8       ??_R1A@?0A@EA@length_error@std@@8 0000000180031cd8     libcpmt:xthrow.obj
 0002:0000ad00       ??_R4out_of_range@std@@6B@ 0000000180031d00     libcpmt:xthrow.obj
 0002:0000ad28       ??_R3out_of_range@std@@8   0000000180031d28     libcpmt:xthrow.obj
 0002:0000ad40       ??_R2out_of_range@std@@8   0000000180031d40     libcpmt:xthrow.obj
 0002:0000ad60       ??_R1A@?0A@EA@out_of_range@std@@8 0000000180031d60     libcpmt:xthrow.obj
 0002:0000ad88       ??_R4runtime_error@std@@6B@ 0000000180031d88     libcpmt:xthrow.obj
 0002:0000adb0       ??_R3runtime_error@std@@8  0000000180031db0     libcpmt:xthrow.obj
 0002:0000adc8       ??_R2runtime_error@std@@8  0000000180031dc8     libcpmt:xthrow.obj
 0002:0000ade0       ??_R1A@?0A@EA@runtime_error@std@@8 0000000180031de0     libcpmt:xthrow.obj
 0002:0000ae08       ??_R4ios_base@std@@6B@     0000000180031e08     libcpmt:cerr.obj
 0002:0000ae30       ??_R3ios_base@std@@8       0000000180031e30     libcpmt:cerr.obj
 0002:0000ae48       ??_R2ios_base@std@@8       0000000180031e48     libcpmt:cerr.obj
 0002:0000ae60       ??_R1A@?0A@EA@ios_base@std@@8 0000000180031e60     libcpmt:cerr.obj
 0002:0000ae88       ??_R17?0A@EA@?$_Iosb@H@std@@8 0000000180031e88     libcpmt:cerr.obj
 0002:0000aeb0       ??_R3?$_Iosb@H@std@@8      0000000180031eb0     libcpmt:cerr.obj
 0002:0000aec8       ??_R2?$_Iosb@H@std@@8      0000000180031ec8     libcpmt:cerr.obj
 0002:0000aed8       ??_R1A@?0A@EA@?$_Iosb@H@std@@8 0000000180031ed8     libcpmt:cerr.obj
 0002:0000af00       ??_R4?$basic_ios@DU?$char_traits@D@std@@@std@@6B@ 0000000180031f00     libcpmt:cerr.obj
 0002:0000af28       ??_R3?$basic_ios@DU?$char_traits@D@std@@@std@@8 0000000180031f28     libcpmt:cerr.obj
 0002:0000af40       ??_R2?$basic_ios@DU?$char_traits@D@std@@@std@@8 0000000180031f40     libcpmt:cerr.obj
 0002:0000af60       ??_R1A@?0A@EA@?$basic_ios@DU?$char_traits@D@std@@@std@@8 0000000180031f60     libcpmt:cerr.obj
 0002:0000af88       ??_R4?$basic_streambuf@DU?$char_traits@D@std@@@std@@6B@ 0000000180031f88     libcpmt:cerr.obj
 0002:0000afb0       ??_R3?$basic_streambuf@DU?$char_traits@D@std@@@std@@8 0000000180031fb0     libcpmt:cerr.obj
 0002:0000afc8       ??_R2?$basic_streambuf@DU?$char_traits@D@std@@@std@@8 0000000180031fc8     libcpmt:cerr.obj
 0002:0000afd8       ??_R1A@?0A@EA@?$basic_streambuf@DU?$char_traits@D@std@@@std@@8 0000000180031fd8     libcpmt:cerr.obj
 0002:0000b000       ??_R1A@A@3FA@?$basic_ios@DU?$char_traits@D@std@@@std@@8 0000000180032000     libcpmt:cerr.obj
 0002:0000b028       ??_R1A@A@3EA@ios_base@std@@8 0000000180032028     libcpmt:cerr.obj
 0002:0000b050       ??_R17A@3EA@?$_Iosb@H@std@@8 0000000180032050     libcpmt:cerr.obj
 0002:0000b078       ??_R4?$basic_ostream@DU?$char_traits@D@std@@@std@@6B@ 0000000180032078     libcpmt:cerr.obj
 0002:0000b0a0       ??_R3?$basic_ostream@DU?$char_traits@D@std@@@std@@8 00000001800320a0     libcpmt:cerr.obj
 0002:0000b0b8       ??_R2?$basic_ostream@DU?$char_traits@D@std@@@std@@8 00000001800320b8     libcpmt:cerr.obj
 0002:0000b0e0       ??_R1A@?0A@EA@?$basic_ostream@DU?$char_traits@D@std@@@std@@8 00000001800320e0     libcpmt:cerr.obj
 0002:0000b108       ??_R4?$basic_filebuf@DU?$char_traits@D@std@@@std@@6B@ 0000000180032108     libcpmt:cerr.obj
 0002:0000b130       ??_R3?$basic_filebuf@DU?$char_traits@D@std@@@std@@8 0000000180032130     libcpmt:cerr.obj
 0002:0000b148       ??_R2?$basic_filebuf@DU?$char_traits@D@std@@@std@@8 0000000180032148     libcpmt:cerr.obj
 0002:0000b160       ??_R1A@?0A@EA@?$basic_filebuf@DU?$char_traits@D@std@@@std@@8 0000000180032160     libcpmt:cerr.obj
 0002:0000b188       ??_R3codecvt_base@std@@8   0000000180032188     libcpmt:cerr.obj
 0002:0000b1a0       ??_R2codecvt_base@std@@8   00000001800321a0     libcpmt:cerr.obj
 0002:0000b1c0       ??_R1A@?0A@EA@codecvt_base@std@@8 00000001800321c0     libcpmt:cerr.obj
 0002:0000b1e8       ??_R3ctype_base@std@@8     00000001800321e8     libcpmt:cerr.obj
 0002:0000b200       ??_R2ctype_base@std@@8     0000000180032200     libcpmt:cerr.obj
 0002:0000b220       ??_R1A@?0A@EA@ctype_base@std@@8 0000000180032220     libcpmt:cerr.obj
 0002:0000b248       ??_R4?$ctype@D@std@@6B@    0000000180032248     libcpmt:cerr.obj
 0002:0000b270       ??_R3?$ctype@D@std@@8      0000000180032270     libcpmt:cerr.obj
 0002:0000b288       ??_R2?$ctype@D@std@@8      0000000180032288     libcpmt:cerr.obj
 0002:0000b2b0       ??_R1A@?0A@EA@?$ctype@D@std@@8 00000001800322b0     libcpmt:cerr.obj
 0002:0000b2d8       ??_R4_System_error@std@@6B@ 00000001800322d8     libcpmt:cerr.obj
 0002:0000b300       ??_R3_System_error@std@@8  0000000180032300     libcpmt:cerr.obj
 0002:0000b318       ??_R2_System_error@std@@8  0000000180032318     libcpmt:cerr.obj
 0002:0000b338       ??_R1A@?0A@EA@_System_error@std@@8 0000000180032338     libcpmt:cerr.obj
 0002:0000b360       ??_R4system_error@std@@6B@ 0000000180032360     libcpmt:cerr.obj
 0002:0000b388       ??_R3system_error@std@@8   0000000180032388     libcpmt:cerr.obj
 0002:0000b3a0       ??_R2system_error@std@@8   00000001800323a0     libcpmt:cerr.obj
 0002:0000b3c8       ??_R1A@?0A@EA@system_error@std@@8 00000001800323c8     libcpmt:cerr.obj
 0002:0000b3f0       ??_R4failure@ios_base@std@@6B@ 00000001800323f0     libcpmt:cerr.obj
 0002:0000b418       ??_R3failure@ios_base@std@@8 0000000180032418     libcpmt:cerr.obj
 0002:0000b430       ??_R2failure@ios_base@std@@8 0000000180032430     libcpmt:cerr.obj
 0002:0000b460       ??_R1A@?0A@EA@failure@ios_base@std@@8 0000000180032460     libcpmt:cerr.obj
 0002:0000b488       ??_R4?$codecvt@DDH@std@@6B@ 0000000180032488     libcpmt:cerr.obj
 0002:0000b4b0       ??_R3?$codecvt@DDH@std@@8  00000001800324b0     libcpmt:cerr.obj
 0002:0000b4c8       ??_R2?$codecvt@DDH@std@@8  00000001800324c8     libcpmt:cerr.obj
 0002:0000b4f0       ??_R1A@?0A@EA@?$codecvt@DDH@std@@8 00000001800324f0     libcpmt:cerr.obj
 0002:0000b518       ??_R4?$num_put@DV?$ostreambuf_iterator@DU?$char_traits@D@std@@@std@@@std@@6B@ 0000000180032518     libcpmt:locale.obj
 0002:0000b540       ??_R3?$num_put@DV?$ostreambuf_iterator@DU?$char_traits@D@std@@@std@@@std@@8 0000000180032540     libcpmt:locale.obj
 0002:0000b558       ??_R2?$num_put@DV?$ostreambuf_iterator@DU?$char_traits@D@std@@@std@@@std@@8 0000000180032558     libcpmt:locale.obj
 0002:0000b578       ??_R1A@?0A@EA@?$num_put@DV?$ostreambuf_iterator@DU?$char_traits@D@std@@@std@@@std@@8 0000000180032578     libcpmt:locale.obj
 0002:0000b5a0       ??_R4?$numpunct@D@std@@6B@ 00000001800325a0     libcpmt:locale.obj
 0002:0000b5c8       ??_R3?$numpunct@D@std@@8   00000001800325c8     libcpmt:locale.obj
 0002:0000b5e0       ??_R2?$numpunct@D@std@@8   00000001800325e0     libcpmt:locale.obj
 0002:0000b600       ??_R1A@?0A@EA@?$numpunct@D@std@@8 0000000180032600     libcpmt:locale.obj
 0002:0000b628       ??_R4type_info@@6B@        0000000180032628     LIBCMT:typinfo.obj
 0002:0000b650       ??_R3type_info@@8          0000000180032650     LIBCMT:typinfo.obj
 0002:0000b668       ??_R2type_info@@8          0000000180032668     LIBCMT:typinfo.obj
 0002:0000b678       ??_R1A@?0A@EA@type_info@@8 0000000180032678     LIBCMT:typinfo.obj
 0002:0000b6a0       ??_R4exception@std@@6B@    00000001800326a0     LIBCMT:stdexcpt.obj
 0002:0000b6c8       ??_R4bad_cast@std@@6B@     00000001800326c8     LIBCMT:stdexcpt.obj
 0002:0000b6f0       ??_R3bad_cast@std@@8       00000001800326f0     LIBCMT:stdexcpt.obj
 0002:0000b708       ??_R2bad_cast@std@@8       0000000180032708     LIBCMT:stdexcpt.obj
 0002:0000b720       ??_R1A@?0A@EA@bad_cast@std@@8 0000000180032720     LIBCMT:stdexcpt.obj
 0002:0000b748       ??_R4bad_exception@std@@6B@ 0000000180032748     LIBCMT:frame.obj
 0002:0000b770       ??_R3bad_exception@std@@8  0000000180032770     LIBCMT:frame.obj
 0002:0000b788       ??_R2bad_exception@std@@8  0000000180032788     LIBCMT:frame.obj
 0002:0000b7a0       ??_R1A@?0A@EA@bad_exception@std@@8 00000001800327a0     LIBCMT:frame.obj
 0002:0000b7c8       __rtc_iaa                  00000001800327c8     LIBCMT:initsect.obj
 0002:0000b7d0       __rtc_izz                  00000001800327d0     LIBCMT:initsect.obj
 0002:0000b7d8       __rtc_taa                  00000001800327d8     LIBCMT:initsect.obj
 0002:0000b7e0       __rtc_tzz                  00000001800327e0     LIBCMT:initsect.obj
 0002:0000e840       _TI2?AVbad_alloc@std@@     0000000180035840     libcpmt:xthrow.obj
 0002:0000e860       _CTA2?AVbad_alloc@std@@    0000000180035860     libcpmt:xthrow.obj
 0002:0000e878       _CT??_R0?AVbad_alloc@std@@@8??0bad_alloc@std@@QEAA@AEBV01@@Z24 0000000180035878     libcpmt:xthrow.obj
 0002:0000e8a0       _CT??_R0?AVexception@std@@@8??0exception@std@@QEAA@AEBV01@@Z24 00000001800358a0     libcpmt:xthrow.obj
 0002:0000e8c8       _CT??_R0?AVlogic_error@std@@@8??0logic_error@std@@QEAA@AEBV01@@Z24 00000001800358c8     libcpmt:xthrow.obj
 0002:0000e8f0       _TI3?AVlength_error@std@@  00000001800358f0     libcpmt:xthrow.obj
 0002:0000e910       _CTA3?AVlength_error@std@@ 0000000180035910     libcpmt:xthrow.obj
 0002:0000e930       _CT??_R0?AVlength_error@std@@@8??0length_error@std@@QEAA@AEBV01@@Z24 0000000180035930     libcpmt:xthrow.obj
 0002:0000e958       _TI3?AVout_of_range@std@@  0000000180035958     libcpmt:xthrow.obj
 0002:0000e978       _CTA3?AVout_of_range@std@@ 0000000180035978     libcpmt:xthrow.obj
 0002:0000e998       _CT??_R0?AVout_of_range@std@@@8??0out_of_range@std@@QEAA@AEBV01@@Z24 0000000180035998     libcpmt:xthrow.obj
 0002:0000e9c0       _TI2?AVbad_cast@std@@      00000001800359c0     libcpmt:cerr.obj
 0002:0000e9e0       _CTA2?AVbad_cast@std@@     00000001800359e0     libcpmt:cerr.obj
 0002:0000e9f8       _CT??_R0?AVbad_cast@std@@@8??0bad_cast@std@@QEAA@AEBV01@@Z24 00000001800359f8     libcpmt:cerr.obj
 0002:0000ea20       _TI2?AVbad_exception@std@@ 0000000180035a20     LIBCMT:frame.obj
 0002:0000ea40       _CTA2?AVbad_exception@std@@ 0000000180035a40     LIBCMT:frame.obj
 0002:0000ea58       _CT??_R0?AVbad_exception@std@@@8??0bad_exception@std@@QEAA@AEBV01@@Z24 0000000180035a58     LIBCMT:frame.obj
 0002:0000ea80       _TI2?AVRtMidiError@@       0000000180035a80     node-midi.obj
 0002:0000eaa0       _CT??_R0?AVRtMidiError@@@8??0RtMidiError@@QEAA@AEBV0@@Z56 0000000180035aa0     node-midi.obj
 0002:0000eac8       _CTA2?AVRtMidiError@@      0000000180035ac8     node-midi.obj
 0002:0000eae0       _CT??_R0?AVexception@stdext@@@8??0exception@stdext@@QEAA@AEBV01@@Z16 0000000180035ae0     node-midi.obj
 0002:0000eb04       __DELAY_IMPORT_DESCRIPTOR_node_exe 0000000180035b04     node:node.exe
 0002:0000eb24       __NULL_DELAY_IMPORT_DESCRIPTOR 0000000180035b24     node:node.exe
 0002:0000ed48       \177node_NULL_THUNK_DATA_DLN 0000000180035d48     node:node.exe
 0002:0000fc80       \177node_NULL_THUNK_DATA_DLB 0000000180036c80     node:node.exe
 0002:0000fecc       __IMPORT_DESCRIPTOR_KERNEL32 0000000180036ecc     kernel32:KERNEL32.dll
 0002:0000fee0       __IMPORT_DESCRIPTOR_WINMM  0000000180036ee0     winmm:WINMM.dll
 0002:0000fef4       __NULL_IMPORT_DESCRIPTOR   0000000180036ef4     kernel32:KERNEL32.dll
 0003:00000000       ?_Sync@ios_base@std@@0_NA  0000000180038000     libcpmt:ios.obj
 0003:00000020       ?_PJP_CPP_Copyright@@3PADA 0000000180038020     libcpmt:iosptrs.obj
 0003:00000080       _FDenorm                   0000000180038080     libcpmt:xfvalues.obj
 0003:00000090       _FInf                      0000000180038090     libcpmt:xfvalues.obj
 0003:000000a0       _FNan                      00000001800380a0     libcpmt:xfvalues.obj
 0003:000000b0       _FSnan                     00000001800380b0     libcpmt:xfvalues.obj
 0003:000000c0       _FEps                      00000001800380c0     libcpmt:xfvalues.obj
 0003:000000d0       _FRteps                    00000001800380d0     libcpmt:xfvalues.obj
 0003:000000e0       _FXbig                     00000001800380e0     libcpmt:xfvalues.obj
 0003:000000e8       _Denorm                    00000001800380e8     libcpmt:xvalues.obj
 0003:000000f8       _Hugeval                   00000001800380f8     libcpmt:xvalues.obj
 0003:00000108       _Inf                       0000000180038108     libcpmt:xvalues.obj
 0003:00000118       _Nan                       0000000180038118     libcpmt:xvalues.obj
 0003:00000128       _Snan                      0000000180038128     libcpmt:xvalues.obj
 0003:00000138       _Eps                       0000000180038138     libcpmt:xvalues.obj
 0003:00000148       _Rteps                     0000000180038148     libcpmt:xvalues.obj
 0003:00000158       _Xbig                      0000000180038158     libcpmt:xvalues.obj
 0003:00000160       _LDenorm                   0000000180038160     libcpmt:xlvalues.obj
 0003:00000170       _LInf                      0000000180038170     libcpmt:xlvalues.obj
 0003:00000180       _LNan                      0000000180038180     libcpmt:xlvalues.obj
 0003:00000190       _LSnan                     0000000180038190     libcpmt:xlvalues.obj
 0003:000001a0       _LEps                      00000001800381a0     libcpmt:xlvalues.obj
 0003:000001b0       _LRteps                    00000001800381b0     libcpmt:xlvalues.obj
 0003:000001c0       _LXbig                     00000001800381c0     libcpmt:xlvalues.obj
 0003:000001d0       __abort_behavior           00000001800381d0     LIBCMT:abort.obj
 0003:000001e0       __lconv_c                  00000001800381e0     LIBCMT:lconv.obj
 0003:00000278       __lconv_static_decimal     0000000180038278     LIBCMT:lconv.obj
 0003:0000027c       __lconv_static_W_decimal   000000018003827c     LIBCMT:lconv.obj
 0003:00000280       __lconv                    0000000180038280     LIBCMT:lconv.obj
 0003:00000470       _fltused                   0000000180038470     LIBCMT:fpinit.obj
 0003:00000474       _ldused                    0000000180038474     LIBCMT:fpinit.obj
 0003:00000480       _iob                       0000000180038480     LIBCMT:_file.obj
 0003:00000840       __security_cookie          0000000180038840     LIBCMT:gs_cookie.obj
 0003:00000848       __security_cookie_complement 0000000180038848     LIBCMT:gs_cookie.obj
 0003:00000a90       _pctype                    0000000180038a90     LIBCMT:ctype.obj
 0003:00000a98       _pwctype                   0000000180038a98     LIBCMT:ctype.obj
 0003:00000ab0       __nullstring               0000000180038ab0     LIBCMT:output.obj
 0003:00000ab8       __wnullstring              0000000180038ab8     LIBCMT:output.obj
 0003:00000ac0       __isa_available            0000000180038ac0     LIBCMT:cpu_disp.obj
 0003:00000ac4       __isa_enabled              0000000180038ac4     LIBCMT:cpu_disp.obj
 0003:00000ac8       __flsindex                 0000000180038ac8     LIBCMT:tidtable.obj
 0003:00000acc       __mb_cur_max               0000000180038acc     LIBCMT:nlsdata.obj
 0003:00000ad0       __wclocalestr              0000000180038ad0     LIBCMT:nlsdata.obj
 0003:00000ae0       __lc_time_c                0000000180038ae0     LIBCMT:nlsdata.obj
 0003:00000da0       __ptlocinfo                0000000180038da0     LIBCMT:nlsdata.obj
 0003:00000db0       __initiallocinfo           0000000180038db0     LIBCMT:nlsdata.obj
 0003:00000f08       __globallocalestatus       0000000180038f08     LIBCMT:glstatus.obj
 0003:00000f10       _mbctype                   0000000180038f10     LIBCMT:mbctype.obj
 0003:00001020       _mbcasemap                 0000000180039020     LIBCMT:mbctype.obj
 0003:00001120       __initialmbcinfo           0000000180039120     LIBCMT:mbctype.obj
 0003:00001440       __ptmbcinfo                0000000180039440     LIBCMT:mbctype.obj
 0003:00001450       __badioinfo                0000000180039450     LIBCMT:ioinit.obj
 0003:000014b0       _cfltcvt_tab               00000001800394b0     LIBCMT:cmiscdat.obj
 0003:00001500       _d_inf                     0000000180039500     LIBCMT:util.obj
 0003:00001508       _d_ind                     0000000180039508     LIBCMT:util.obj
 0003:00001510       _d_max                     0000000180039510     LIBCMT:util.obj
 0003:00001518       _d_min                     0000000180039518     LIBCMT:util.obj
 0003:00001520       _d_mzero                   0000000180039520     LIBCMT:util.obj
 0003:00001720       _timezone                  0000000180039720     LIBCMT:timeset.obj
 0003:00001724       _daylight                  0000000180039724     LIBCMT:timeset.obj
 0003:00001728       _dstbias                   0000000180039728     LIBCMT:timeset.obj
 0003:000017b0       _tzname                    00000001800397b0     LIBCMT:timeset.obj
 0003:000017c0       _matherr_flag              00000001800397c0     LIBCMT:matherr.obj
 0003:000017d0       _lookuptrailbytes          00000001800397d0     LIBCMT:read.obj
 0003:000018d0       _days                      00000001800398d0     LIBCMT:days.obj
 0003:00001908       _lpdays                    0000000180039908     LIBCMT:days.obj
 0003:00001970       _confh                     0000000180039970     LIBCMT:initcon.obj
 0003:00001980       _pow10pos                  0000000180039980     LIBCMT:constpow.obj
 0003:00001ae0       _pow10neg                  0000000180039ae0     LIBCMT:constpow.obj
 0003:00001c40       _HUGE                      0000000180039c40     LIBCMT:huge.obj
 0003:00001c90       __pfnDliNotifyHook2        0000000180039c90     win_delay_load_hook.obj
 0003:00001ca0       ??_R0?AV_Facet_base@std@@@8 0000000180039ca0     libcpmt:locale0.obj
 0003:00001cc8       ??_R0?AV_Locimp@locale@std@@@8 0000000180039cc8     libcpmt:locale0.obj
 0003:00001cf8       ??_R0?AVfacet@locale@std@@@8 0000000180039cf8     libcpmt:locale0.obj
 0003:00001d20       ??_R0?AVbad_alloc@std@@@8  0000000180039d20     libcpmt:xthrow.obj
 0003:00001d48       ??_R0?AVexception@std@@@8  0000000180039d48     libcpmt:xthrow.obj
 0003:00001d70       ??_R0?AVlogic_error@std@@@8 0000000180039d70     libcpmt:xthrow.obj
 0003:00001d98       ??_R0?AVlength_error@std@@@8 0000000180039d98     libcpmt:xthrow.obj
 0003:00001dc0       ??_R0?AVout_of_range@std@@@8 0000000180039dc0     libcpmt:xthrow.obj
 0003:00001de8       ??_R0?AVruntime_error@std@@@8 0000000180039de8     libcpmt:xthrow.obj
 0003:00001e10       ??_R0?AVfailure@ios_base@std@@@8 0000000180039e10     libcpmt:cerr.obj
 0003:00001e40       ??_R0?AVsystem_error@std@@@8 0000000180039e40     libcpmt:cerr.obj
 0003:00001e68       ??_R0?AV_System_error@std@@@8 0000000180039e68     libcpmt:cerr.obj
 0003:00001e90       ??_R0?AVbad_cast@std@@@8   0000000180039e90     libcpmt:cerr.obj
 0003:00001eb8       ??_R0?AVios_base@std@@@8   0000000180039eb8     libcpmt:cerr.obj
 0003:00001ee0       ??_R0?AV?$_Iosb@H@std@@@8  0000000180039ee0     libcpmt:cerr.obj
 0003:00001f08       ??_R0?AV?$basic_ios@DU?$char_traits@D@std@@@std@@@8 0000000180039f08     libcpmt:cerr.obj
 0003:00001f50       ??_R0?AV?$basic_streambuf@DU?$char_traits@D@std@@@std@@@8 0000000180039f50     libcpmt:cerr.obj
 0003:00001fa0       ??_R0?AV?$basic_ostream@DU?$char_traits@D@std@@@std@@@8 0000000180039fa0     libcpmt:cerr.obj
 0003:00001ff0       ??_R0?AV?$basic_filebuf@DU?$char_traits@D@std@@@std@@@8 0000000180039ff0     libcpmt:cerr.obj
 0003:00002038       ??_R0?AVcodecvt_base@std@@@8 000000018003a038     libcpmt:cerr.obj
 0003:00002060       ??_R0?AUctype_base@std@@@8 000000018003a060     libcpmt:cerr.obj
 0003:00002088       ??_R0?AV?$ctype@D@std@@@8  000000018003a088     libcpmt:cerr.obj
 0003:000020b0       ??_R0?AV?$codecvt@DDH@std@@@8 000000018003a0b0     libcpmt:cerr.obj
 0003:000020e0       ??_R0?AV?$num_put@DV?$ostreambuf_iterator@DU?$char_traits@D@std@@@std@@@std@@@8 000000018003a0e0     libcpmt:locale.obj
 0003:00002140       ??_R0?AV?$numpunct@D@std@@@8 000000018003a140     libcpmt:locale.obj
 0003:00002168       ??_R0?AVtype_info@@@8      000000018003a168     LIBCMT:typinfo.obj
 0003:00002188       ??_R0?AVbad_exception@std@@@8 000000018003a188     LIBCMT:frame.obj
 0003:000021b0       ??_R0?AVRtMidiError@@@8    000000018003a1b0     node-midi.obj
 0003:000021d8       ??_R0?AVexception@stdext@@@8 000000018003a1d8     node-midi.obj
 0003:00002200       __imp_node_module_register 000000018003a200     node:node.exe
 0003:00002208       __imp_?MakeCallback@node@@YA?AV?$Local@VValue@v8@@@v8@@PEAVIsolate@3@V?$Local@VObject@v8@@@3@V?$Local@VFunction@v8@@@3@HPEAV23@@Z 000000018003a208     node:node.exe
 0003:00002210       __imp_uv_default_loop      000000018003a210     node:node.exe
 0003:00002218       __imp_?New@Signature@v8@@SA?AV?$Local@VSignature@v8@@@2@PEAVIsolate@2@V?$Local@VFunctionTemplate@v8@@@2@@Z 000000018003a218     node:node.exe
 0003:00002220       __imp_?ToLocalEmpty@V8@v8@@CAXXZ 000000018003a220     node:node.exe
 0003:00002228       __imp_?ClearWeak@V8@v8@@CAPEAXPEAPEAVObject@internal@2@@Z 000000018003a228     node:node.exe
 0003:00002230       __imp_?MakeWeak@V8@v8@@CAXPEAPEAVObject@internal@2@PEAXP6AXAEBV?$WeakCallbackInfo@X@2@@ZW4WeakCallbackType@2@@Z 000000018003a230     node:node.exe
 0003:00002238       __imp_?DisposeGlobal@V8@v8@@CAXPEAPEAVObject@internal@2@@Z 000000018003a238     node:node.exe
 0003:00002240       __imp_?GlobalizeReference@V8@v8@@CAPEAPEAVObject@internal@2@PEAVIsolate@42@PEAPEAV342@@Z 000000018003a240     node:node.exe
 0003:00002248       __imp_?Escape@EscapableHandleScope@v8@@AEAAPEAPEAVObject@internal@2@PEAPEAV342@@Z 000000018003a248     node:node.exe
 0003:00002250       __imp_??0EscapableHandleScope@v8@@QEAA@PEAVIsolate@1@@Z 000000018003a250     node:node.exe
 0003:00002258       __imp_?Int32Value@Value@v8@@QEBAHXZ 000000018003a258     node:node.exe
 0003:00002260       __imp_?Uint32Value@Value@v8@@QEBAIXZ 000000018003a260     node:node.exe
 0003:00002268       __imp_?BooleanValue@Value@v8@@QEBA_NXZ 000000018003a268     node:node.exe
 0003:00002270       __imp_?ToUint32@Value@v8@@QEBA?AV?$MaybeLocal@VUint32@v8@@@2@V?$Local@VContext@v8@@@2@@Z 000000018003a270     node:node.exe
 0003:00002278       __imp_?ToInteger@Value@v8@@QEBA?AV?$MaybeLocal@VInteger@v8@@@2@V?$Local@VContext@v8@@@2@@Z 000000018003a278     node:node.exe
 0003:00002280       __imp_?IsUint32@Value@v8@@QEBA_NXZ 000000018003a280     node:node.exe
 0003:00002288       __imp_?IsBoolean@Value@v8@@QEBA_NXZ 000000018003a288     node:node.exe
 0003:00002290       __imp_?IsArray@Value@v8@@QEBA_NXZ 000000018003a290     node:node.exe
 0003:00002298       __imp_?SetClassName@FunctionTemplate@v8@@QEAAXV?$Local@VString@v8@@@2@@Z 000000018003a298     node:node.exe
 0003:000022a0       __imp_?PrototypeTemplate@FunctionTemplate@v8@@QEAA?AV?$Local@VObjectTemplate@v8@@@2@XZ 000000018003a2a0     node:node.exe
 0003:000022a8       __imp_?InstanceTemplate@FunctionTemplate@v8@@QEAA?AV?$Local@VObjectTemplate@v8@@@2@XZ 000000018003a2a8     node:node.exe
 0003:000022b0       __imp_?GetFunction@FunctionTemplate@v8@@QEAA?AV?$Local@VFunction@v8@@@2@XZ 000000018003a2b0     node:node.exe
 0003:000022b8       __imp_?GetFunction@FunctionTemplate@v8@@QEAA?AV?$MaybeLocal@VFunction@v8@@@2@V?$Local@VContext@v8@@@2@@Z 000000018003a2b8     node:node.exe
 0003:000022c0       __imp_?New@FunctionTemplate@v8@@SA?AV?$Local@VFunctionTemplate@v8@@@2@PEAVIsolate@2@P6AXAEBV?$FunctionCallbackInfo@VValue@v8@@@2@@ZV?$Local@VValue@v8@@@2@V?$Local@VSignature@v8@@@2@H@Z 000000018003a2c0     node:node.exe
 0003:000022c8       __imp_?TypeError@Exception@v8@@SA?AV?$Local@VValue@v8@@@2@V?$Local@VString@v8@@@2@@Z 000000018003a2c8     node:node.exe
 0003:000022d0       __imp_?RangeError@Exception@v8@@SA?AV?$Local@VValue@v8@@@2@V?$Local@VString@v8@@@2@@Z 000000018003a2d0     node:node.exe
 0003:000022d8       __imp_??1Utf8Value@String@v8@@QEAA@XZ 000000018003a2d8     node:node.exe
 0003:000022e0       __imp_??0Utf8Value@String@v8@@QEAA@V?$Local@VValue@v8@@@2@@Z 000000018003a2e0     node:node.exe
 0003:000022e8       __imp_?NewFromUtf8@String@v8@@SA?AV?$MaybeLocal@VString@v8@@@2@PEAVIsolate@2@PEBDW4NewStringType@2@H@Z 000000018003a2e8     node:node.exe
 0003:000022f0       __imp_?New@Array@v8@@SA?AV?$Local@VArray@v8@@@2@PEAVIsolate@2@H@Z 000000018003a2f0     node:node.exe
 0003:000022f8       __imp_?CreateHandle@HandleScope@v8@@KAPEAPEAVObject@internal@2@PEAVIsolate@42@PEAV342@@Z 000000018003a2f8     node:node.exe
 0003:00002300       __imp_?CreateHandle@HandleScope@v8@@CAPEAPEAVObject@internal@2@PEAVHeapObject@42@PEAV342@@Z 000000018003a300     node:node.exe
 0003:00002308       __imp_??1HandleScope@v8@@QEAA@XZ 000000018003a308     node:node.exe
 0003:00002310       __imp_??0HandleScope@v8@@QEAA@PEAVIsolate@1@@Z 000000018003a310     node:node.exe
 0003:00002318       __imp_?New@Number@v8@@SA?AV?$Local@VNumber@v8@@@2@PEAVIsolate@2@N@Z 000000018003a318     node:node.exe
 0003:00002320       __imp_?SlowGetAlignedPointerFromInternalField@Object@v8@@AEAAPEAXH@Z 000000018003a320     node:node.exe
 0003:00002328       __imp_?SlowGetInternalField@Object@v8@@AEAA?AV?$Local@VValue@v8@@@2@H@Z 000000018003a328     node:node.exe
 0003:00002330       __imp_?SetAlignedPointerInInternalField@Object@v8@@QEAAXHPEAX@Z 000000018003a330     node:node.exe
 0003:00002338       __imp_?SetInternalField@Object@v8@@QEAAXHV?$Local@VValue@v8@@@2@@Z 000000018003a338     node:node.exe
 0003:00002340       __imp_?InternalFieldCount@Object@v8@@QEAAHXZ 000000018003a340     node:node.exe
 0003:00002348       __imp_?Get@Object@v8@@QEAA?AV?$Local@VValue@v8@@@2@V32@@Z 000000018003a348     node:node.exe
 0003:00002350       __imp_?Set@Object@v8@@QEAA_NV?$Local@VValue@v8@@@2@0@Z 000000018003a350     node:node.exe
 0003:00002358       __imp_?Set@Template@v8@@QEAAXV?$Local@VName@v8@@@2@V?$Local@VData@v8@@@2@W4PropertyAttribute@2@@Z 000000018003a358     node:node.exe
 0003:00002360       __imp_?SetInternalFieldCount@ObjectTemplate@v8@@QEAAXH@Z 000000018003a360     node:node.exe
 0003:00002368       __imp_?NewInstance@ObjectTemplate@v8@@QEAA?AV?$MaybeLocal@VObject@v8@@@2@V?$Local@VContext@v8@@@2@@Z 000000018003a368     node:node.exe
 0003:00002370       __imp_?New@ObjectTemplate@v8@@SA?AV?$Local@VObjectTemplate@v8@@@2@PEAVIsolate@2@V?$Local@VFunctionTemplate@v8@@@2@@Z 000000018003a370     node:node.exe
 0003:00002378       __imp_?NewFromUnsigned@Integer@v8@@SA?AV?$Local@VInteger@v8@@@2@PEAVIsolate@2@I@Z 000000018003a378     node:node.exe
 0003:00002380       __imp_?New@Integer@v8@@SA?AV?$Local@VInteger@v8@@@2@PEAVIsolate@2@H@Z 000000018003a380     node:node.exe
 0003:00002388       __imp_?SetName@Function@v8@@QEAAXV?$Local@VString@v8@@@2@@Z 000000018003a388     node:node.exe
 0003:00002390       __imp_?ThrowException@Isolate@v8@@QEAA?AV?$Local@VValue@v8@@@2@V32@@Z 000000018003a390     node:node.exe
 0003:00002398       __imp_?GetCurrentContext@Isolate@v8@@QEAA?AV?$Local@VContext@v8@@@2@XZ 000000018003a398     node:node.exe
 0003:000023a0       __imp_?GetCurrent@Isolate@v8@@SAPEAV12@XZ 000000018003a3a0     node:node.exe
 0003:000023a8       __imp_?Value@External@v8@@QEBAPEAXXZ 000000018003a3a8     node:node.exe
 0003:000023b0       __imp_?New@External@v8@@SA?AV?$Local@VExternal@v8@@@2@PEAVIsolate@2@PEAX@Z 000000018003a3b0     node:node.exe
 0003:000023b8       __imp_uv_mutex_unlock      000000018003a3b8     node:node.exe
 0003:000023c0       __imp_uv_mutex_lock        000000018003a3c0     node:node.exe
 0003:000023c8       __imp_uv_async_send        000000018003a3c8     node:node.exe
 0003:000023d0       __imp_uv_mutex_destroy     000000018003a3d0     node:node.exe
 0003:000023d8       __imp_uv_async_init        000000018003a3d8     node:node.exe
 0003:000023e0       __imp_uv_close             000000018003a3e0     node:node.exe
 0003:000023e8       __imp_uv_mutex_init        000000018003a3e8     node:node.exe
 0003:000023f0       __imp_?ToObject@Value@v8@@QEBA?AV?$Local@VObject@v8@@@2@XZ 000000018003a3f0     node:node.exe
 0003:000023f8       __imp_??1EscapableHandleScope@v8@@QEAA@XZ 000000018003a3f8     node:node.exe
 0003:00002400       \177node_NULL_THUNK_DATA_DLA 000000018003a400     node:node.exe
 0003:00002420       __hmod__node_exe           000000018003a420     node:node.exe
 0003:00002430       ?_Id_cnt@id@locale@std@@0HA 000000018003a430     libcpmt:locale0.obj
 0003:00002440       ?_Clocptr@_Locimp@locale@std@@0PEAV123@EA 000000018003a440     libcpmt:locale0.obj
 0003:00002450       ?id@?$codecvt@GDH@std@@2V0locale@2@A 000000018003a450     libcpmt:locale0.obj
 0003:00002458       ?id@?$ctype@D@std@@2V0locale@2@A 000000018003a458     libcpmt:locale0.obj
 0003:00002460       ?id@?$codecvt@_WDH@std@@2V0locale@2@A 000000018003a460     libcpmt:locale0.obj
 0003:00002478       ?id@?$ctype@G@std@@2V0locale@2@A 000000018003a478     libcpmt:locale0.obj
 0003:00002480       ?id@?$ctype@_W@std@@2V0locale@2@A 000000018003a480     libcpmt:locale0.obj
 0003:00002490       ?_Index@ios_base@std@@0HA  000000018003a490     libcpmt:ios.obj
 0003:00002500       ?_Raise_handler@std@@3P6AXAEBVexception@stdext@@@ZEA 000000018003a500     libcpmt:raisehan.obj
 0003:000025b0       ?cerr@std@@3V?$basic_ostream@DU?$char_traits@D@std@@@1@A 000000018003a5b0     libcpmt:cerr.obj
 0003:00002620       ?id@?$codecvt@DDH@std@@2V0locale@2@A 000000018003a620     libcpmt:cerr.obj
 0003:00002628       ?_Stinit@?1??_Init@?$basic_filebuf@DU?$char_traits@D@std@@@std@@IEAAXPEAU_iobuf@@W4_Initfl@23@@Z@4HA 000000018003a628     libcpmt:cerr.obj
 0003:00002630       ?_Psave@?$_Facetptr@V?$codecvt@DDH@std@@@std@@2PEBVfacet@locale@2@EB 000000018003a630     libcpmt:cerr.obj
 0003:000026f0       ?_Ptr_cin@std@@3PEAV?$basic_istream@DU?$char_traits@D@std@@@1@EA 000000018003a6f0     libcpmt:iosptrs.obj
 0003:000026f8       ?_Ptr_cout@std@@3PEAV?$basic_ostream@DU?$char_traits@D@std@@@1@EA 000000018003a6f8     libcpmt:iosptrs.obj
 0003:00002700       ?_Ptr_cerr@std@@3PEAV?$basic_ostream@DU?$char_traits@D@std@@@1@EA 000000018003a700     libcpmt:iosptrs.obj
 0003:00002708       ?_Ptr_clog@std@@3PEAV?$basic_ostream@DU?$char_traits@D@std@@@1@EA 000000018003a708     libcpmt:iosptrs.obj
 0003:00002710       ?_Ptr_wcin@std@@3PEAV?$basic_istream@_WU?$char_traits@_W@std@@@1@EA 000000018003a710     libcpmt:iosptrs.obj
 0003:00002718       ?_Ptr_wcout@std@@3PEAV?$basic_ostream@_WU?$char_traits@_W@std@@@1@EA 000000018003a718     libcpmt:iosptrs.obj
 0003:00002720       ?_Ptr_wcerr@std@@3PEAV?$basic_ostream@_WU?$char_traits@_W@std@@@1@EA 000000018003a720     libcpmt:iosptrs.obj
 0003:00002728       ?_Ptr_wclog@std@@3PEAV?$basic_ostream@_WU?$char_traits@_W@std@@@1@EA 000000018003a728     libcpmt:iosptrs.obj
 0003:00002788       ?id@?$num_get@DV?$istreambuf_iterator@DU?$char_traits@D@std@@@std@@@std@@2V0locale@2@A 000000018003a788     libcpmt:locale.obj
 0003:00002798       ?id@?$time_put@_WV?$ostreambuf_iterator@_WU?$char_traits@_W@std@@@std@@@std@@2V0locale@2@A 000000018003a798     libcpmt:wlocale.obj
 0003:000027a0       ?id@?$num_get@_WV?$istreambuf_iterator@_WU?$char_traits@_W@std@@@std@@@std@@2V0locale@2@A 000000018003a7a0     libcpmt:wlocale.obj
 0003:000027a8       ?id@?$num_put@_WV?$ostreambuf_iterator@_WU?$char_traits@_W@std@@@std@@@std@@2V0locale@2@A 000000018003a7a8     libcpmt:wlocale.obj
 0003:000027b0       ?id@?$collate@_W@std@@2V0locale@2@A 000000018003a7b0     libcpmt:wlocale.obj
 0003:000027b8       ?id@?$messages@_W@std@@2V0locale@2@A 000000018003a7b8     libcpmt:wlocale.obj
 0003:000027c0       ?id@?$money_get@_WV?$istreambuf_iterator@_WU?$char_traits@_W@std@@@std@@@std@@2V0locale@2@A 000000018003a7c0     libcpmt:wlocale.obj
 0003:000027c8       ?id@?$money_put@_WV?$ostreambuf_iterator@_WU?$char_traits@_W@std@@@std@@@std@@2V0locale@2@A 000000018003a7c8     libcpmt:wlocale.obj
 0003:000027d0       ?id@?$moneypunct@_W$0A@@std@@2V0locale@2@A 000000018003a7d0     libcpmt:wlocale.obj
 0003:000027d8       ?id@?$moneypunct@_W$00@std@@2V0locale@2@A 000000018003a7d8     libcpmt:wlocale.obj
 0003:000027e0       ?id@?$time_get@_WV?$istreambuf_iterator@_WU?$char_traits@_W@std@@@std@@@std@@2V0locale@2@A 000000018003a7e0     libcpmt:wlocale.obj
 0003:000027e8       ?id@?$num_get@GV?$istreambuf_iterator@GU?$char_traits@G@std@@@std@@@std@@2V0locale@2@A 000000018003a7e8     libcpmt:wlocale.obj
 0003:000027f0       ?id@?$num_put@GV?$ostreambuf_iterator@GU?$char_traits@G@std@@@std@@@std@@2V0locale@2@A 000000018003a7f0     libcpmt:wlocale.obj
 0003:000027f8       ?id@?$numpunct@G@std@@2V0locale@2@A 000000018003a7f8     libcpmt:wlocale.obj
 0003:00002800       ?id@?$collate@G@std@@2V0locale@2@A 000000018003a800     libcpmt:wlocale.obj
 0003:00002808       ?id@?$messages@G@std@@2V0locale@2@A 000000018003a808     libcpmt:wlocale.obj
 0003:00002810       ?id@?$money_get@GV?$istreambuf_iterator@GU?$char_traits@G@std@@@std@@@std@@2V0locale@2@A 000000018003a810     libcpmt:wlocale.obj
 0003:00002818       ?id@?$money_put@GV?$ostreambuf_iterator@GU?$char_traits@G@std@@@std@@@std@@2V0locale@2@A 000000018003a818     libcpmt:wlocale.obj
 0003:00002820       ?id@?$moneypunct@G$0A@@std@@2V0locale@2@A 000000018003a820     libcpmt:wlocale.obj
 0003:00002828       ?id@?$moneypunct@G$00@std@@2V0locale@2@A 000000018003a828     libcpmt:wlocale.obj
 0003:00002830       ?id@?$time_get@GV?$istreambuf_iterator@GU?$char_traits@G@std@@@std@@@std@@2V0locale@2@A 000000018003a830     libcpmt:wlocale.obj
 0003:00002838       ?id@?$time_put@GV?$ostreambuf_iterator@GU?$char_traits@G@std@@@std@@@std@@2V0locale@2@A 000000018003a838     libcpmt:wlocale.obj
 0003:00002848       ?id@?$collate@D@std@@2V0locale@2@A 000000018003a848     libcpmt:xlocale.obj
 0003:00002850       ?id@?$messages@D@std@@2V0locale@2@A 000000018003a850     libcpmt:xlocale.obj
 0003:00002858       ?id@?$money_get@DV?$istreambuf_iterator@DU?$char_traits@D@std@@@std@@@std@@2V0locale@2@A 000000018003a858     libcpmt:xlocale.obj
 0003:00002860       ?id@?$money_put@DV?$ostreambuf_iterator@DU?$char_traits@D@std@@@std@@@std@@2V0locale@2@A 000000018003a860     libcpmt:xlocale.obj
 0003:00002868       ?id@?$moneypunct@D$0A@@std@@2V0locale@2@A 000000018003a868     libcpmt:xlocale.obj
 0003:00002870       ?id@?$moneypunct@D$00@std@@2V0locale@2@A 000000018003a870     libcpmt:xlocale.obj
 0003:00002878       ?id@?$time_get@DV?$istreambuf_iterator@DU?$char_traits@D@std@@@std@@@std@@2V0locale@2@A 000000018003a878     libcpmt:xlocale.obj
 0003:00002880       ?id@?$time_put@DV?$ostreambuf_iterator@DU?$char_traits@D@std@@@std@@@std@@2V0locale@2@A 000000018003a880     libcpmt:xlocale.obj
 0003:0000288c       _FZero                     000000018003a88c     libcpmt:xfvalues.obj
 0003:00002890       _Zero                      000000018003a890     libcpmt:xvalues.obj
 0003:00002898       _LZero                     000000018003a898     libcpmt:xlvalues.obj
 0003:000028a0       __pInvalidArgHandler       000000018003a8a0     LIBCMT:invarg.obj
 0003:000028a8       __lconv_static_null        000000018003a8a8     LIBCMT:lconv.obj
 0003:000028ac       __lconv_static_W_null      000000018003a8ac     LIBCMT:lconv.obj
 0003:000028b8       _aenvptr                   000000018003a8b8     LIBCMT:dllcrt0.obj
 0003:000028c0       _wenvptr                   000000018003a8c0     LIBCMT:dllcrt0.obj
 0003:000028c8       __fastflag                 000000018003a8c8     LIBCMT:fpinit.obj
 0003:000028cc       _cflush                    000000018003a8cc     LIBCMT:_file.obj
 0003:00002b00       _maxwait                   000000018003ab00     LIBCMT:crtheap.obj
 0003:00003088       _C_Exit_Done               000000018003b088     LIBCMT:crt0dat.obj
 0003:0000308c       __argc                     000000018003b08c     LIBCMT:crt0dat.obj
 0003:00003090       __argv                     000000018003b090     LIBCMT:crt0dat.obj
 0003:00003098       __wargv                    000000018003b098     LIBCMT:crt0dat.obj
 0003:000030a0       _environ                   000000018003b0a0     LIBCMT:crt0dat.obj
 0003:000030a8       _wenviron                  000000018003b0a8     LIBCMT:crt0dat.obj
 0003:000030b0       _pgmptr                    000000018003b0b0     LIBCMT:crt0dat.obj
 0003:000030b8       _wpgmptr                   000000018003b0b8     LIBCMT:crt0dat.obj
 0003:000030c0       _umaskval                  000000018003b0c0     LIBCMT:crt0dat.obj
 0003:000030c4       _exitflag                  000000018003b0c4     LIBCMT:crt0dat.obj
 0003:000030c8       _C_Termination_Done        000000018003b0c8     LIBCMT:crt0dat.obj
 0003:000030d0       __winitenv                 000000018003b0d0     LIBCMT:crt0dat.obj
 0003:000030d8       __initenv                  000000018003b0d8     LIBCMT:crt0dat.obj
 0003:00003104       __favor                    000000018003b104     LIBCMT:cpu_disp.obj
 0003:00003108       _crtheap                   000000018003b108     LIBCMT:heapinit.obj
 0003:00003110       ?_pnhHeap@@3P6AH_K@ZEA     000000018003b110     LIBCMT:handler.obj
 0003:00003120       __app_type                 000000018003b120     LIBCMT:crt0msg.obj
 0003:00003758       _newmode                   000000018003b758     LIBCMT:_newmode.obj
 0003:00003760       ?__pInconsistency@@3P6AXXZEA 000000018003b760     LIBCMT:hooks.obj
 0003:00003768       __error_mode               000000018003b768     LIBCMT:errmode.obj
 0003:00003798       __pPurecall                000000018003b798     LIBCMT:inithelp.obj
 0003:000037b0       __mbcodepage               000000018003b7b0     LIBCMT:mbctype.obj
 0003:000037b4       __ismbcodepage             000000018003b7b4     LIBCMT:mbctype.obj
 0003:000037b8       __mbulinfo                 000000018003b7b8     LIBCMT:mbctype.obj
 0003:000037c8       __mblocalename             000000018003b7c8     LIBCMT:mbctype.obj
 0003:000037d4       __locale_changed           000000018003b7d4     LIBCMT:wsetloca.obj
 0003:000037e0       __pioinfo                  000000018003b7e0     LIBCMT:ioinit.obj
 0003:00003ae8       ?g_OutOfMemoryExceptionCallback@@3P6APEAXXZEA 000000018003bae8     LIBCMT:frame.obj
 0003:00003bb8       _stdbuf                    000000018003bbb8     LIBCMT:_sftbuf.obj
 0003:00003bd0       ?m_pGetParameter@UnDecorator@@0P6APEADJ@ZEA 000000018003bbd0     LIBCMT:undname.obj
 0003:00003bd8       ?pArgList@UnDecorator@@0PEAVReplicator@@EA 000000018003bbd8     LIBCMT:undname.obj
 0003:00003be0       ?pZNameList@UnDecorator@@0PEAVReplicator@@EA 000000018003bbe0     LIBCMT:undname.obj
 0003:00003be8       ?pTemplateArgList@UnDecorator@@0PEAVReplicator@@EA 000000018003bbe8     LIBCMT:undname.obj
 0003:00003bf0       ?gName@UnDecorator@@0PEBDEB 000000018003bbf0     LIBCMT:undname.obj
 0003:00003bf8       ?name@UnDecorator@@0PEBDEB 000000018003bbf8     LIBCMT:undname.obj
 0003:00003c00       ?outputString@UnDecorator@@0PEADEA 000000018003bc00     LIBCMT:undname.obj
 0003:00003c08       ?maxStringLength@UnDecorator@@0HA 000000018003bc08     LIBCMT:undname.obj
 0003:00003c0c       ?disableFlags@UnDecorator@@0KA 000000018003bc0c     LIBCMT:undname.obj
 0003:00003c10       ?fExplicitTemplateParams@UnDecorator@@0_NA 000000018003bc10     LIBCMT:undname.obj
 0003:00003c11       ?fGetTemplateArgumentList@UnDecorator@@0_NA 000000018003bc11     LIBCMT:undname.obj
 0003:00003c40       _outputformat              000000018003bc40     LIBCMT:outputformat.obj
 0003:00003c48       __pfnDliFailureHook2       000000018003bc48     DelayImp:delayhk1.obj
 0003:00003c58       ?_Psave@?$_Facetptr@V?$numpunct@D@std@@@std@@2PEBVfacet@locale@2@EB 000000018003bc58     node-midi.obj
 0003:00003c60       ?_Psave@?$_Facetptr@V?$ctype@D@std@@@std@@2PEBVfacet@locale@2@EB 000000018003bc60     node-midi.obj
 0003:00003c68       ?_Psave@?$_Facetptr@V?$num_put@DV?$ostreambuf_iterator@DU?$char_traits@D@std@@@std@@@std@@@std@@2PEBVfacet@locale@2@EB 000000018003bc68     node-midi.obj
 0003:00003c70       ?id@?$num_put@_WV?$back_insert_iterator@V?$basic_string@_WU?$char_traits@_W@std@@V?$allocator@_W@2@@std@@@std@@@std@@2V0locale@2@A 000000018003bc70     node-midi.obj
 0003:00003c78       ?_System_object@?$_Error_objects@H@std@@2V_System_error_category@2@A 000000018003bc78     node-midi.obj
 0003:00003c80       ?id@?$numpunct@_W@std@@2V0locale@2@A 000000018003bc80     node-midi.obj
 0003:00003c88       ?id@?$num_put@DV?$back_insert_iterator@V?$basic_string@DU?$char_traits@D@std@@V?$allocator@D@2@@std@@@std@@@std@@2V0locale@2@A 000000018003bc88     node-midi.obj
 0003:00003c90       ?id@?$num_put@DV?$ostreambuf_iterator@DU?$char_traits@D@std@@@std@@@std@@2V0locale@2@A 000000018003bc90     node-midi.obj
 0003:00003c98       ?_Iostream_object@?$_Error_objects@H@std@@2V_Iostream_error_category@2@A 000000018003bc98     node-midi.obj
 0003:00003ca8       ?s_ct@NodeMidiInput@@2V?$Persistent@VFunctionTemplate@v8@@V?$NonCopyablePersistentTraits@VFunctionTemplate@v8@@@2@@Nan@@A 000000018003bca8     node-midi.obj
 0003:00003cb0       ?s_ct@NodeMidiOutput@@2V?$Persistent@VFunctionTemplate@v8@@V?$NonCopyablePersistentTraits@VFunctionTemplate@v8@@@2@@Nan@@A 000000018003bcb0     node-midi.obj
 0003:00003cb8       ?_Generic_object@?$_Error_objects@H@std@@2V_Generic_error_category@2@A 000000018003bcb8     node-midi.obj
 0003:00003cc0       ?id@?$numpunct@D@std@@2V0locale@2@A 000000018003bcc0     node-midi.obj
 0003:00003cc8       _nhandle                   000000018003bcc8     <common>
 0003:00003ccc       _debugger_hook_dummy       000000018003bccc     <common>
 0003:00003cd0       __dyn_tls_init_callback    000000018003bcd0     <common>
 0003:00003cd8       __onexitend                000000018003bcd8     <common>
 0003:00003ce0       __onexitbegin              000000018003bce0     <common>
 0003:00003ce8       __mbctype_initialized      000000018003bce8     <common>
 0003:00003cec       __env_initialized          000000018003bcec     <common>
 0003:00003d00       encodedKERNEL32Functions   000000018003bd00     <common>
 0003:00003e08       __piob                     000000018003be08     <common>
 0003:00003e10       _nstream                   000000018003be10     <common>
 0003:00003e20       _bufin                     000000018003be20     <common>
 0003:00004e20       _acmdln                    000000018003ce20     <common>

 entry point at        0001:0000f01c

 Static symbols

 0000:fffbf000       .debug$S                   0000000180000000     kernel32:KERNEL32.dll
 0000:fffbf000       .debug$S                   0000000180000000     winmm:WINMM.dll
 0000:fffbf000       .debug$S                   0000000180000000     kernel32:KERNEL32.dll
 0000:fffbf000       .debug$S                   0000000180000000     kernel32:KERNEL32.dll
 0000:fffbf000       .debug$S                   0000000180000000     kernel32:KERNEL32.dll
 0000:fffbf000       .debug$S                   0000000180000000     kernel32:KERNEL32.dll
 0000:fffbf000       .debug$S                   0000000180000000     winmm:WINMM.dll
 0000:fffbf000       .debug$S                   0000000180000000     winmm:WINMM.dll
 0000:fffbf000       .debug$S                   0000000180000000     winmm:WINMM.dll
 0000:fffbf000       .debug$S                   0000000180000000     winmm:WINMM.dll
 0000:fffbf000       .debug$S                   0000000180000000     winmm:WINMM.dll
 0000:fffbf000       .debug$S                   0000000180000000     winmm:WINMM.dll
 0000:fffbf000       .debug$S                   0000000180000000     winmm:WINMM.dll
 0000:fffbf000       .debug$S                   0000000180000000     winmm:WINMM.dll
 0000:fffbf000       .debug$S                   0000000180000000     winmm:WINMM.dll
 0000:fffbf000       .debug$S                   0000000180000000     winmm:WINMM.dll
 0000:fffbf000       .debug$S                   0000000180000000     node:node.exe
 0000:fffbf000       .debug$S                   0000000180000000     node:node.exe
 0000:fffbf000       .debug$S                   0000000180000000     node:node.exe
 0000:fffbf000       .debug$S                   0000000180000000     node:node.exe
 0000:fffbf000       .debug$S                   0000000180000000     winmm:WINMM.dll
 0000:fffbf000       .debug$S                   0000000180000000     node:node.exe
 0000:fffbf000       .debug$S                   0000000180000000     node:node.exe
 0000:fffbf000       .debug$S                   0000000180000000     winmm:WINMM.dll
 0000:fffbf000       .debug$S                   0000000180000000     node:node.exe
 0000:fffbf000       .debug$S                   0000000180000000     winmm:WINMM.dll
 0000:fffbf000       .debug$S                   0000000180000000     node:node.exe
 0000:fffbf000       .debug$S                   0000000180000000     winmm:WINMM.dll
 0000:fffbf000       .debug$S                   0000000180000000     node:node.exe
 0000:fffbf000       .debug$S                   0000000180000000     winmm:WINMM.dll
 0000:fffbf000       .debug$S                   0000000180000000     winmm:WINMM.dll
 0000:fffbf000       .debug$S                   0000000180000000     node:node.exe
 0000:fffbf000       .debug$S                   0000000180000000     node:node.exe
 0000:fffbf000       .debug$S                   0000000180000000     node:node.exe
 0000:fffbf000       .debug$S                   0000000180000000     node:node.exe
 0000:fffbf000       .debug$S                   0000000180000000     node:node.exe
 0000:fffbf000       .debug$S                   0000000180000000     node:node.exe
 0000:fffbf000       .debug$S                   0000000180000000     node:node.exe
 0000:fffbf000       .debug$S                   0000000180000000     node:node.exe
 0000:fffbf000       .debug$S                   0000000180000000     winmm:WINMM.dll
 0000:fffbf000       .debug$S                   0000000180000000     node:node.exe
 0000:fffbf000       .debug$S                   0000000180000000     node:node.exe
 0000:fffbf000       .debug$S                   0000000180000000     node:node.exe
 0000:fffbf000       .debug$S                   0000000180000000     node:node.exe
 0000:fffbf000       .debug$S                   0000000180000000     node:node.exe
 0000:fffbf000       .debug$S                   0000000180000000     node:node.exe
 0000:fffbf000       .debug$S                   0000000180000000     node:node.exe
 0000:fffbf000       .debug$S                   0000000180000000     node:node.exe
 0000:fffbf000       .debug$S                   0000000180000000     node:node.exe
 0000:fffbf000       .debug$S                   0000000180000000     node:node.exe
 0000:fffbf000       .debug$S                   0000000180000000     node:node.exe
 0000:fffbf000       .debug$S                   0000000180000000     node:node.exe
 0000:fffbf000       .debug$S                   0000000180000000     node:node.exe
 0000:fffbf000       .debug$S                   0000000180000000     node:node.exe
 0000:fffbf000       .debug$S                   0000000180000000     node:node.exe
 0000:fffbf000       .debug$S                   0000000180000000     node:node.exe
 0000:fffbf000       .debug$S                   0000000180000000     node:node.exe
 0000:fffbf000       .debug$S                   0000000180000000     node:node.exe
 0000:fffbf000       .debug$S                   0000000180000000     node:node.exe
 0000:fffbf000       .debug$S                   0000000180000000     node:node.exe
 0000:fffbf000       .debug$S                   0000000180000000     node:node.exe
 0000:fffbf000       .debug$S                   0000000180000000     node:node.exe
 0000:fffbf000       .debug$S                   0000000180000000     node:node.exe
 0000:fffbf000       .debug$S                   0000000180000000     node:node.exe
 0000:fffbf000       .debug$S                   0000000180000000     node:node.exe
 0000:fffbf000       .debug$S                   0000000180000000     node:node.exe
 0000:fffbf000       .debug$S                   0000000180000000     node:node.exe
 0000:fffbf000       .debug$S                   0000000180000000     node:node.exe
 0000:fffbf000       .debug$S                   0000000180000000     node:node.exe
 0000:fffbf000       .debug$S                   0000000180000000     node:node.exe
 0000:fffbf000       .debug$S                   0000000180000000     node:node.exe
 0000:fffbf000       .debug$S                   0000000180000000     node:node.exe
 0000:fffbf000       .debug$S                   0000000180000000     node:node.exe
 0000:fffbf000       .debug$S                   0000000180000000     node:node.exe
 0000:fffbf000       .debug$S                   0000000180000000     node:node.exe
 0000:fffbf000       .debug$S                   0000000180000000     node:node.exe
 0000:fffbf000       .debug$S                   0000000180000000     node:node.exe
 0000:fffbf000       .debug$S                   0000000180000000     node:node.exe
 0000:fffbf000       .debug$S                   0000000180000000     node:node.exe
 0000:fffbf000       .debug$S                   0000000180000000     node:node.exe
 0000:fffbf000       .debug$S                   0000000180000000     node:node.exe
 0000:fffbf000       .debug$S                   0000000180000000     node:node.exe
 0000:fffbf000       .debug$S                   0000000180000000     node:node.exe
 0000:fffbf000       .debug$S                   0000000180000000     node:node.exe
 0000:fffbf000       .debug$S                   0000000180000000     node:node.exe
 0000:fffbf000       .debug$S                   0000000180000000     node:node.exe
 0000:fffbf000       .debug$S                   0000000180000000     node:node.exe
 0000:fffbf000       .debug$S                   0000000180000000     node:node.exe
 0000:fffbf000       .debug$S                   0000000180000000     node:node.exe
 0000:fffbf000       .debug$S                   0000000180000000     node:node.exe
 0000:fffbf000       .debug$S                   0000000180000000     node:node.exe
 0000:fffbf000       .debug$S                   0000000180000000     node:node.exe
 0000:fffbf000       .debug$S                   0000000180000000     node:node.exe
 0000:fffbf000       .debug$S                   0000000180000000     node:node.exe
 0000:fffbf000       .debug$S                   0000000180000000     node:node.exe
 0000:fffbf000       .debug$S                   0000000180000000     node:node.exe
 0000:fffbf000       .debug$S                   0000000180000000     kernel32:KERNEL32.dll
 0000:fffbf000       .debug$S                   0000000180000000     kernel32:KERNEL32.dll
 0000:fffbf000       .debug$S                   0000000180000000     kernel32:KERNEL32.dll
 0000:fffbf000       .debug$S                   0000000180000000     kernel32:KERNEL32.dll
 0000:fffbf000       .debug$S                   0000000180000000     kernel32:KERNEL32.dll
 0000:fffbf000       .debug$S                   0000000180000000     kernel32:KERNEL32.dll
 0000:fffbf000       .debug$S                   0000000180000000     kernel32:KERNEL32.dll
 0000:fffbf000       .debug$S                   0000000180000000     kernel32:KERNEL32.dll
 0000:fffbf000       .debug$S                   0000000180000000     kernel32:KERNEL32.dll
 0000:fffbf000       .debug$S                   0000000180000000     kernel32:KERNEL32.dll
 0000:fffbf000       .debug$S                   0000000180000000     kernel32:KERNEL32.dll
 0000:fffbf000       .debug$S                   0000000180000000     kernel32:KERNEL32.dll
 0000:fffbf000       .debug$S                   0000000180000000     kernel32:KERNEL32.dll
 0000:fffbf000       .debug$S                   0000000180000000     kernel32:KERNEL32.dll
 0000:fffbf000       .debug$S                   0000000180000000     kernel32:KERNEL32.dll
 0000:fffbf000       .debug$S                   0000000180000000     kernel32:KERNEL32.dll
 0000:fffbf000       .debug$S                   0000000180000000     kernel32:KERNEL32.dll
 0000:fffbf000       .debug$S                   0000000180000000     kernel32:KERNEL32.dll
 0000:fffbf000       .debug$S                   0000000180000000     kernel32:KERNEL32.dll
 0000:fffbf000       .debug$S                   0000000180000000     kernel32:KERNEL32.dll
 0000:fffbf000       .debug$S                   0000000180000000     kernel32:KERNEL32.dll
 0000:fffbf000       .debug$S                   0000000180000000     kernel32:KERNEL32.dll
 0000:fffbf000       .debug$S                   0000000180000000     kernel32:KERNEL32.dll
 0000:fffbf000       .debug$S                   0000000180000000     kernel32:KERNEL32.dll
 0000:fffbf000       .debug$S                   0000000180000000     kernel32:KERNEL32.dll
 0000:fffbf000       .debug$S                   0000000180000000     kernel32:KERNEL32.dll
 0000:fffbf000       .debug$S                   0000000180000000     kernel32:KERNEL32.dll
 0000:fffbf000       .debug$S                   0000000180000000     kernel32:KERNEL32.dll
 0000:fffbf000       .debug$S                   0000000180000000     kernel32:KERNEL32.dll
 0000:fffbf000       .debug$S                   0000000180000000     kernel32:KERNEL32.dll
 0000:fffbf000       .debug$S                   0000000180000000     kernel32:KERNEL32.dll
 0000:fffbf000       .debug$S                   0000000180000000     kernel32:KERNEL32.dll
 0000:fffbf000       .debug$S                   0000000180000000     kernel32:KERNEL32.dll
 0000:fffbf000       .debug$S                   0000000180000000     kernel32:KERNEL32.dll
 0000:fffbf000       .debug$S                   0000000180000000     kernel32:KERNEL32.dll
 0000:fffbf000       .debug$S                   0000000180000000     kernel32:KERNEL32.dll
 0000:fffbf000       .debug$S                   0000000180000000     kernel32:KERNEL32.dll
 0000:fffbf000       .debug$S                   0000000180000000     kernel32:KERNEL32.dll
 0000:fffbf000       .debug$S                   0000000180000000     kernel32:KERNEL32.dll
 0000:fffbf000       .debug$S                   0000000180000000     kernel32:KERNEL32.dll
 0000:fffbf000       .debug$S                   0000000180000000     kernel32:KERNEL32.dll
 0000:fffbf000       .debug$S                   0000000180000000     kernel32:KERNEL32.dll
 0000:fffbf000       .debug$S                   0000000180000000     kernel32:KERNEL32.dll
 0000:fffbf000       .debug$S                   0000000180000000     kernel32:KERNEL32.dll
 0000:fffbf000       .debug$S                   0000000180000000     kernel32:KERNEL32.dll
 0000:fffbf000       .debug$S                   0000000180000000     kernel32:KERNEL32.dll
 0000:fffbf000       .debug$S                   0000000180000000     kernel32:KERNEL32.dll
 0000:fffbf000       .debug$S                   0000000180000000     kernel32:KERNEL32.dll
 0000:fffbf000       .debug$S                   0000000180000000     kernel32:KERNEL32.dll
 0000:fffbf000       .debug$S                   0000000180000000     kernel32:KERNEL32.dll
 0000:fffbf000       .debug$S                   0000000180000000     kernel32:KERNEL32.dll
 0000:fffbf000       .debug$S                   0000000180000000     kernel32:KERNEL32.dll
 0000:fffbf000       .debug$S                   0000000180000000     kernel32:KERNEL32.dll
 0000:fffbf000       .debug$S                   0000000180000000     kernel32:KERNEL32.dll
 0000:fffbf000       .debug$S                   0000000180000000     kernel32:KERNEL32.dll
 0000:fffbf000       .debug$S                   0000000180000000     kernel32:KERNEL32.dll
 0000:fffbf000       .debug$S                   0000000180000000     kernel32:KERNEL32.dll
 0000:fffbf000       .debug$S                   0000000180000000     kernel32:KERNEL32.dll
 0000:fffbf000       .debug$S                   0000000180000000     kernel32:KERNEL32.dll
 0000:fffbf000       .debug$S                   0000000180000000     kernel32:KERNEL32.dll
 0000:fffbf000       .debug$S                   0000000180000000     kernel32:KERNEL32.dll
 0000:fffbf000       .debug$S                   0000000180000000     kernel32:KERNEL32.dll
 0000:fffbf000       .debug$S                   0000000180000000     kernel32:KERNEL32.dll
 0000:fffbf000       .debug$S                   0000000180000000     kernel32:KERNEL32.dll
 0000:fffbf000       .debug$S                   0000000180000000     kernel32:KERNEL32.dll
 0000:fffbf000       .debug$S                   0000000180000000     kernel32:KERNEL32.dll
 0000:fffbf000       .debug$S                   0000000180000000     kernel32:KERNEL32.dll
 0000:fffbf000       .debug$S                   0000000180000000     kernel32:KERNEL32.dll
 0000:fffbf000       .debug$S                   0000000180000000     kernel32:KERNEL32.dll
 0000:fffbf000       .debug$S                   0000000180000000     kernel32:KERNEL32.dll
 0000:fffbf000       .debug$S                   0000000180000000     kernel32:KERNEL32.dll
 0000:fffbf000       .debug$S                   0000000180000000     kernel32:KERNEL32.dll
 0000:fffbf000       .debug$S                   0000000180000000     kernel32:KERNEL32.dll
 0000:fffbf000       .debug$S                   0000000180000000     kernel32:KERNEL32.dll
 0000:fffbf000       .debug$S                   0000000180000000     kernel32:KERNEL32.dll
 0000:fffbf000       .debug$S                   0000000180000000     kernel32:KERNEL32.dll
 0000:fffbf000       .debug$S                   0000000180000000     kernel32:KERNEL32.dll
 0000:fffbf000       .debug$S                   0000000180000000     kernel32:KERNEL32.dll
 0000:fffbf000       .debug$S                   0000000180000000     kernel32:KERNEL32.dll
 0000:fffbf000       .debug$S                   0000000180000000     kernel32:KERNEL32.dll
 0000:fffbf000       .debug$S                   0000000180000000     kernel32:KERNEL32.dll
 0000:fffbf000       .debug$S                   0000000180000000     winmm:WINMM.dll
 0001:00000000       ??__Epiecewise_construct@std@@YAXXZ 0000000180001000 f   node-midi.obj
 0001:00000010       ??__Eallocator_arg@std@@YAXXZ 0000000180001010 f   node-midi.obj
 0001:00000020       ??__E?s_ct@NodeMidiOutput@@2V?$Persistent@VFunctionTemplate@v8@@V?$NonCopyablePersistentTraits@VFunctionTemplate@v8@@@2@@Nan@@A@@YAXXZ 0000000180001020 f   node-midi.obj
 0001:00000040       ??__E?s_ct@NodeMidiInput@@2V?$Persistent@VFunctionTemplate@v8@@V?$NonCopyablePersistentTraits@VFunctionTemplate@v8@@@2@@Nan@@A@@YAXXZ 0000000180001040 f   node-midi.obj
 0001:00000058       ??__E_Fac_tidy_reg@std@@YAXXZ 0000000180001058 f   libcpmt:locale0.obj
 0001:00000064       ??__Eclassic_locale@std@@YAXXZ 0000000180001064 f   libcpmt:locale0.obj
 0001:00000070       ??__Ecerr@std@@YAXXZ       0000000180001070 f   libcpmt:cerr.obj
 0001:000000a0       ??__Eferr@std@@YAXXZ       00000001800010a0 f   libcpmt:cerr.obj
 0001:000000ec       ??__Einit_cerr@std@@YAXXZ  00000001800010ec f   libcpmt:cerr.obj
 0001:00000124       ??__Einitlocks@@YAXXZ      0000000180001124 f   libcpmt:cerr.obj
 0001:00000144       ??__Einitlocks@std@@YAXXZ  0000000180001144 f   libcpmt:xlock.obj
 0001:00000164       ??__Einit_atexit@@YAXXZ    0000000180001164 f   libcpmt:iosptrs.obj
 0001:00000170       ??__Einitlocks@std@@YAXXZ  0000000180001170 f   libcpmt:iosptrs.obj
 0001:00000b10       ?FunctionCallbackWrapper@imp@Nan@@YAXAEBV?$FunctionCallbackInfo@VValue@v8@@@v8@@@Z 0000000180001b10 f   node-midi.obj
 0001:00002030       ?midiInputCallback@@YAXPEAUHMIDIIN__@@I_K1K@Z 0000000180003030 f   node-midi.obj
 0001:000064e0       _register_midi             00000001800074e0 f   node-midi.obj
 0001:0000b730       load_exe_hook              000000018000c730 f   win_delay_load_hook.obj
 0001:0000bf08       tidy_global                000000018000cf08 f   libcpmt:locale0.obj
 0001:0000d620       $$000000                   000000018000e620     LIBCMT:amdsecgs.obj
 0001:0000d8b0       $$000000                   000000018000e8b0     LIBCMT:memcpy.obj
 0001:0000d9a0       MoveSmall                  000000018000e9a0     LIBCMT:memcpy.obj
 0001:0000e944       swprintf                   000000018000f944 f   LIBCMT:wassert.obj
 0001:0000f05c       __DllMainCRTStartup        000000018001005c f   LIBCMT:dllcrt0.obj
 0001:0000f730       ?x_ismbbtype_l@@YAHPEAUlocaleinfo_struct@@IHH@Z 0000000180010730 f   LIBCMT:ismbbyte.obj
 0001:0000f7c0       $$000000                   00000001800107c0     LIBCMT:memset.obj
 0001:0000f965       MsetTab                    0000000180010965     LIBCMT:memset.obj
 0001:0000fa00       $$000000                   0000000180010a00     LIBCMT:strlen.obj
 0001:00010ab8       flsall                     0000000180011ab8 f   LIBCMT:fflush.obj
 0001:00011944       ?__crtLCMapStringA_stat@@YAHPEAUlocaleinfo_struct@@PEB_WKPEBDHPEADHHH@Z 0000000180012944 f   LIBCMT:a_map.obj
 0001:00011e50       $$000000                   0000000180012e50     LIBCMT:strcmp.obj
 0001:000126f0       $$000000                   00000001800136f0     LIBCMT:memcmp.obj
 0001:0001297c       __crtEnumLocalesProc       000000018001397c f   LIBCMT:winapinls.obj
 0001:00013064       _initterm                  0000000180014064 f   LIBCMT:crt0dat.obj
 0001:00013118       doexit                     0000000180014118 f   LIBCMT:crt0dat.obj
 0001:0001489c       xtow_s                     000000018001589c f   LIBCMT:xtows.obj
 0001:000150c8       ?getSystemCP@@YAHH@Z       00000001800160c8 f   LIBCMT:mbctype.obj
 0001:00015148       ?setSBCS@@YAXPEAUthreadmbcinfostruct@@@Z 0000000180016148 f   LIBCMT:mbctype.obj
 0001:000151d8       ?setSBUpLow@@YAXPEAUthreadmbcinfostruct@@@Z 00000001800161d8 f   LIBCMT:mbctype.obj
 0001:00015c94       _copytlocinfo_nolock       0000000180016c94 f   LIBCMT:wsetloca.obj
 0001:00016328       _wsetlocale_get_all        0000000180017328 f   LIBCMT:wsetloca.obj
 0001:000164fc       _wsetlocale_nolock         00000001800174fc f   LIBCMT:wsetloca.obj
 0001:00016768       _wsetlocale_set_cat        0000000180017768 f   LIBCMT:wsetloca.obj
 0001:000170f0       parse_cmdline              00000001800180f0 f   LIBCMT:stdargv.obj
 0001:000175fc       ?__crtGetStringTypeA_stat@@YAHPEAUlocaleinfo_struct@@KPEBDHPEAGHH@Z 00000001800185fc f   LIBCMT:a_str.obj
 0001:000178d0       ?CatchIt@@YAXPEAUEHExceptionRecord@@PEA_KPEAU_CONTEXT@@PEAU_xDISPATCHER_CONTEXT@@PEBU_s_FuncInfo@@PEBU_s_HandlerType@@PEBU_s_CatchableType@@PEBU_s_TryBlockMapEntry@@H1EE@Z 00000001800188d0 f   LIBCMT:frame.obj
 0001:00017994       ?FindHandler@@YAXPEAUEHExceptionRecord@@PEA_KPEAU_CONTEXT@@PEAU_xDISPATCHER_CONTEXT@@PEBU_s_FuncInfo@@EH1@Z 0000000180018994 f   LIBCMT:frame.obj
 0001:00017e48       ?FindHandlerForForeignException@@YAXPEAUEHExceptionRecord@@PEA_KPEAU_CONTEXT@@PEAU_xDISPATCHER_CONTEXT@@PEBU_s_FuncInfo@@HH1@Z 0000000180018e48 f   LIBCMT:frame.obj
 0001:000180b0       ?IsInExceptionSpec@@YAEPEAUEHExceptionRecord@@PEBU_s_ESTypeList@@@Z 00000001800190b0 f   LIBCMT:frame.obj
 0001:00019178       _cftoe2_l                  000000018001a178 f   LIBCMT:cvt.obj
 0001:0001946c       _cftof2_l                  000000018001a46c f   LIBCMT:cvt.obj
 0001:0001b520       $$000000                   000000018001c520     LIBCMT:chkstk.obj
 0001:0001c578       write_char                 000000018001d578 f   LIBCMT:outputs.obj
 0001:0001c5c0       write_multi_char           000000018001d5c0 f   LIBCMT:outputs.obj
 0001:0001c614       write_string               000000018001d614 f   LIBCMT:outputs.obj
 0001:0001c930       $$000000                   000000018001d930     LIBCMT:jmpuwind.obj
 0001:0001d780       _get_lc_time               000000018001e780 f   LIBCMT:inittime.obj
 0001:0001ed94       write_char                 000000018001fd94 f   LIBCMT:woutput.obj
 0001:0001edcc       write_multi_char           000000018001fdcc f   LIBCMT:woutput.obj
 0001:0001ee20       write_string               000000018001fe20 f   LIBCMT:woutput.obj
 0001:0001ef78       ?__crtGetLocaleInfoA_stat@@YAHPEAUlocaleinfo_struct@@PEB_WKPEADH@Z 000000018001ff78 f   LIBCMT:a_loc.obj
 0001:0001f150       $$000000                   0000000180020150     LIBCMT:fpsr.obj
 0001:0001f290       GetLocaleNameFromLangCountry 0000000180020290 f   LIBCMT:getqloc.obj
 0001:0001f340       GetLocaleNameFromLanguage  0000000180020340 f   LIBCMT:getqloc.obj
 0001:0001f3c8       LangCountryEnumProcEx      00000001800203c8 f   LIBCMT:getqloc.obj
 0001:0001f754       LanguageEnumProcEx         0000000180020754 f   LIBCMT:getqloc.obj
 0001:0001f834       ProcessCodePage            0000000180020834 f   LIBCMT:getqloc.obj
 0001:0001f8e8       TestDefaultCountry         00000001800208e8 f   LIBCMT:getqloc.obj
 0001:0001fbdc       CountryEnumProc            0000000180020bdc f   LIBCMT:getqloc_downlevel.obj
 0001:0001fcc8       GetLcidFromLangCountry     0000000180020cc8 f   LIBCMT:getqloc_downlevel.obj
 0001:0001fd7c       GetLcidFromLanguage        0000000180020d7c f   LIBCMT:getqloc_downlevel.obj
 0001:0001fe10       LangCountryEnumProc        0000000180020e10 f   LIBCMT:getqloc_downlevel.obj
 0001:00020040       LanguageEnumProc           0000000180021040 f   LIBCMT:getqloc_downlevel.obj
 0001:0002013c       LcidFromHexString          000000018002113c f   LIBCMT:getqloc_downlevel.obj
 0001:0002018c       ProcessCodePage            000000018002118c f   LIBCMT:getqloc_downlevel.obj
 0001:0002023c       TestDefaultLanguage        000000018002123c f   LIBCMT:getqloc_downlevel.obj
 0001:000202e4       TranslateName              00000001800212e4 f   LIBCMT:getqloc_downlevel.obj
 0001:000202e4       TranslateName              00000001800212e4 f   LIBCMT:getqloc_downlevel.obj
 0001:00020630       $$000000                   0000000180021630     LIBCMT:handlers.obj
 0001:00021c1c       ?wcstoxl@@YAKPEB_WPEAPEB_WHH@Z 0000000180022c1c f   LIBCMT:wcstol.obj
 0001:00024760       ?dtor$0@?0???0_Locinfo@std@@QEAA@PEBD@Z@4HA 0000000180025760 f   node-midi.obj
 0001:0002476c       ?dtor$1@?0???0_Locinfo@std@@QEAA@PEBD@Z@4HA 000000018002576c f   node-midi.obj
 0001:0002477c       ?dtor$2@?0???0_Locinfo@std@@QEAA@PEBD@Z@4HA 000000018002577c f   node-midi.obj
 0001:0002478c       ?dtor$3@?0???0_Locinfo@std@@QEAA@PEBD@Z@4HA 000000018002578c f   node-midi.obj
 0001:0002479c       ?dtor$4@?0???0_Locinfo@std@@QEAA@PEBD@Z@4HA 000000018002579c f   node-midi.obj
 0001:000247ac       ?dtor$5@?0???0_Locinfo@std@@QEAA@PEBD@Z@4HA 00000001800257ac f   node-midi.obj
 0001:000247bc       ?dtor$6@?0???0_Locinfo@std@@QEAA@PEBD@Z@4HA 00000001800257bc f   node-midi.obj
 0001:000247cc       ?dtor$7@?0???0_Locinfo@std@@QEAA@PEBD@Z@4HA 00000001800257cc f   node-midi.obj
 0001:000247e0       ?dtor$0@?0??_Getcat@?$ctype@D@std@@SA_KPEAPEBVfacet@locale@2@PEBV42@@Z@4HA 00000001800257e0 f   node-midi.obj
 0001:000247f0       ?dtor$0@?0??_Makestr@_System_error@std@@CA?AV?$basic_string@DU?$char_traits@D@std@@V?$allocator@D@2@@2@Verror_code@2@V32@@Z@4HA 00000001800257f0 f   node-midi.obj
 0001:000247fc       ?dtor$1@?0??_Makestr@_System_error@std@@CA?AV?$basic_string@DU?$char_traits@D@std@@V?$allocator@D@2@@2@Verror_code@2@V32@@Z@4HA 00000001800257fc f   node-midi.obj
 0001:00024810       ?dtor$0@?0???0system_error@std@@QEAA@Verror_code@1@PEBD@Z@4HA 0000000180025810 f   node-midi.obj
 0001:00024820       ?dtor$0@?0??clear@ios_base@std@@QEAAXH_N@Z@4HA 0000000180025820 f   node-midi.obj
 0001:0002482c       ?dtor$1@?0??clear@ios_base@std@@QEAAXH_N@Z@4HA 000000018002582c f   node-midi.obj
 0001:00024838       ?dtor$2@?0??clear@ios_base@std@@QEAAXH_N@Z@4HA 0000000180025838 f   node-midi.obj
 0001:00024850       ?dtor$0@?0??_Init@ios_base@std@@IEAAXXZ@4HA 0000000180025850 f   node-midi.obj
 0001:00024850       ?dtor$0@?0???0?$basic_streambuf@DU?$char_traits@D@std@@@std@@IEAA@XZ@4HA 0000000180025850 f   node-midi.obj
 0001:00024860       ?dtor$0@?0??New@?$Factory@VFunctionTemplate@v8@@@imp@Nan@@SA?AV?$Local@VFunctionTemplate@v8@@@v8@@P6AXAEBV?$FunctionCallbackInfo@VValue@v8@@@3@@ZV?$Local@VValue@v8@@@5@V?$Local@VSignature@v8@@@5@@Z@4HA 0000000180025860 f   node-midi.obj
 0001:00024870       ?dtor$0@?0???1ObjectWrap@Nan@@UEAA@XZ@4HA 0000000180025870 f   node-midi.obj
 0001:00024880       ?dtor$0@?0??openVirtualPort@RtMidiOut@@UEAAXV?$basic_string@DU?$char_traits@D@std@@V?$allocator@D@2@@std@@@Z@4HA 0000000180025880 f   node-midi.obj
 0001:00024880       ?dtor$0@?0??openPort@RtMidiIn@@UEAAXIV?$basic_string@DU?$char_traits@D@std@@V?$allocator@D@2@@std@@@Z@4HA 0000000180025880 f   node-midi.obj
 0001:00024880       ?dtor$0@?0??openPort@RtMidiOut@@UEAAXIV?$basic_string@DU?$char_traits@D@std@@V?$allocator@D@2@@std@@@Z@4HA 0000000180025880 f   node-midi.obj
 0001:00024880       ?dtor$0@?0??openVirtualPort@RtMidiIn@@UEAAXV?$basic_string@DU?$char_traits@D@std@@V?$allocator@D@2@@std@@@Z@4HA 0000000180025880 f   node-midi.obj
 0001:00024890       ?dtor$0@?0??openMidiApi@RtMidiOut@@IEAAXW4Api@RtMidi@@V?$basic_string@DU?$char_traits@D@std@@V?$allocator@D@2@@std@@@Z@4HA 0000000180025890 f   node-midi.obj
 0001:00024890       ?dtor$0@?0??openMidiApi@RtMidiIn@@IEAAXW4Api@RtMidi@@V?$basic_string@DU?$char_traits@D@std@@V?$allocator@D@2@@std@@I@Z@4HA 0000000180025890 f   node-midi.obj
 0001:0002489c       ?dtor$1@?0??openMidiApi@RtMidiIn@@IEAAXW4Api@RtMidi@@V?$basic_string@DU?$char_traits@D@std@@V?$allocator@D@2@@std@@I@Z@4HA 000000018002589c f   node-midi.obj
 0001:0002489c       ?dtor$1@?0??openMidiApi@RtMidiOut@@IEAAXW4Api@RtMidi@@V?$basic_string@DU?$char_traits@D@std@@V?$allocator@D@2@@std@@@Z@4HA 000000018002589c f   node-midi.obj
 0001:000248b0       ?dtor$0@?0???0RtMidiOut@@QEAA@W4Api@RtMidi@@V?$basic_string@DU?$char_traits@D@std@@V?$allocator@D@2@@std@@@Z@4HA 00000001800258b0 f   node-midi.obj
 0001:000248b0       ?dtor$0@?0???0RtMidiIn@@QEAA@W4Api@RtMidi@@V?$basic_string@DU?$char_traits@D@std@@V?$allocator@D@2@@std@@I@Z@4HA 00000001800258b0 f   node-midi.obj
 0001:000248bc       ?dtor$1@?0???0RtMidiOut@@QEAA@W4Api@RtMidi@@V?$basic_string@DU?$char_traits@D@std@@V?$allocator@D@2@@std@@@Z@4HA 00000001800258bc f   node-midi.obj
 0001:000248bc       ?dtor$1@?0???0RtMidiIn@@QEAA@W4Api@RtMidi@@V?$basic_string@DU?$char_traits@D@std@@V?$allocator@D@2@@std@@I@Z@4HA 00000001800258bc f   node-midi.obj
 0001:000248c8       ?dtor$3@?0???0RtMidiOut@@QEAA@W4Api@RtMidi@@V?$basic_string@DU?$char_traits@D@std@@V?$allocator@D@2@@std@@@Z@4HA 00000001800258c8 f   node-midi.obj
 0001:000248c8       ?dtor$3@?0???0RtMidiIn@@QEAA@W4Api@RtMidi@@V?$basic_string@DU?$char_traits@D@std@@V?$allocator@D@2@@std@@I@Z@4HA 00000001800258c8 f   node-midi.obj
 0001:000248d4       ?dtor$5@?0???0RtMidiIn@@QEAA@W4Api@RtMidi@@V?$basic_string@DU?$char_traits@D@std@@V?$allocator@D@2@@std@@I@Z@4HA 00000001800258d4 f   node-midi.obj
 0001:000248d4       ?dtor$5@?0???0RtMidiOut@@QEAA@W4Api@RtMidi@@V?$basic_string@DU?$char_traits@D@std@@V?$allocator@D@2@@std@@@Z@4HA 00000001800258d4 f   node-midi.obj
 0001:000248e0       ?dtor$0@?0???0RtMidiError@@QEAA@AEBV0@@Z@4HA 00000001800258e0 f   node-midi.obj
 0001:000248f0       ?dtor$0@?0??error@MidiApi@@QEAAXW4Type@RtMidiError@@V?$basic_string@DU?$char_traits@D@std@@V?$allocator@D@2@@std@@@Z@4HA 00000001800258f0 f   node-midi.obj
 0001:000248fc       ?dtor$1@?0??error@MidiApi@@QEAAXW4Type@RtMidiError@@V?$basic_string@DU?$char_traits@D@std@@V?$allocator@D@2@@std@@@Z@4HA 00000001800258fc f   node-midi.obj
 0001:00024910       ?dtor$0@?0???0MidiInApi@@QEAA@I@Z@4HA 0000000180025910 f   node-midi.obj
 0001:0002491c       ?dtor$1@?0???0MidiInApi@@QEAA@I@Z@4HA 000000018002591c f   node-midi.obj
 0001:0002492c       ?dtor$2@?0???0MidiInApi@@QEAA@I@Z@4HA 000000018002592c f   node-midi.obj
 0001:00024940       ?dtor$0@?0???0MidiInWinMM@@QEAA@V?$basic_string@DU?$char_traits@D@std@@V?$allocator@D@2@@std@@I@Z@4HA 0000000180025940 f   node-midi.obj
 0001:0002494c       ?dtor$1@?0???0MidiInWinMM@@QEAA@V?$basic_string@DU?$char_traits@D@std@@V?$allocator@D@2@@std@@I@Z@4HA 000000018002594c f   node-midi.obj
 0001:00024960       ?dtor$0@?0???1MidiInWinMM@@UEAA@XZ@4HA 0000000180025960 f   node-midi.obj
 0001:00024970       ?dtor$1@?0??initialize@MidiOutWinMM@@MEAAXAEBV?$basic_string@DU?$char_traits@D@std@@V?$allocator@D@2@@std@@@Z@4HA 0000000180025970 f   node-midi.obj
 0001:00024970       ?dtor$1@?0??initialize@MidiInWinMM@@MEAAXAEBV?$basic_string@DU?$char_traits@D@std@@V?$allocator@D@2@@std@@@Z@4HA 0000000180025970 f   node-midi.obj
 0001:00024980       ?dtor$0@?0??openPort@MidiInWinMM@@UEAAXIV?$basic_string@DU?$char_traits@D@std@@V?$allocator@D@2@@std@@@Z@4HA 0000000180025980 f   node-midi.obj
 0001:00024980       ?dtor$0@?0??openPort@MidiOutWinMM@@UEAAXIV?$basic_string@DU?$char_traits@D@std@@V?$allocator@D@2@@std@@@Z@4HA 0000000180025980 f   node-midi.obj
 0001:0002498c       ?dtor$3@?0??openPort@MidiOutWinMM@@UEAAXIV?$basic_string@DU?$char_traits@D@std@@V?$allocator@D@2@@std@@@Z@4HA 000000018002598c f   node-midi.obj
 0001:0002498c       ?dtor$3@?0??openPort@MidiInWinMM@@UEAAXIV?$basic_string@DU?$char_traits@D@std@@V?$allocator@D@2@@std@@@Z@4HA 000000018002598c f   node-midi.obj
 0001:000249a0       ?dtor$0@?0??openVirtualPort@MidiOutWinMM@@UEAAXV?$basic_string@DU?$char_traits@D@std@@V?$allocator@D@2@@std@@@Z@4HA 00000001800259a0 f   node-midi.obj
 0001:000249a0       ?dtor$0@?0??openVirtualPort@MidiInWinMM@@UEAAXV?$basic_string@DU?$char_traits@D@std@@V?$allocator@D@2@@std@@@Z@4HA 00000001800259a0 f   node-midi.obj
 0001:000249b0       ?dtor$0@?0??getPortName@MidiInWinMM@@UEAA?AV?$basic_string@DU?$char_traits@D@std@@V?$allocator@D@2@@std@@I@Z@4HA 00000001800259b0 f   node-midi.obj
 0001:000249bc       ?dtor$1@?0??getPortName@MidiInWinMM@@UEAA?AV?$basic_string@DU?$char_traits@D@std@@V?$allocator@D@2@@std@@I@Z@4HA 00000001800259bc f   node-midi.obj
 0001:000249c8       ?dtor$6@?0??getPortName@MidiInWinMM@@UEAA?AV?$basic_string@DU?$char_traits@D@std@@V?$allocator@D@2@@std@@I@Z@4HA 00000001800259c8 f   node-midi.obj
 0001:000249d4       ?dtor$7@?0??getPortName@MidiInWinMM@@UEAA?AV?$basic_string@DU?$char_traits@D@std@@V?$allocator@D@2@@std@@I@Z@4HA 00000001800259d4 f   node-midi.obj
 0001:000249e0       ?dtor$0@?0???0MidiOutWinMM@@QEAA@V?$basic_string@DU?$char_traits@D@std@@V?$allocator@D@2@@std@@@Z@4HA 00000001800259e0 f   node-midi.obj
 0001:000249ec       ?dtor$1@?0???0MidiOutWinMM@@QEAA@V?$basic_string@DU?$char_traits@D@std@@V?$allocator@D@2@@std@@@Z@4HA 00000001800259ec f   node-midi.obj
 0001:00024a00       ?dtor$0@?0??getPortName@MidiOutWinMM@@UEAA?AV?$basic_string@DU?$char_traits@D@std@@V?$allocator@D@2@@std@@I@Z@4HA 0000000180025a00 f   node-midi.obj
 0001:00024a0c       ?dtor$1@?0??getPortName@MidiOutWinMM@@UEAA?AV?$basic_string@DU?$char_traits@D@std@@V?$allocator@D@2@@std@@I@Z@4HA 0000000180025a0c f   node-midi.obj
 0001:00024a20       ?dtor$0@?0??Init@NodeMidiOutput@@SAXV?$Local@VObject@v8@@@v8@@@Z@4HA 0000000180025a20 f   node-midi.obj
 0001:00024a20       ?dtor$0@?0??Init@NodeMidiInput@@SAXV?$Local@VObject@v8@@@v8@@@Z@4HA 0000000180025a20 f   node-midi.obj
 0001:00024a2c       ?dtor$2@?0??Init@NodeMidiOutput@@SAXV?$Local@VObject@v8@@@v8@@@Z@4HA 0000000180025a2c f   node-midi.obj
 0001:00024a2c       ?dtor$2@?0??Init@NodeMidiInput@@SAXV?$Local@VObject@v8@@@v8@@@Z@4HA 0000000180025a2c f   node-midi.obj
 0001:00024a38       ?dtor$5@?0??Init@NodeMidiOutput@@SAXV?$Local@VObject@v8@@@v8@@@Z@4HA 0000000180025a38 f   node-midi.obj
 0001:00024a38       ?dtor$5@?0??Init@NodeMidiInput@@SAXV?$Local@VObject@v8@@@v8@@@Z@4HA 0000000180025a38 f   node-midi.obj
 0001:00024a44       ?dtor$8@?0??Init@NodeMidiInput@@SAXV?$Local@VObject@v8@@@v8@@@Z@4HA 0000000180025a44 f   node-midi.obj
 0001:00024a44       ?dtor$8@?0??Init@NodeMidiOutput@@SAXV?$Local@VObject@v8@@@v8@@@Z@4HA 0000000180025a44 f   node-midi.obj
 0001:00024a50       ?dtor$11@?0??Init@NodeMidiInput@@SAXV?$Local@VObject@v8@@@v8@@@Z@4HA 0000000180025a50 f   node-midi.obj
 0001:00024a50       ?dtor$11@?0??Init@NodeMidiOutput@@SAXV?$Local@VObject@v8@@@v8@@@Z@4HA 0000000180025a50 f   node-midi.obj
 0001:00024a5c       ?dtor$14@?0??Init@NodeMidiInput@@SAXV?$Local@VObject@v8@@@v8@@@Z@4HA 0000000180025a5c f   node-midi.obj
 0001:00024a5c       ?dtor$14@?0??Init@NodeMidiOutput@@SAXV?$Local@VObject@v8@@@v8@@@Z@4HA 0000000180025a5c f   node-midi.obj
 0001:00024a68       ?dtor$17@?0??Init@NodeMidiOutput@@SAXV?$Local@VObject@v8@@@v8@@@Z@4HA 0000000180025a68 f   node-midi.obj
 0001:00024a68       ?dtor$17@?0??Init@NodeMidiInput@@SAXV?$Local@VObject@v8@@@v8@@@Z@4HA 0000000180025a68 f   node-midi.obj
 0001:00024a80       ?dtor$0@?0???0NodeMidiOutput@@QEAA@XZ@4HA 0000000180025a80 f   node-midi.obj
 0001:00024a8c       ?dtor$1@?0???0NodeMidiOutput@@QEAA@XZ@4HA 0000000180025a8c f   node-midi.obj
 0001:00024aa0       ?dtor$0@?0??New@NodeMidiOutput@@SAXAEBV?$FunctionCallbackInfo@VValue@v8@@@Nan@@@Z@4HA 0000000180025aa0 f   node-midi.obj
 0001:00024aac       ?dtor$3@?0??New@NodeMidiOutput@@SAXAEBV?$FunctionCallbackInfo@VValue@v8@@@Nan@@@Z@4HA 0000000180025aac f   node-midi.obj
 0001:00024ab8       ?dtor$1@?0??New@NodeMidiOutput@@SAXAEBV?$FunctionCallbackInfo@VValue@v8@@@Nan@@@Z@4HA 0000000180025ab8 f   node-midi.obj
 0001:00024ad0       ?dtor$0@?0??ClosePort@NodeMidiInput@@SAXAEBV?$FunctionCallbackInfo@VValue@v8@@@Nan@@@Z@4HA 0000000180025ad0 f   node-midi.obj
 0001:00024ad0       ?dtor$0@?0??GetPortCount@NodeMidiInput@@SAXAEBV?$FunctionCallbackInfo@VValue@v8@@@Nan@@@Z@4HA 0000000180025ad0 f   node-midi.obj
 0001:00024ad0       ?dtor$0@?0??GetPortCount@NodeMidiOutput@@SAXAEBV?$FunctionCallbackInfo@VValue@v8@@@Nan@@@Z@4HA 0000000180025ad0 f   node-midi.obj
 0001:00024ad0       ?dtor$0@?0??ClosePort@NodeMidiOutput@@SAXAEBV?$FunctionCallbackInfo@VValue@v8@@@Nan@@@Z@4HA 0000000180025ad0 f   node-midi.obj
 0001:00024ae0       ?dtor$0@?0??GetPortName@NodeMidiInput@@SAXAEBV?$FunctionCallbackInfo@VValue@v8@@@Nan@@@Z@4HA 0000000180025ae0 f   node-midi.obj
 0001:00024ae0       ?dtor$0@?0??GetPortName@NodeMidiOutput@@SAXAEBV?$FunctionCallbackInfo@VValue@v8@@@Nan@@@Z@4HA 0000000180025ae0 f   node-midi.obj
 0001:00024aec       ?dtor$3@?0??GetPortName@NodeMidiInput@@SAXAEBV?$FunctionCallbackInfo@VValue@v8@@@Nan@@@Z@4HA 0000000180025aec f   node-midi.obj
 0001:00024aec       ?dtor$3@?0??GetPortName@NodeMidiOutput@@SAXAEBV?$FunctionCallbackInfo@VValue@v8@@@Nan@@@Z@4HA 0000000180025aec f   node-midi.obj
 0001:00024af8       ?dtor$1@?0??GetPortName@NodeMidiOutput@@SAXAEBV?$FunctionCallbackInfo@VValue@v8@@@Nan@@@Z@4HA 0000000180025af8 f   node-midi.obj
 0001:00024af8       ?dtor$1@?0??GetPortName@NodeMidiInput@@SAXAEBV?$FunctionCallbackInfo@VValue@v8@@@Nan@@@Z@4HA 0000000180025af8 f   node-midi.obj
 0001:00024b10       ?dtor$0@?0??OpenPort@NodeMidiOutput@@SAXAEBV?$FunctionCallbackInfo@VValue@v8@@@Nan@@@Z@4HA 0000000180025b10 f   node-midi.obj
 0001:00024b10       ?dtor$0@?0??OpenPort@NodeMidiInput@@SAXAEBV?$FunctionCallbackInfo@VValue@v8@@@Nan@@@Z@4HA 0000000180025b10 f   node-midi.obj
 0001:00024b1c       ?dtor$3@?0??OpenPort@NodeMidiOutput@@SAXAEBV?$FunctionCallbackInfo@VValue@v8@@@Nan@@@Z@4HA 0000000180025b1c f   node-midi.obj
 0001:00024b1c       ?dtor$3@?0??OpenPort@NodeMidiInput@@SAXAEBV?$FunctionCallbackInfo@VValue@v8@@@Nan@@@Z@4HA 0000000180025b1c f   node-midi.obj
 0001:00024b28       ?dtor$7@?0??OpenPort@NodeMidiInput@@SAXAEBV?$FunctionCallbackInfo@VValue@v8@@@Nan@@@Z@4HA 0000000180025b28 f   node-midi.obj
 0001:00024b28       ?dtor$7@?0??OpenPort@NodeMidiOutput@@SAXAEBV?$FunctionCallbackInfo@VValue@v8@@@Nan@@@Z@4HA 0000000180025b28 f   node-midi.obj
 0001:00024b40       ?dtor$0@?0??OpenVirtualPort@NodeMidiOutput@@SAXAEBV?$FunctionCallbackInfo@VValue@v8@@@Nan@@@Z@4HA 0000000180025b40 f   node-midi.obj
 0001:00024b40       ?dtor$0@?0??OpenVirtualPort@NodeMidiInput@@SAXAEBV?$FunctionCallbackInfo@VValue@v8@@@Nan@@@Z@4HA 0000000180025b40 f   node-midi.obj
 0001:00024b4c       ?dtor$5@?0??OpenVirtualPort@NodeMidiOutput@@SAXAEBV?$FunctionCallbackInfo@VValue@v8@@@Nan@@@Z@4HA 0000000180025b4c f   node-midi.obj
 0001:00024b4c       ?dtor$5@?0??OpenVirtualPort@NodeMidiInput@@SAXAEBV?$FunctionCallbackInfo@VValue@v8@@@Nan@@@Z@4HA 0000000180025b4c f   node-midi.obj
 0001:00024b58       ?dtor$1@?0??OpenVirtualPort@NodeMidiInput@@SAXAEBV?$FunctionCallbackInfo@VValue@v8@@@Nan@@@Z@4HA 0000000180025b58 f   node-midi.obj
 0001:00024b58       ?dtor$1@?0??OpenVirtualPort@NodeMidiOutput@@SAXAEBV?$FunctionCallbackInfo@VValue@v8@@@Nan@@@Z@4HA 0000000180025b58 f   node-midi.obj
 0001:00024b66       ?dtor$2@?0??OpenVirtualPort@NodeMidiInput@@SAXAEBV?$FunctionCallbackInfo@VValue@v8@@@Nan@@@Z@4HA 0000000180025b66 f   node-midi.obj
 0001:00024b66       ?dtor$2@?0??OpenVirtualPort@NodeMidiOutput@@SAXAEBV?$FunctionCallbackInfo@VValue@v8@@@Nan@@@Z@4HA 0000000180025b66 f   node-midi.obj
 0001:00024b80       ?dtor$0@?0??SendMessageA@NodeMidiOutput@@SAXAEBV?$FunctionCallbackInfo@VValue@v8@@@Nan@@@Z@4HA 0000000180025b80 f   node-midi.obj
 0001:00024b8c       ?dtor$3@?0??SendMessageA@NodeMidiOutput@@SAXAEBV?$FunctionCallbackInfo@VValue@v8@@@Nan@@@Z@4HA 0000000180025b8c f   node-midi.obj
 0001:00024b98       ?dtor$1@?0??SendMessageA@NodeMidiOutput@@SAXAEBV?$FunctionCallbackInfo@VValue@v8@@@Nan@@@Z@4HA 0000000180025b98 f   node-midi.obj
 0001:00024bb0       ?dtor$0@?0???_GNodeMidiOutput@@UEAAPEAXI@Z@4HA 0000000180025bb0 f   node-midi.obj
 0001:00024bc0       ?dtor$0@?0???0NodeMidiInput@@QEAA@XZ@4HA 0000000180025bc0 f   node-midi.obj
 0001:00024bcc       ?dtor$1@?0???0NodeMidiInput@@QEAA@XZ@4HA 0000000180025bcc f   node-midi.obj
 0001:00024bdf       ?dtor$2@?0???0NodeMidiInput@@QEAA@XZ@4HA 0000000180025bdf f   node-midi.obj
 0001:00024bf0       ?dtor$0@?0???1NodeMidiInput@@UEAA@XZ@4HA 0000000180025bf0 f   node-midi.obj
 0001:00024bfc       ?dtor$1@?0???1NodeMidiInput@@UEAA@XZ@4HA 0000000180025bfc f   node-midi.obj
 0001:00024c10       ?dtor$0@?0??EmitMessage@NodeMidiInput@@SAXPEAUuv_async_s@@@Z@4HA 0000000180025c10 f   node-midi.obj
 0001:00024c20       ?dtor$0@?0??New@NodeMidiInput@@SAXAEBV?$FunctionCallbackInfo@VValue@v8@@@Nan@@@Z@4HA 0000000180025c20 f   node-midi.obj
 0001:00024c2c       ?dtor$3@?0??New@NodeMidiInput@@SAXAEBV?$FunctionCallbackInfo@VValue@v8@@@Nan@@@Z@4HA 0000000180025c2c f   node-midi.obj
 0001:00024c38       ?dtor$1@?0??New@NodeMidiInput@@SAXAEBV?$FunctionCallbackInfo@VValue@v8@@@Nan@@@Z@4HA 0000000180025c38 f   node-midi.obj
 0001:00024c50       ?dtor$0@?0??IgnoreTypes@NodeMidiInput@@SAXAEBV?$FunctionCallbackInfo@VValue@v8@@@Nan@@@Z@4HA 0000000180025c50 f   node-midi.obj
 0001:00024c5c       ?dtor$2@?0??IgnoreTypes@NodeMidiInput@@SAXAEBV?$FunctionCallbackInfo@VValue@v8@@@Nan@@@Z@4HA 0000000180025c5c f   node-midi.obj
 0001:00024c70       ?dtor$0@?0???0?$basic_ostream@DU?$char_traits@D@std@@@std@@QEAA@PEAV?$basic_streambuf@DU?$char_traits@D@std@@@1@_N@Z@4HA 0000000180025c70 f   node-midi.obj
 0001:00024ca0       ?dtor$2@?0???6?$basic_ostream@DU?$char_traits@D@std@@@std@@QEAAAEAV01@I@Z@4HA 0000000180025ca0 f   node-midi.obj
 0001:00024cac       ?dtor$0@?0???6?$basic_ostream@DU?$char_traits@D@std@@@std@@QEAAAEAV01@I@Z@4HA 0000000180025cac f   node-midi.obj
 0001:00024cb8       ?dtor$1@?0???6?$basic_ostream@DU?$char_traits@D@std@@@std@@QEAAAEAV01@I@Z@4HA 0000000180025cb8 f   node-midi.obj
 0001:00024cd0       ?dtor$0@?0???0?$basic_ostringstream@DU?$char_traits@D@std@@V?$allocator@D@2@@std@@QEAA@H@Z@4HA 0000000180025cd0 f   node-midi.obj
 0001:00024cfd       ?dtor$4@?0???0?$basic_ostringstream@DU?$char_traits@D@std@@V?$allocator@D@2@@std@@QEAA@H@Z@4HA 0000000180025cfd f   node-midi.obj
 0001:00024d09       ?dtor$1@?0???0?$basic_ostringstream@DU?$char_traits@D@std@@V?$allocator@D@2@@std@@QEAA@H@Z@4HA 0000000180025d09 f   node-midi.obj
 0001:00024d19       ?dtor$5@?0???0?$basic_ostringstream@DU?$char_traits@D@std@@V?$allocator@D@2@@std@@QEAA@H@Z@4HA 0000000180025d19 f   node-midi.obj
 0001:00024d30       ?dtor$0@?0??init@?$basic_ios@DU?$char_traits@D@std@@@std@@IEAAXPEAV?$basic_streambuf@DU?$char_traits@D@std@@@2@_N@Z@4HA 0000000180025d30 f   node-midi.obj
 0001:00024d40       ?dtor$0@?0???0sentry@?$basic_ostream@DU?$char_traits@D@std@@@std@@QEAA@AEAV12@@Z@4HA 0000000180025d40 f   node-midi.obj
 0001:00024d50       ?dtor$0@?0??do_put@?$num_put@DV?$ostreambuf_iterator@DU?$char_traits@D@std@@@std@@@std@@MEBA?AV?$ostreambuf_iterator@DU?$char_traits@D@std@@@2@V32@AEAVios_base@2@D_N@Z@4HA 0000000180025d50 f   node-midi.obj
 0001:00024d5c       ?dtor$1@?0??do_put@?$num_put@DV?$ostreambuf_iterator@DU?$char_traits@D@std@@@std@@@std@@MEBA?AV?$ostreambuf_iterator@DU?$char_traits@D@std@@@2@V32@AEAVios_base@2@D_N@Z@4HA 0000000180025d5c f   node-midi.obj
 0001:00024d70       ?dtor$0@?0??flush@?$basic_ostream@DU?$char_traits@D@std@@@std@@QEAAAEAV12@XZ@4HA 0000000180025d70 f   node-midi.obj
 0001:00024d80       ?dtor$0@?0??_Fput@?$num_put@DV?$ostreambuf_iterator@DU?$char_traits@D@std@@@std@@@std@@AEBA?AV?$ostreambuf_iterator@DU?$char_traits@D@std@@@2@V32@AEAVios_base@2@DPEBD_K333@Z@4HA 0000000180025d80 f   node-midi.obj
 0001:00024d8c       ?dtor$1@?0??_Fput@?$num_put@DV?$ostreambuf_iterator@DU?$char_traits@D@std@@@std@@@std@@AEBA?AV?$ostreambuf_iterator@DU?$char_traits@D@std@@@2@V32@AEAVios_base@2@DPEBD_K333@Z@4HA 0000000180025d8c f   node-midi.obj
 0001:00024d98       ?dtor$2@?0??_Fput@?$num_put@DV?$ostreambuf_iterator@DU?$char_traits@D@std@@@std@@@std@@AEBA?AV?$ostreambuf_iterator@DU?$char_traits@D@std@@@2@V32@AEAVios_base@2@DPEBD_K333@Z@4HA 0000000180025d98 f   node-midi.obj
 0001:00024da4       ?dtor$3@?0??_Fput@?$num_put@DV?$ostreambuf_iterator@DU?$char_traits@D@std@@@std@@@std@@AEBA?AV?$ostreambuf_iterator@DU?$char_traits@D@std@@@2@V32@AEAVios_base@2@DPEBD_K333@Z@4HA 0000000180025da4 f   node-midi.obj
 0001:00024db0       ?dtor$0@?0??_Iput@?$num_put@DV?$ostreambuf_iterator@DU?$char_traits@D@std@@@std@@@std@@AEBA?AV?$ostreambuf_iterator@DU?$char_traits@D@std@@@2@V32@AEAVios_base@2@DPEAD_K@Z@4HA 0000000180025db0 f   node-midi.obj
 0001:00024dbc       ?dtor$1@?0??_Iput@?$num_put@DV?$ostreambuf_iterator@DU?$char_traits@D@std@@@std@@@std@@AEBA?AV?$ostreambuf_iterator@DU?$char_traits@D@std@@@2@V32@AEAVios_base@2@DPEAD_K@Z@4HA 0000000180025dbc f   node-midi.obj
 0001:00024dc8       ?dtor$2@?0??_Iput@?$num_put@DV?$ostreambuf_iterator@DU?$char_traits@D@std@@@std@@@std@@AEBA?AV?$ostreambuf_iterator@DU?$char_traits@D@std@@@2@V32@AEAVios_base@2@DPEAD_K@Z@4HA 0000000180025dc8 f   node-midi.obj
 0001:00024dd4       ?dtor$3@?0??_Iput@?$num_put@DV?$ostreambuf_iterator@DU?$char_traits@D@std@@@std@@@std@@AEBA?AV?$ostreambuf_iterator@DU?$char_traits@D@std@@@2@V32@AEAVios_base@2@DPEAD_K@Z@4HA 0000000180025dd4 f   node-midi.obj
 0001:00024de0       ?dtor$0@?0???$use_facet@V?$ctype@D@std@@@std@@YAAEBV?$ctype@D@0@AEBVlocale@0@@Z@4HA 0000000180025de0 f   node-midi.obj
 0001:00024de0       ?dtor$0@?0???$use_facet@V?$num_put@DV?$ostreambuf_iterator@DU?$char_traits@D@std@@@std@@@std@@@std@@YAAEBV?$num_put@DV?$ostreambuf_iterator@DU?$char_traits@D@std@@@std@@@0@AEBVlocale@0@@Z@4HA 0000000180025de0 f   node-midi.obj
 0001:00024de0       ?dtor$0@?0???$use_facet@V?$numpunct@D@std@@@std@@YAAEBV?$numpunct@D@0@AEBVlocale@0@@Z@4HA 0000000180025de0 f   node-midi.obj
 0001:00024df0       ?dtor$1@?0???$?6U?$char_traits@D@std@@@std@@YAAEAV?$basic_ostream@DU?$char_traits@D@std@@@0@AEAV10@D@Z@4HA 0000000180025df0 f   node-midi.obj
 0001:00024df0       ?dtor$1@?0???$?6DU?$char_traits@D@std@@V?$allocator@D@1@@std@@YAAEAV?$basic_ostream@DU?$char_traits@D@std@@@0@AEAV10@AEBV?$basic_string@DU?$char_traits@D@std@@V?$allocator@D@2@@0@@Z@4HA 0000000180025df0 f   node-midi.obj
 0001:00024df0       ?dtor$1@?0???$?6U?$char_traits@D@std@@@std@@YAAEAV?$basic_ostream@DU?$char_traits@D@std@@@0@AEAV10@PEBD@Z@4HA 0000000180025df0 f   node-midi.obj
 0001:00024dfc       ?dtor$0@?0???$?6U?$char_traits@D@std@@@std@@YAAEAV?$basic_ostream@DU?$char_traits@D@std@@@0@AEAV10@PEBD@Z@4HA 0000000180025dfc f   node-midi.obj
 0001:00024dfc       ?dtor$0@?0???$?6U?$char_traits@D@std@@@std@@YAAEAV?$basic_ostream@DU?$char_traits@D@std@@@0@AEAV10@D@Z@4HA 0000000180025dfc f   node-midi.obj
 0001:00024dfc       ?dtor$0@?0???$?6DU?$char_traits@D@std@@V?$allocator@D@1@@std@@YAAEAV?$basic_ostream@DU?$char_traits@D@std@@@0@AEAV10@AEBV?$basic_string@DU?$char_traits@D@std@@V?$allocator@D@2@@0@@Z@4HA 0000000180025dfc f   node-midi.obj
 0001:00024e08       ?dtor$2@?0???$?6DU?$char_traits@D@std@@V?$allocator@D@1@@std@@YAAEAV?$basic_ostream@DU?$char_traits@D@std@@@0@AEAV10@AEBV?$basic_string@DU?$char_traits@D@std@@V?$allocator@D@2@@0@@Z@4HA 0000000180025e08 f   node-midi.obj
 0001:00024e08       ?dtor$2@?0???$?6U?$char_traits@D@std@@@std@@YAAEAV?$basic_ostream@DU?$char_traits@D@std@@@0@AEAV10@PEBD@Z@4HA 0000000180025e08 f   node-midi.obj
 0001:00024e08       ?dtor$2@?0???$?6U?$char_traits@D@std@@@std@@YAAEAV?$basic_ostream@DU?$char_traits@D@std@@@0@AEAV10@D@Z@4HA 0000000180025e08 f   node-midi.obj
 0001:00024e14       ?dtor$3@?0???$?6U?$char_traits@D@std@@@std@@YAAEAV?$basic_ostream@DU?$char_traits@D@std@@@0@AEAV10@PEBD@Z@4HA 0000000180025e14 f   node-midi.obj
 0001:00024e14       ?dtor$3@?0???$?6DU?$char_traits@D@std@@V?$allocator@D@1@@std@@YAAEAV?$basic_ostream@DU?$char_traits@D@std@@@0@AEAV10@AEBV?$basic_string@DU?$char_traits@D@std@@V?$allocator@D@2@@0@@Z@4HA 0000000180025e14 f   node-midi.obj
 0001:00024e14       ?dtor$3@?0???$?6U?$char_traits@D@std@@@std@@YAAEAV?$basic_ostream@DU?$char_traits@D@std@@@0@AEAV10@D@Z@4HA 0000000180025e14 f   node-midi.obj
 0001:00024e20       ?dtor$4@?0???$?6U?$char_traits@D@std@@@std@@YAAEAV?$basic_ostream@DU?$char_traits@D@std@@@0@AEAV10@D@Z@4HA 0000000180025e20 f   node-midi.obj
 0001:00024e20       ?dtor$4@?0???$?6U?$char_traits@D@std@@@std@@YAAEAV?$basic_ostream@DU?$char_traits@D@std@@@0@AEAV10@PEBD@Z@4HA 0000000180025e20 f   node-midi.obj
 0001:00024e20       ?dtor$4@?0???$?6DU?$char_traits@D@std@@V?$allocator@D@1@@std@@YAAEAV?$basic_ostream@DU?$char_traits@D@std@@@0@AEAV10@AEBV?$basic_string@DU?$char_traits@D@std@@V?$allocator@D@2@@0@@Z@4HA 0000000180025e20 f   node-midi.obj
 0001:00024e30       ?dtor$0@?0??_Getcat@?$num_put@DV?$ostreambuf_iterator@DU?$char_traits@D@std@@@std@@@std@@SA_KPEAPEBVfacet@locale@2@PEBV42@@Z@4HA 0000000180025e30 f   node-midi.obj
 0001:00024e30       ?dtor$0@?0??_Getcat@?$codecvt@DDH@std@@SA_KPEAPEBVfacet@locale@2@PEBV42@@Z@4HA 0000000180025e30 f   libcpmt:cerr.obj
 0001:00024e40       ?dtor$0@?0??_Getcat@?$numpunct@D@std@@SA_KPEAPEBVfacet@locale@2@PEBV42@@Z@4HA 0000000180025e40 f   node-midi.obj
 0001:00024e4c       ?dtor$1@?0??_Getcat@?$numpunct@D@std@@SA_KPEAPEBVfacet@locale@2@PEBV42@@Z@4HA 0000000180025e4c f   node-midi.obj
 0001:00024e78       ?dtor$2@?0??_Getcat@?$numpunct@D@std@@SA_KPEAPEBVfacet@locale@2@PEBV42@@Z@4HA 0000000180025e78 f   node-midi.obj
 0001:00024e84       ?dtor$0@?0??_Init@locale@std@@CAPEAV_Locimp@12@_N@Z@4HA 0000000180025e84 f   libcpmt:locale0.obj
 0001:00024e84       ?dtor$0@?0??_Locimp_dtor@_Locimp@locale@std@@CAXPEAV123@@Z@4HA 0000000180025e84 f   libcpmt:locale0.obj
 0001:00024e90       ?dtor$0@?0???$use_facet@V?$codecvt@DDH@std@@@std@@YAAEBV?$codecvt@DDH@0@AEBVlocale@0@@Z@4HA 0000000180025e90 f   libcpmt:cerr.obj
 0001:00024e9c       ?dtor$0@?0??_Endwrite@?$basic_filebuf@DU?$char_traits@D@std@@@std@@IEAA_NXZ@4HA 0000000180025e9c f   libcpmt:cerr.obj
 0001:00024ea8       ?dtor$0@?0??uflow@?$basic_filebuf@DU?$char_traits@D@std@@@std@@MEAAHXZ@4HA 0000000180025ea8 f   libcpmt:cerr.obj
 0001:00024ea8       ?dtor$0@?0??overflow@?$basic_filebuf@DU?$char_traits@D@std@@@std@@MEAAHH@Z@4HA 0000000180025ea8 f   libcpmt:cerr.obj
 0001:00024eb4       ?fin$0@?0???_M@YAXPEAX_KHP6AX0@Z@Z@4HA 0000000180025eb4 f   LIBCMT:ehvecdtr.obj
 0001:00024ee0       ?filt$0@?0??__ArrayUnwind@@YAXPEAX_KHP6AX0@Z@Z@4HA 0000000180025ee0 f   LIBCMT:ehvecdtr.obj
 0001:00024f21       _onexit$fin$0              0000000180025f21 f   LIBCMT:onexit.obj
 0001:00024f35       ?fin$0@?0???_L@YAXPEAX_KHP6AX0@Z2@Z@4HA 0000000180025f35 f   LIBCMT:ehvecctr.obj
 0001:00024f61       _CRT_INIT$fin$0            0000000180025f61 f   LIBCMT:dllcrt0.obj
 0001:00024f87       __DllMainCRTStartup$filt$0 0000000180025f87 f   LIBCMT:dllcrt0.obj
 0001:00024fd0       _CallSETranslator$filt$0   0000000180025fd0 f   LIBCMT:trnsctrl.obj
 0001:00025016       setlocale$fin$0            0000000180026016 f   LIBCMT:setlocal.obj
 0001:00025031       flsall$fin$0               0000000180026031 f   LIBCMT:fflush.obj
 0001:00025059       flsall$fin$1               0000000180026059 f   LIBCMT:fflush.obj
 0001:00025072       fwrite$fin$0               0000000180026072 f   LIBCMT:fwrite.obj
 0001:0002508a       setvbuf$fin$0              000000018002608a f   LIBCMT:setvbuf.obj
 0001:000250a2       ungetc$fin$0               00000001800260a2 f   LIBCMT:ungetc.obj
 0001:000250a2       fputc$fin$0                00000001800260a2 f   LIBCMT:ungetc.obj
 0001:000250ba       _mtinitlocknum$fin$0       00000001800260ba f   LIBCMT:mlock.obj
 0001:000250d7       doexit$fin$0               00000001800260d7 f   LIBCMT:crt0dat.obj
 0001:000250fb       raise$fin$0                00000001800260fb f   LIBCMT:winsig.obj
 0001:00025119       _locterm$fin$0             0000000180026119 f   LIBCMT:localref.obj
 0001:00025119       __updatetlocinfo$fin$0     0000000180026119 f   LIBCMT:localref.obj
 0001:00025132       _initptd$fin$1             0000000180026132 f   LIBCMT:tidtable.obj
 0001:00025132       _freefls$fin$1             0000000180026132 f   LIBCMT:tidtable.obj
 0001:0002514b       _freefls$fin$0             000000018002614b f   LIBCMT:tidtable.obj
 0001:0002514b       _initptd$fin$0             000000018002614b f   LIBCMT:tidtable.obj
 0001:00025164       fwprintf$fin$0             0000000180026164 f   LIBCMT:fwprintf.obj
 0001:0002517e       ?fin$0@?0??_Type_info_dtor@type_info@@CAXPEAV1@@Z@4HA 000000018002617e f   LIBCMT:typname.obj
 0001:00025197       _setmbcp$fin$0             0000000180026197 f   LIBCMT:mbctype.obj
 0001:00025197       __updatetmbcinfo$fin$0     0000000180026197 f   LIBCMT:mbctype.obj
 0001:000251b0       _wsetlocale$fin$1          00000001800261b0 f   LIBCMT:wsetloca.obj
 0001:000251cb       _wsetlocale$fin$0          00000001800261cb f   LIBCMT:wsetloca.obj
 0001:000251e6       _wsetlocale$fin$2          00000001800261e6 f   LIBCMT:wsetloca.obj
 0001:00025201       _ioinit$fin$0              0000000180026201 f   LIBCMT:ioinit.obj
 0001:0002521c       __CxxCallCatchBlock$filt$0 000000018002621c f   LIBCMT:frame.obj
 0001:00025310       __CxxCallCatchBlock$fin$1  0000000180026310 f   LIBCMT:frame.obj
 0001:0002538e       __DestructExceptionObject$filt$0 000000018002638e f   LIBCMT:frame.obj
 0001:000253a6       __FrameUnwindToState$filt$0 00000001800263a6 f   LIBCMT:frame.obj
 0001:000253bc       __FrameUnwindToState$fin$1 00000001800263bc f   LIBCMT:frame.obj
 0001:000253e5       _fcloseall$fin$0           00000001800263e5 f   LIBCMT:closeall.obj
 0001:000253fe       _commit$fin$0              00000001800263fe f   LIBCMT:close.obj
 0001:000253fe       _close$fin$0               00000001800263fe f   LIBCMT:close.obj
 0001:00025415       fclose$fin$0               0000000180026415 f   LIBCMT:ftelli64.obj
 0001:00025415       fgetc$fin$0                0000000180026415 f   LIBCMT:ftelli64.obj
 0001:00025415       _ftelli64$fin$0            0000000180026415 f   LIBCMT:ftelli64.obj
 0001:00025415       fflush$fin$0               0000000180026415 f   LIBCMT:ftelli64.obj
 0001:00025415       _fseeki64$fin$0            0000000180026415 f   LIBCMT:ftelli64.obj
 0001:00025430       _IsNonwritableInCurrentImage$filt$0 0000000180026430 f   LIBCMT:pesect.obj
 0001:00025450       __lock_fhandle$fin$0       0000000180026450 f   LIBCMT:osfinfo.obj
 0001:00025469       _read$fin$0                0000000180026469 f   LIBCMT:read.obj
 0001:00025469       _write$fin$0               0000000180026469 f   LIBCMT:read.obj
 0001:00025469       _lseeki64$fin$0            0000000180026469 f   LIBCMT:read.obj
 0001:00025480       ??__F?s_ct@NodeMidiOutput@@2V?$Persistent@VFunctionTemplate@v8@@V?$NonCopyablePersistentTraits@VFunctionTemplate@v8@@@2@@Nan@@A@@YAXXZ 0000000180026480 f   node-midi.obj
 0001:00025490       ??__F?s_ct@NodeMidiInput@@2V?$Persistent@VFunctionTemplate@v8@@V?$NonCopyablePersistentTraits@VFunctionTemplate@v8@@@2@@Nan@@A@@YAXXZ 0000000180026490 f   node-midi.obj
 0001:00025494       ??__F_Fac_tidy_reg@std@@YAXXZ 0000000180026494 f   libcpmt:locale0.obj
 0001:000254e0       ??__Fclassic_locale@std@@YAXXZ 00000001800264e0 f   libcpmt:locale0.obj
 0001:00025510       ??__Fcerr@std@@YAXXZ       0000000180026510 f   libcpmt:cerr.obj
 0001:0002555c       ??__Fferr@std@@YAXXZ       000000018002655c f   libcpmt:cerr.obj
 0001:00025568       ??__Finitlocks@@YAXXZ      0000000180026568 f   libcpmt:cerr.obj
 0001:00025574       ??__Finitlocks@std@@YAXXZ  0000000180026574 f   libcpmt:xlock.obj
 0001:00025580       ??__Finit_atexit@@YAXXZ    0000000180026580 f   libcpmt:iosptrs.obj
 0001:000255bc       ??__Finitlocks@std@@YAXXZ  00000001800265bc f   libcpmt:iosptrs.obj
 0002:00000300       initlocks$initializer$     0000000180027300     libcpmt:cerr.obj
 0002:00000308       ferr$initializer$          0000000180027308     libcpmt:cerr.obj
 0002:00000310       cerr$initializer$          0000000180027310     libcpmt:cerr.obj
 0002:00000318       init_cerr$initializer$     0000000180027318     libcpmt:cerr.obj
 0002:00000320       initlocks$initializer$     0000000180027320     libcpmt:xlock.obj
 0002:00000328       initlocks$initializer$     0000000180027328     libcpmt:iosptrs.obj
 0002:00000330       init_atexit$initializer$   0000000180027330     libcpmt:iosptrs.obj
 0002:00000338       _Fac_tidy_reg$initializer$ 0000000180027338     libcpmt:locale0.obj
 0002:00000340       classic_locale$initializer$ 0000000180027340     libcpmt:locale0.obj
 0002:00000348       ?s_ct$initializer$@NodeMidiOutput@@2P6AXXZEA 0000000180027348     node-midi.obj
 0002:00000350       ?s_ct$initializer$@NodeMidiInput@@2P6AXXZEA 0000000180027350     node-midi.obj
 0002:00000358       piecewise_construct$initializer$ 0000000180027358     node-midi.obj
 0002:00000360       allocator_arg$initializer$ 0000000180027360     node-midi.obj
 0002:00000380       pinit                      0000000180027380     LIBCMT:onexit.obj
 0002:00000388       pinit                      0000000180027388     LIBCMT:_file.obj
 0002:00000390       pinit                      0000000180027390     LIBCMT:cpu_disp.obj
 0002:00000398       pinit                      0000000180027398     LIBCMT:mbctype.obj
 0002:000003b0       pterm                      00000001800273b0     LIBCMT:wsetloca.obj
 0002:000003b8       pterm                      00000001800273b8     LIBCMT:initcon.obj
 0002:000003c0       pterm                      00000001800273c0     LIBCMT:_file.obj
 0002:00000430       _Win_errtab                0000000180027430     libcpmt:syserror.obj
 0002:000008e0       _Sys_errtab                00000001800278e0     libcpmt:syserror.obj
 0002:00001720       $cppxdata$?_Locimp_dtor@_Locimp@locale@std@@CAXPEAV123@@Z 0000000180028720     libcpmt:locale0.obj
 0002:00001748       $cppxdata$?_Init@locale@std@@CAPEAV_Locimp@12@_N@Z 0000000180028748     libcpmt:locale0.obj
 0002:00001848       $cppxdata$?overflow@?$basic_filebuf@DU?$char_traits@D@std@@@std@@MEAAHH@Z 0000000180028848     libcpmt:cerr.obj
 0002:00001870       $cppxdata$?uflow@?$basic_filebuf@DU?$char_traits@D@std@@@std@@MEAAHXZ 0000000180028870     libcpmt:cerr.obj
 0002:00001898       $cppxdata$?_Endwrite@?$basic_filebuf@DU?$char_traits@D@std@@@std@@IEAA_NXZ 0000000180028898     libcpmt:cerr.obj
 0002:000018c0       $cppxdata$?_Getcat@?$codecvt@DDH@std@@SA_KPEAPEBVfacet@locale@2@PEBV42@@Z 00000001800288c0     libcpmt:cerr.obj
 0002:000018e8       $cppxdata$??$use_facet@V?$codecvt@DDH@std@@@std@@YAAEBV?$codecvt@DDH@0@AEBVlocale@0@@Z 00000001800288e8     libcpmt:cerr.obj
 0002:00001c00       digits                     0000000180028c00     libcpmt:xstoul.obj
 0002:00001c28       ndigs                      0000000180028c28     libcpmt:xstoul.obj
 0002:00001c50       digits                     0000000180028c50     libcpmt:xstoull.obj
 0002:00001c78       ndigs                      0000000180028c78     libcpmt:xstoull.obj
 0002:00001ca0       ?digits@?1??_Stoxflt@@9@9  0000000180028ca0     libcpmt:xstoxflt.obj
 0002:00001cb8       ?vals@?1??_Stoxflt@@9@9    0000000180028cb8     libcpmt:xstoxflt.obj
 0002:00001cd0       tenth                      0000000180028cd0     libcpmt:xfdtento.obj
 0002:00001ce8       tenth                      0000000180028ce8     libcpmt:xdtento.obj
 0002:00001d00       tenth                      0000000180028d00     libcpmt:xldtento.obj
 0002:00001d18       ?mask@?3??_FDint@@9@9      0000000180028d18     libcpmt:xfdint.obj
 0002:00001d38       ?sub@?3??_FDint@@9@9       0000000180028d38     libcpmt:xfdint.obj
 0002:00001d48       ?mask@?3??_Dint@@9@9       0000000180028d48     libcpmt:xdint.obj
 0002:00001d68       ?sub@?3??_Dint@@9@9        0000000180028d68     libcpmt:xdint.obj
 0002:00002020       ?ExceptionTemplate@?1??_CxxThrowException@@9@4UEHExceptionRecord@@B 0000000180029020     LIBCMT:throw.obj
 0002:00002060       ?ExceptionTemplate@?1??_UnwindNestedFrames@@9@4U_EXCEPTION_RECORD@@B 0000000180029060     LIBCMT:trnsctrl.obj
 0002:00005fd8       GS_ExceptionPointers       000000018002cfd8     LIBCMT:gs_report.obj
 0002:00006090       rterrs                     000000018002d090     LIBCMT:crt0msg.obj
 0002:00006f98       _mb_locale_names           000000018002df98     LIBCMT:mbctype.obj
 0002:000070d0       _first_127char             000000018002e0d0     LIBCMT:wsetloca.obj
 0002:000073f0       __real@433fffffffffffff    000000018002e3f0     LIBCMT:fpsr.obj
 0002:000073f8       __real@c33fffffffffffff    000000018002e3f8     LIBCMT:fpsr.obj
 0002:00007400       tokenTable                 000000018002e400     LIBCMT:undname.obj
 0002:00007470       nameTable                  000000018002e470     LIBCMT:undname.obj
 0002:000076f0       rttiTable                  000000018002e6f0     LIBCMT:undname.obj
 0002:00009e78       $cppxdata$?_Getcat@?$numpunct@D@std@@SA_KPEAPEBVfacet@locale@2@PEBV42@@Z 0000000180030e78     node-midi.obj
 0002:00009ea0       $cppxdata$?_Getcat@?$num_put@DV?$ostreambuf_iterator@DU?$char_traits@D@std@@@std@@@std@@SA_KPEAPEBVfacet@locale@2@PEBV42@@Z 0000000180030ea0     node-midi.obj
 0002:00009ec8       $cppxdata$??$use_facet@V?$numpunct@D@std@@@std@@YAAEBV?$numpunct@D@0@AEBVlocale@0@@Z 0000000180030ec8     node-midi.obj
 0002:00009ef0       $cppxdata$??$use_facet@V?$num_put@DV?$ostreambuf_iterator@DU?$char_traits@D@std@@@std@@@std@@@std@@YAAEBV?$num_put@DV?$ostreambuf_iterator@DU?$char_traits@D@std@@@std@@@0@AEBVlocale@0@@Z 0000000180030ef0     node-midi.obj
 0002:00009f18       $cppxdata$??$?6U?$char_traits@D@std@@@std@@YAAEAV?$basic_ostream@DU?$char_traits@D@std@@@0@AEAV10@PEBD@Z 0000000180030f18     node-midi.obj
 0002:00009f40       $cppxdata$??$?6DU?$char_traits@D@std@@V?$allocator@D@1@@std@@YAAEAV?$basic_ostream@DU?$char_traits@D@std@@@0@AEAV10@AEBV?$basic_string@DU?$char_traits@D@std@@V?$allocator@D@2@@0@@Z 0000000180030f40     node-midi.obj
 0002:00009f68       $cppxdata$??$?6U?$char_traits@D@std@@@std@@YAAEAV?$basic_ostream@DU?$char_traits@D@std@@@0@AEAV10@D@Z 0000000180030f68     node-midi.obj
 0002:00009f90       $cppxdata$??$use_facet@V?$ctype@D@std@@@std@@YAAEBV?$ctype@D@0@AEBVlocale@0@@Z 0000000180030f90     node-midi.obj
 0002:00009fb8       $cppxdata$?_Iput@?$num_put@DV?$ostreambuf_iterator@DU?$char_traits@D@std@@@std@@@std@@AEBA?AV?$ostreambuf_iterator@DU?$char_traits@D@std@@@2@V32@AEAVios_base@2@DPEAD_K@Z 0000000180030fb8     node-midi.obj
 0002:00009fe0       $cppxdata$?_Fput@?$num_put@DV?$ostreambuf_iterator@DU?$char_traits@D@std@@@std@@@std@@AEBA?AV?$ostreambuf_iterator@DU?$char_traits@D@std@@@2@V32@AEAVios_base@2@DPEBD_K333@Z 0000000180030fe0     node-midi.obj
 0002:0000a008       $cppxdata$?flush@?$basic_ostream@DU?$char_traits@D@std@@@std@@QEAAAEAV12@XZ 0000000180031008     node-midi.obj
 0002:0000a030       $cppxdata$??0?$basic_streambuf@DU?$char_traits@D@std@@@std@@IEAA@XZ 0000000180031030     node-midi.obj
 0002:0000a058       $cppxdata$?do_put@?$num_put@DV?$ostreambuf_iterator@DU?$char_traits@D@std@@@std@@@std@@MEBA?AV?$ostreambuf_iterator@DU?$char_traits@D@std@@@2@V32@AEAVios_base@2@D_N@Z 0000000180031058     node-midi.obj
 0002:0000a080       $cppxdata$??0sentry@?$basic_ostream@DU?$char_traits@D@std@@@std@@QEAA@AEAV12@@Z 0000000180031080     node-midi.obj
 0002:0000a0a8       $cppxdata$?init@?$basic_ios@DU?$char_traits@D@std@@@std@@IEAAXPEAV?$basic_streambuf@DU?$char_traits@D@std@@@2@_N@Z 00000001800310a8     node-midi.obj
 0002:0000a0d0       $cppxdata$??0?$basic_ostringstream@DU?$char_traits@D@std@@V?$allocator@D@2@@std@@QEAA@H@Z 00000001800310d0     node-midi.obj
 0002:0000a0f8       $cppxdata$??6?$basic_ostream@DU?$char_traits@D@std@@@std@@QEAAAEAV01@I@Z 00000001800310f8     node-midi.obj
 0002:0000a120       $cppxdata$??0?$basic_ostream@DU?$char_traits@D@std@@@std@@QEAA@PEAV?$basic_streambuf@DU?$char_traits@D@std@@@1@_N@Z 0000000180031120     node-midi.obj
 0002:0000a148       $cppxdata$?IgnoreTypes@NodeMidiInput@@SAXAEBV?$FunctionCallbackInfo@VValue@v8@@@Nan@@@Z 0000000180031148     node-midi.obj
 0002:0000a170       $cppxdata$?ClosePort@NodeMidiInput@@SAXAEBV?$FunctionCallbackInfo@VValue@v8@@@Nan@@@Z 0000000180031170     node-midi.obj
 0002:0000a198       $cppxdata$?OpenVirtualPort@NodeMidiInput@@SAXAEBV?$FunctionCallbackInfo@VValue@v8@@@Nan@@@Z 0000000180031198     node-midi.obj
 0002:0000a1c0       $cppxdata$?OpenPort@NodeMidiInput@@SAXAEBV?$FunctionCallbackInfo@VValue@v8@@@Nan@@@Z 00000001800311c0     node-midi.obj
 0002:0000a1e8       $cppxdata$?New@NodeMidiInput@@SAXAEBV?$FunctionCallbackInfo@VValue@v8@@@Nan@@@Z 00000001800311e8     node-midi.obj
 0002:0000a210       $cppxdata$?EmitMessage@NodeMidiInput@@SAXPEAUuv_async_s@@@Z 0000000180031210     node-midi.obj
 0002:0000a238       $cppxdata$??1NodeMidiInput@@UEAA@XZ 0000000180031238     node-midi.obj
 0002:0000a260       $cppxdata$??0NodeMidiInput@@QEAA@XZ 0000000180031260     node-midi.obj
 0002:0000a288       $cppxdata$?Init@NodeMidiInput@@SAXV?$Local@VObject@v8@@@v8@@@Z 0000000180031288     node-midi.obj
 0002:0000a2b0       $cppxdata$??_GNodeMidiOutput@@UEAAPEAXI@Z 00000001800312b0     node-midi.obj
 0002:0000a2d8       $cppxdata$?SendMessageA@NodeMidiOutput@@SAXAEBV?$FunctionCallbackInfo@VValue@v8@@@Nan@@@Z 00000001800312d8     node-midi.obj
 0002:0000a300       $cppxdata$?ClosePort@NodeMidiOutput@@SAXAEBV?$FunctionCallbackInfo@VValue@v8@@@Nan@@@Z 0000000180031300     node-midi.obj
 0002:0000a328       $cppxdata$?OpenVirtualPort@NodeMidiOutput@@SAXAEBV?$FunctionCallbackInfo@VValue@v8@@@Nan@@@Z 0000000180031328     node-midi.obj
 0002:0000a350       $cppxdata$?OpenPort@NodeMidiOutput@@SAXAEBV?$FunctionCallbackInfo@VValue@v8@@@Nan@@@Z 0000000180031350     node-midi.obj
 0002:0000a378       $cppxdata$?GetPortName@NodeMidiInput@@SAXAEBV?$FunctionCallbackInfo@VValue@v8@@@Nan@@@Z 0000000180031378     node-midi.obj
 0002:0000a378       $cppxdata$?GetPortName@NodeMidiOutput@@SAXAEBV?$FunctionCallbackInfo@VValue@v8@@@Nan@@@Z 0000000180031378     node-midi.obj
 0002:0000a3a0       $cppxdata$?GetPortCount@NodeMidiOutput@@SAXAEBV?$FunctionCallbackInfo@VValue@v8@@@Nan@@@Z 00000001800313a0     node-midi.obj
 0002:0000a3a0       $cppxdata$?GetPortCount@NodeMidiInput@@SAXAEBV?$FunctionCallbackInfo@VValue@v8@@@Nan@@@Z 00000001800313a0     node-midi.obj
 0002:0000a3c8       $cppxdata$?New@NodeMidiOutput@@SAXAEBV?$FunctionCallbackInfo@VValue@v8@@@Nan@@@Z 00000001800313c8     node-midi.obj
 0002:0000a3f0       $cppxdata$??0NodeMidiOutput@@QEAA@XZ 00000001800313f0     node-midi.obj
 0002:0000a418       $cppxdata$?Init@NodeMidiOutput@@SAXV?$Local@VObject@v8@@@v8@@@Z 0000000180031418     node-midi.obj
 0002:0000a440       $cppxdata$?openVirtualPort@MidiOutWinMM@@UEAAXV?$basic_string@DU?$char_traits@D@std@@V?$allocator@D@2@@std@@@Z 0000000180031440     node-midi.obj
 0002:0000a468       $cppxdata$?openPort@MidiOutWinMM@@UEAAXIV?$basic_string@DU?$char_traits@D@std@@V?$allocator@D@2@@std@@@Z 0000000180031468     node-midi.obj
 0002:0000a490       $cppxdata$?getPortName@MidiOutWinMM@@UEAA?AV?$basic_string@DU?$char_traits@D@std@@V?$allocator@D@2@@std@@I@Z 0000000180031490     node-midi.obj
 0002:0000a4b8       $cppxdata$?initialize@MidiOutWinMM@@MEAAXAEBV?$basic_string@DU?$char_traits@D@std@@V?$allocator@D@2@@std@@@Z 00000001800314b8     node-midi.obj
 0002:0000a4e0       $cppxdata$??0MidiOutWinMM@@QEAA@V?$basic_string@DU?$char_traits@D@std@@V?$allocator@D@2@@std@@@Z 00000001800314e0     node-midi.obj
 0002:0000a508       $cppxdata$?getPortName@MidiInWinMM@@UEAA?AV?$basic_string@DU?$char_traits@D@std@@V?$allocator@D@2@@std@@I@Z 0000000180031508     node-midi.obj
 0002:0000a530       $cppxdata$?openVirtualPort@MidiInWinMM@@UEAAXV?$basic_string@DU?$char_traits@D@std@@V?$allocator@D@2@@std@@@Z 0000000180031530     node-midi.obj
 0002:0000a558       $cppxdata$?openPort@MidiInWinMM@@UEAAXIV?$basic_string@DU?$char_traits@D@std@@V?$allocator@D@2@@std@@@Z 0000000180031558     node-midi.obj
 0002:0000a580       $cppxdata$?initialize@MidiInWinMM@@MEAAXAEBV?$basic_string@DU?$char_traits@D@std@@V?$allocator@D@2@@std@@@Z 0000000180031580     node-midi.obj
 0002:0000a5a8       $cppxdata$??1MidiInWinMM@@UEAA@XZ 00000001800315a8     node-midi.obj
 0002:0000a5d0       $cppxdata$??0MidiInWinMM@@QEAA@V?$basic_string@DU?$char_traits@D@std@@V?$allocator@D@2@@std@@I@Z 00000001800315d0     node-midi.obj
 0002:0000a5f8       $cppxdata$??0MidiInApi@@QEAA@I@Z 00000001800315f8     node-midi.obj
 0002:0000a620       $cppxdata$?error@MidiApi@@QEAAXW4Type@RtMidiError@@V?$basic_string@DU?$char_traits@D@std@@V?$allocator@D@2@@std@@@Z 0000000180031620     node-midi.obj
 0002:0000a648       $cppxdata$??0RtMidiOut@@QEAA@W4Api@RtMidi@@V?$basic_string@DU?$char_traits@D@std@@V?$allocator@D@2@@std@@@Z 0000000180031648     node-midi.obj
 0002:0000a670       $cppxdata$?openMidiApi@RtMidiOut@@IEAAXW4Api@RtMidi@@V?$basic_string@DU?$char_traits@D@std@@V?$allocator@D@2@@std@@@Z 0000000180031670     node-midi.obj
 0002:0000a698       $cppxdata$??0RtMidiError@@QEAA@AEBV0@@Z 0000000180031698     node-midi.obj
 0002:0000a6c0       $cppxdata$??0RtMidiIn@@QEAA@W4Api@RtMidi@@V?$basic_string@DU?$char_traits@D@std@@V?$allocator@D@2@@std@@I@Z 00000001800316c0     node-midi.obj
 0002:0000a6e8       $cppxdata$?openMidiApi@RtMidiIn@@IEAAXW4Api@RtMidi@@V?$basic_string@DU?$char_traits@D@std@@V?$allocator@D@2@@std@@I@Z 00000001800316e8     node-midi.obj
 0002:0000a710       $cppxdata$?openVirtualPort@RtMidiOut@@UEAAXV?$basic_string@DU?$char_traits@D@std@@V?$allocator@D@2@@std@@@Z 0000000180031710     node-midi.obj
 0002:0000a710       $cppxdata$?openVirtualPort@RtMidiIn@@UEAAXV?$basic_string@DU?$char_traits@D@std@@V?$allocator@D@2@@std@@@Z 0000000180031710     node-midi.obj
 0002:0000a738       $cppxdata$?openPort@RtMidiIn@@UEAAXIV?$basic_string@DU?$char_traits@D@std@@V?$allocator@D@2@@std@@@Z 0000000180031738     node-midi.obj
 0002:0000a738       $cppxdata$?openPort@RtMidiOut@@UEAAXIV?$basic_string@DU?$char_traits@D@std@@V?$allocator@D@2@@std@@@Z 0000000180031738     node-midi.obj
 0002:0000a760       $cppxdata$??1ObjectWrap@Nan@@UEAA@XZ 0000000180031760     node-midi.obj
 0002:0000a788       $cppxdata$?New@?$Factory@VFunctionTemplate@v8@@@imp@Nan@@SA?AV?$Local@VFunctionTemplate@v8@@@v8@@P6AXAEBV?$FunctionCallbackInfo@VValue@v8@@@3@@ZV?$Local@VValue@v8@@@5@V?$Local@VSignature@v8@@@5@@Z 0000000180031788     node-midi.obj
 0002:0000a7b0       $cppxdata$?_Init@ios_base@std@@IEAAXXZ 00000001800317b0     node-midi.obj
 0002:0000a7d8       $cppxdata$?clear@ios_base@std@@QEAAXH_N@Z 00000001800317d8     node-midi.obj
 0002:0000a800       $cppxdata$??0system_error@std@@QEAA@Verror_code@1@PEBD@Z 0000000180031800     node-midi.obj
 0002:0000a828       $cppxdata$?_Makestr@_System_error@std@@CA?AV?$basic_string@DU?$char_traits@D@std@@V?$allocator@D@2@@2@Verror_code@2@V32@@Z 0000000180031828     node-midi.obj
 0002:0000a850       $cppxdata$?_Getcat@?$ctype@D@std@@SA_KPEAPEBVfacet@locale@2@PEBV42@@Z 0000000180031850     node-midi.obj
 0002:0000a878       $cppxdata$??0_Locinfo@std@@QEAA@PEBD@Z 0000000180031878     node-midi.obj
 0002:0000b7f0       $unwind$_vsprintf_s_l      00000001800327f0     LIBCMT:vsnprnc.obj
 0002:0000b7f0       $unwind$?falsename@?$numpunct@D@std@@QEBA?AV?$basic_string@DU?$char_traits@D@std@@V?$allocator@D@2@@2@XZ 00000001800327f0     node-midi.obj
 0002:0000b7f0       $unwind$?do_truename@?$numpunct@D@std@@MEBA?AV?$basic_string@DU?$char_traits@D@std@@V?$allocator@D@2@@2@XZ 00000001800327f0     node-midi.obj
 0002:0000b7f0       $unwind$_fassign_l         00000001800327f0     LIBCMT:cvt.obj
 0002:0000b7f0       $unwind$?grouping@?$numpunct@D@std@@QEBA?AV?$basic_string@DU?$char_traits@D@std@@V?$allocator@D@2@@2@XZ 00000001800327f0     node-midi.obj
 0002:0000b7f0       $unwind$?truename@?$numpunct@D@std@@QEBA?AV?$basic_string@DU?$char_traits@D@std@@V?$allocator@D@2@@2@XZ 00000001800327f0     node-midi.obj
 0002:0000b7f0       $unwind$?do_grouping@?$numpunct@D@std@@MEBA?AV?$basic_string@DU?$char_traits@D@std@@V?$allocator@D@2@@2@XZ 00000001800327f0     node-midi.obj
 0002:0000b7f0       $unwind$?getPortName@RtMidiOut@@UEAA?AV?$basic_string@DU?$char_traits@D@std@@V?$allocator@D@2@@std@@I@Z 00000001800327f0     node-midi.obj
 0002:0000b7f0       $unwind$?getPortName@RtMidiIn@@UEAA?AV?$basic_string@DU?$char_traits@D@std@@V?$allocator@D@2@@std@@I@Z 00000001800327f0     node-midi.obj
 0002:0000b7f0       $unwind$?str@?$basic_ostringstream@DU?$char_traits@D@std@@V?$allocator@D@2@@std@@QEBA?AV?$basic_string@DU?$char_traits@D@std@@V?$allocator@D@2@@2@XZ 00000001800327f0     node-midi.obj
 0002:0000b7f0       $unwind$?message@error_code@std@@QEBA?AV?$basic_string@DU?$char_traits@D@std@@V?$allocator@D@2@@2@XZ 00000001800327f0     node-midi.obj
 0002:0000b7f0       $unwind$?_Raise@exception@stdext@@QEBAXXZ 00000001800327f0     node-midi.obj
 0002:0000b7f0       $unwind$?getloc@ios_base@std@@QEBA?AVlocale@2@XZ 00000001800327f0     node-midi.obj
 0002:0000b7f0       $unwind$?do_falsename@?$numpunct@D@std@@MEBA?AV?$basic_string@DU?$char_traits@D@std@@V?$allocator@D@2@@2@XZ 00000001800327f0     node-midi.obj
 0002:0000b7f8       $unwind$?Unref@ObjectWrap@Nan@@MEAAXXZ 00000001800327f8     node-midi.obj
 0002:0000b7f8       $unwind$?WeakCallback@ObjectWrap@Nan@@CAXAEBV?$WeakCallbackInfo@VObjectWrap@Nan@@@v8@@@Z 00000001800327f8     node-midi.obj
 0002:0000b7f8       $unwind$??1?$basic_filebuf@DU?$char_traits@D@std@@@std@@UEAA@XZ 00000001800327f8     libcpmt:cerr.obj
 0002:0000b7f8       $unwind$??1RtMidiError@@UEAA@XZ 00000001800327f8     node-midi.obj
 0002:0000b7f8       $unwind$?printMessage@RtMidiError@@UEBAXXZ 00000001800327f8     node-midi.obj
 0002:0000b7f8       $unwind$??_Gfailure@ios_base@std@@UEAAPEAXI@Z 00000001800327f8     node-midi.obj
 0002:0000b7f8       $unwind$_lock_file         00000001800327f8     LIBCMT:_file.obj
 0002:0000b7f8       $unwind$_lock_file2        00000001800327f8     LIBCMT:_file.obj
 0002:0000b7f8       $unwind$_Getctype          00000001800327f8     libcpmt:_tolower.obj
 0002:0000b7f8       $unwind$_freebuf           00000001800327f8     LIBCMT:_freebuf.obj
 0002:0000b7f8       $unwind$__crtLoadWinApiPointers 00000001800327f8     LIBCMT:winapisupp.obj
 0002:0000b7f8       $unwind$_getbuf            00000001800327f8     LIBCMT:_getbuf.obj
 0002:0000b7f8       $unwind$??1MidiMessage@MidiInApi@@QEAA@XZ 00000001800327f8     node-midi.obj
 0002:0000b7f8       $unwind$_fflush_nolock     00000001800327f8     LIBCMT:fflush.obj
 0002:0000b7f8       $unwind$__crtTerminateProcess 00000001800327f8     LIBCMT:winapisupp.obj
 0002:0000b7f8       $unwind$?setbuf@?$basic_filebuf@DU?$char_traits@D@std@@@std@@MEAAPEAV?$basic_streambuf@DU?$char_traits@D@std@@@2@PEAD_J@Z 00000001800327f8     libcpmt:cerr.obj
 0002:0000b7f8       $unwind$__crtUnhandledException 00000001800327f8     LIBCMT:winapisupp.obj
 0002:0000b7f8       $unwind$__crtIsPackagedApp 00000001800327f8     LIBCMT:winapisupp.obj
 0002:0000b7f8       $unwind$??_Gsystem_error@std@@UEAAPEAXI@Z 00000001800327f8     node-midi.obj
 0002:0000b7f8       $unwind$__onexitinit       00000001800327f8     LIBCMT:onexit.obj
 0002:0000b7f8       $unwind$??_G?$num_put@DV?$ostreambuf_iterator@DU?$char_traits@D@std@@@std@@@std@@MEAAPEAXI@Z 00000001800327f8     node-midi.obj
 0002:0000b7f8       $unwind$?imbue@?$basic_filebuf@DU?$char_traits@D@std@@@std@@MEAAXAEBVlocale@2@@Z 00000001800327f8     libcpmt:cerr.obj
 0002:0000b7f8       $unwind$??_G_System_error@std@@UEAAPEAXI@Z 00000001800327f8     node-midi.obj
 0002:0000b7f8       $unwind$??__Eferr@std@@YAXXZ 00000001800327f8     libcpmt:cerr.obj
 0002:0000b7f8       $unwind$??_D?$basic_ostringstream@DU?$char_traits@D@std@@V?$allocator@D@2@@std@@QEAAXXZ 00000001800327f8     node-midi.obj
 0002:0000b7f8       $unwind$?do_narrow@?$ctype@D@std@@MEBAPEBDPEBD0DPEAD@Z 00000001800327f8     node-midi.obj
 0002:0000b7f8       $unwind$__raise_securityfailure 00000001800327f8     LIBCMT:gs_report.obj
 0002:0000b7f8       $unwind$strcpy_s           00000001800327f8     LIBCMT:strcpy_s.obj
 0002:0000b7f8       $unwind$??_G?$codecvt@DDH@std@@MEAAPEAXI@Z 00000001800327f8     libcpmt:cerr.obj
 0002:0000b7f8       $unwind$strncpy_s          00000001800327f8     LIBCMT:strncpy_s.obj
 0002:0000b7f8       $unwind$wcscat_s           00000001800327f8     LIBCMT:wcscat_s.obj
 0002:0000b7f8       $unwind$wcscpy_s           00000001800327f8     LIBCMT:wcscpy_s.obj
 0002:0000b7f8       $unwind$wcsncat_s          00000001800327f8     LIBCMT:wcsncat_s.obj
 0002:0000b7f8       $unwind$GetLocaleNameFromLanguage 00000001800327f8     LIBCMT:getqloc.obj
 0002:0000b7f8       $unwind$wcsncpy_s          00000001800327f8     LIBCMT:wcsncpy_s.obj
 0002:0000b7f8       $unwind$_callnewh          00000001800327f8     LIBCMT:handler.obj
 0002:0000b7f8       $unwind$?do_widen@?$ctype@D@std@@MEBAPEBDPEBD0PEAD@Z 00000001800327f8     node-midi.obj
 0002:0000b7f8       $unwind$GetLocaleNameFromLangCountry 00000001800327f8     LIBCMT:getqloc.obj
 0002:0000b7f8       $unwind$??1?$queue@PEAUMidiMessage@NodeMidiInput@@V?$deque@PEAUMidiMessage@NodeMidiInput@@V?$allocator@PEAUMidiMessage@NodeMidiInput@@@std@@@std@@@std@@QEAA@XZ 00000001800327f8     node-midi.obj
 0002:0000b7f8       $unwind$??_G_Facet_base@std@@UEAAPEAXI@Z 00000001800327f8     node-midi.obj
 0002:0000b7f8       $unwind$?_Addstd@ios_base@std@@SAXPEAV12@@Z 00000001800327f8     libcpmt:ios.obj
 0002:0000b7f8       $unwind$??_Gruntime_error@std@@UEAAPEAXI@Z 00000001800327f8     node-midi.obj
 0002:0000b7f8       $unwind$??1?$basic_stringbuf@DU?$char_traits@D@std@@V?$allocator@D@2@@std@@UEAA@XZ 00000001800327f8     node-midi.obj
 0002:0000b7f8       $unwind$write_char         00000001800327f8     LIBCMT:outputs.obj
 0002:0000b7f8       $unwind$write_char         00000001800327f8     LIBCMT:woutput.obj
 0002:0000b7f8       $unwind$?_Ios_base_dtor@ios_base@std@@CAXPEAV12@@Z 00000001800327f8     libcpmt:ios.obj
 0002:0000b7f8       $unwind$??0_LocaleUpdate@@QEAA@PEAUlocaleinfo_struct@@@Z 00000001800327f8     LIBCMT:stricmp.obj
 0002:0000b7f8       $unwind$calloc             00000001800327f8     LIBCMT:calloc.obj
 0002:0000b7f8       $unwind$_getptd            00000001800327f8     LIBCMT:tidtable.obj
 0002:0000b7f8       $unwind$??_Gexception@stdext@@UEAAPEAXI@Z 00000001800327f8     node-midi.obj
 0002:0000b7f8       $unwind$_freeptd           00000001800327f8     LIBCMT:tidtable.obj
 0002:0000b7f8       $unwind$_mtinit            00000001800327f8     LIBCMT:tidtable.obj
 0002:0000b7f8       $unwind$??1RtMidi@@MEAA@XZ 00000001800327f8     node-midi.obj
 0002:0000b7f8       $unwind$??1?$basic_ostringstream@DU?$char_traits@D@std@@V?$allocator@D@2@@std@@UEAA@XZ 00000001800327f8     node-midi.obj
 0002:0000b7f8       $unwind$_amsg_exit         00000001800327f8     LIBCMT:crt0dat.obj
 0002:0000b7f8       $unwind$__crtExitProcess   00000001800327f8     LIBCMT:crt0dat.obj
 0002:0000b7f8       $unwind$__crtCorExitProcess 00000001800327f8     LIBCMT:crt0dat.obj
 0002:0000b7f8       $unwind$_cinit             00000001800327f8     LIBCMT:crt0dat.obj
 0002:0000b7f8       $unwind$??1MidiOutApi@@UEAA@XZ 00000001800327f8     node-midi.obj
 0002:0000b7f8       $unwind$load_exe_hook      00000001800327f8     win_delay_load_hook.obj
 0002:0000b7f8       $unwind$??1?$basic_string@DU?$char_traits@D@std@@V?$allocator@D@2@@std@@QEAA@XZ 00000001800327f8     node-midi.obj
 0002:0000b7f8       $unwind$_init_pointers     00000001800327f8     LIBCMT:crt0dat.obj
 0002:0000b7f8       $unwind$??1?$_Yarn@D@std@@QEAA@XZ 00000001800327f8     node-midi.obj
 0002:0000b7f8       $unwind$??1?$_Yarn@_W@std@@QEAA@XZ 00000001800327f8     node-midi.obj
 0002:0000b7f8       $unwind$__GSHandlerCheckCommon 00000001800327f8     LIBCMT:gshandler.obj
 0002:0000b7f8       $unwind$??1?$basic_streambuf@DU?$char_traits@D@std@@@std@@UEAA@XZ 00000001800327f8     node-midi.obj
 0002:0000b7f8       $unwind$??1?$vector@W4Api@RtMidi@@V?$allocator@W4Api@RtMidi@@@std@@@std@@QEAA@XZ 00000001800327f8     node-midi.obj
 0002:0000b7f8       $unwind$??0out_of_range@std@@QEAA@AEBV01@@Z 00000001800327f8     libcpmt:xthrow.obj
 0002:0000b7f8       $unwind$??0bad_exception@std@@QEAA@AEBV01@@Z 00000001800327f8     LIBCMT:frame.obj
 0002:0000b7f8       $unwind$?uflow@?$basic_streambuf@DU?$char_traits@D@std@@@std@@MEAAHXZ 00000001800327f8     node-midi.obj
 0002:0000b7f8       $unwind$??1RtMidiInData@MidiInApi@@QEAA@XZ 00000001800327f8     node-midi.obj
 0002:0000b7f8       $unwind$?_Facet_Register@std@@YAXPEAV_Facet_base@1@@Z 00000001800327f8     libcpmt:locale0.obj
 0002:0000b7f8       $unwind$??__F_Fac_tidy_reg@std@@YAXXZ 00000001800327f8     libcpmt:locale0.obj
 0002:0000b7f8       $unwind$_CreateFrameInfo   00000001800327f8     LIBCMT:trnsctrl.obj
 0002:0000b7f8       $unwind$??0bad_cast@std@@QEAA@AEBV01@@Z 00000001800327f8     LIBCMT:stdexcpt.obj
 0002:0000b7f8       $unwind$_IsExceptionObjectToBeDestroyed 00000001800327f8     LIBCMT:trnsctrl.obj
 0002:0000b7f8       $unwind$??0length_error@std@@QEAA@AEBV01@@Z 00000001800327f8     libcpmt:xthrow.obj
 0002:0000b7f8       $unwind$_SetImageBase      00000001800327f8     LIBCMT:trnsctrl.obj
 0002:0000b7f8       $unwind$_SetThrowImageBase 00000001800327f8     LIBCMT:trnsctrl.obj
 0002:0000b7f8       $unwind$?_Tidy@exception@std@@AEAAXXZ 00000001800327f8     LIBCMT:stdexcpt.obj
 0002:0000b7f8       $unwind$??0logic_error@std@@QEAA@AEBV01@@Z 00000001800327f8     libcpmt:xthrow.obj
 0002:0000b7f8       $unwind$??0exception@std@@QEAA@AEBV01@@Z 00000001800327f8     LIBCMT:stdexcpt.obj
 0002:0000b7f8       $unwind$?_Setgloballocale@locale@std@@CAXPEAX@Z 00000001800327f8     libcpmt:locale0.obj
 0002:0000b7f8       $unwind$?__GetUnwindTryBlock@@YAHPEA_KPEAU_xDISPATCHER_CONTEXT@@PEBU_s_FuncInfo@@@Z 00000001800327f8     LIBCMT:ehstate.obj
 0002:0000b7f8       $unwind$??1MidiApi@@UEAA@XZ 00000001800327f8     node-midi.obj
 0002:0000b7f8       $unwind$??0bad_alloc@std@@QEAA@AEBV01@@Z 00000001800327f8     libcpmt:xthrow.obj
 0002:0000b7f8       $unwind$??0_Lockit@std@@QEAA@H@Z 00000001800327f8     libcpmt:xlock.obj
 0002:0000b7f8       $unwind$??1?$vector@EV?$allocator@E@std@@@std@@QEAA@XZ 00000001800327f8     node-midi.obj
 0002:0000b7f8       $unwind$??0exception@std@@QEAA@AEBQEBD@Z 00000001800327f8     LIBCMT:stdexcpt.obj
 0002:0000b7f8       $unwind$?Ref@ObjectWrap@Nan@@MEAAXXZ 00000001800327f8     node-midi.obj
 0002:0000b800       $unwind$??0_Locinfo@std@@QEAA@PEBD@Z 0000000180032800     node-midi.obj
 0002:0000b814       $stateUnwindMap$??0_Locinfo@std@@QEAA@PEBD@Z 0000000180032814     node-midi.obj
 0002:0000b860       $ip2state$??0_Locinfo@std@@QEAA@PEBD@Z 0000000180032860     node-midi.obj
 0002:0000b8b8       $unwind$?__SetUnwindTryBlock@@YAXPEA_KPEAU_xDISPATCHER_CONTEXT@@PEBU_s_FuncInfo@@H@Z 00000001800328b8     LIBCMT:ehstate.obj
 0002:0000b8b8       $unwind$??_Gbad_alloc@std@@UEAAPEAXI@Z 00000001800328b8     libcpmt:xthrow.obj
 0002:0000b8b8       $unwind$??4exception@std@@QEAAAEAV01@AEBV01@@Z 00000001800328b8     LIBCMT:stdexcpt.obj
 0002:0000b8b8       $unwind$??_Glogic_error@std@@UEAAPEAXI@Z 00000001800328b8     libcpmt:xthrow.obj
 0002:0000b8b8       $unwind$??_G_Locimp@locale@std@@MEAAPEAXI@Z 00000001800328b8     libcpmt:locale0.obj
 0002:0000b8b8       $unwind$??_Gexception@std@@UEAAPEAXI@Z 00000001800328b8     LIBCMT:stdexcpt.obj
 0002:0000b8b8       $unwind$?_New_Locimp@_Locimp@locale@std@@CAPEAV123@_N@Z 00000001800328b8     libcpmt:locale0.obj
 0002:0000b8b8       $unwind$??_Glength_error@std@@UEAAPEAXI@Z 00000001800328b8     libcpmt:xthrow.obj
 0002:0000b8b8       $unwind$??_Gbad_cast@std@@UEAAPEAXI@Z 00000001800328b8     LIBCMT:stdexcpt.obj
 0002:0000b8b8       $unwind$?_Locinfo_ctor@_Locinfo@std@@SAXPEAV12@PEBD@Z 00000001800328b8     libcpmt:locale0.obj
 0002:0000b8b8       $unwind$??_GMidiInApi@@UEAAPEAXI@Z 00000001800328b8     node-midi.obj
 0002:0000b8b8       $unwind$_FindAndUnlinkFrame 00000001800328b8     LIBCMT:trnsctrl.obj
 0002:0000b8b8       $unwind$??_GRtMidiIn@@UEAAPEAXI@Z 00000001800328b8     node-midi.obj
 0002:0000b8b8       $unwind$?push_back@?$vector@EV?$allocator@E@std@@@std@@QEAAXAEBE@Z 00000001800328b8     node-midi.obj
 0002:0000b8b8       $unwind$??1MidiInApi@@UEAA@XZ 00000001800328b8     node-midi.obj
 0002:0000b8b8       $unwind$??_Gbad_exception@std@@UEAAPEAXI@Z 00000001800328b8     LIBCMT:frame.obj
 0002:0000b8b8       $unwind$??_Gout_of_range@std@@UEAAPEAXI@Z 00000001800328b8     libcpmt:xthrow.obj
 0002:0000b8b8       $unwind$_RTC_Initialize    00000001800328b8     LIBCMT:initsect.obj
 0002:0000b8b8       $unwind$_RTC_Terminate     00000001800328b8     LIBCMT:initsect.obj
 0002:0000b8b8       $unwind$_fptostr           00000001800328b8     LIBCMT:_fptostr.obj
 0002:0000b8b8       $unwind$_initterm_e        00000001800328b8     LIBCMT:crt0dat.obj
 0002:0000b8b8       $unwind$__freeCrtMemory    00000001800328b8     LIBCMT:crt0dat.obj
 0002:0000b8b8       $unwind$_dosmaperr         00000001800328b8     LIBCMT:dosmap.obj
 0002:0000b8b8       $unwind$??4?$basic_string@DU?$char_traits@D@std@@V?$allocator@D@2@@std@@QEAAAEAV01@$$QEAV01@@Z 00000001800328b8     node-midi.obj
 0002:0000b8b8       $unwind$_lock              00000001800328b8     LIBCMT:mlock.obj
 0002:0000b8b8       $unwind$??0?$basic_string@DU?$char_traits@D@std@@V?$allocator@D@2@@std@@QEAA@$$QEAV01@@Z 00000001800328b8     node-midi.obj
 0002:0000b8b8       $unwind$??_GRtMidi@@MEAAPEAXI@Z 00000001800328b8     node-midi.obj
 0002:0000b8b8       $unwind$_getptd_noexit     00000001800328b8     LIBCMT:tidtable.obj
 0002:0000b8b8       $unwind$_calloc_impl       00000001800328b8     LIBCMT:calloc_impl.obj
 0002:0000b8b8       $unwind$??_GMidiInWinMM@@UEAAPEAXI@Z 00000001800328b8     node-midi.obj
 0002:0000b8b8       $unwind$??_GMidiApi@@UEAAPEAXI@Z 00000001800328b8     node-midi.obj
 0002:0000b8b8       $unwind$??_GRtMidiOut@@UEAAPEAXI@Z 00000001800328b8     node-midi.obj
 0002:0000b8b8       $unwind$?_Tidy@ios_base@std@@AEAAXXZ 00000001800328b8     libcpmt:ios.obj
 0002:0000b8b8       $unwind$_close_nolock      00000001800328b8     LIBCMT:close.obj
 0002:0000b8b8       $unwind$??_Gtype_info@@UEAAPEAXI@Z 00000001800328b8     LIBCMT:typinfo.obj
 0002:0000b8b8       $unwind$??1_Locinfo@std@@QEAA@XZ 00000001800328b8     node-midi.obj
 0002:0000b8b8       $unwind$??_G?$basic_ios@DU?$char_traits@D@std@@@std@@UEAAPEAXI@Z 00000001800328b8     node-midi.obj
 0002:0000b8b8       $unwind$??_G?$basic_ostream@DU?$char_traits@D@std@@@std@@UEAAPEAXI@Z 00000001800328b8     node-midi.obj
 0002:0000b8b8       $unwind$??_GNodeMidiInput@@UEAAPEAXI@Z 00000001800328b8     node-midi.obj
 0002:0000b8b8       $unwind$?erase@?$basic_string@DU?$char_traits@D@std@@V?$allocator@D@2@@std@@QEAAAEAV12@_K0@Z 00000001800328b8     node-midi.obj
 0002:0000b8b8       $unwind$??_G?$basic_stringbuf@DU?$char_traits@D@std@@V?$allocator@D@2@@std@@UEAAPEAXI@Z 00000001800328b8     node-midi.obj
 0002:0000b8b8       $unwind$?_Assign_rv@?$basic_string@DU?$char_traits@D@std@@V?$allocator@D@2@@std@@QEAAX$$QEAV12@@Z 00000001800328b8     node-midi.obj
 0002:0000b8b8       $unwind$??_G?$ctype@D@std@@MEAAPEAXI@Z 00000001800328b8     node-midi.obj
 0002:0000b8b8       $unwind$_ungetc_nolock     00000001800328b8     LIBCMT:ungetc.obj
 0002:0000b8b8       $unwind$??_G?$basic_filebuf@DU?$char_traits@D@std@@@std@@UEAAPEAXI@Z 00000001800328b8     libcpmt:cerr.obj
 0002:0000b8b8       $unwind$?_Initcvt@?$basic_filebuf@DU?$char_traits@D@std@@@std@@IEAAXPEBV?$codecvt@DDH@2@@Z 00000001800328b8     libcpmt:cerr.obj
 0002:0000b8b8       $unwind$??_G?$numpunct@D@std@@MEAAPEAXI@Z 00000001800328b8     node-midi.obj
 0002:0000b8b8       $unwind$_updatetlocinfoEx_nolock 00000001800328b8     LIBCMT:localref.obj
 0002:0000b8b8       $unwind$__crtGetUserDefaultLocaleName 00000001800328b8     LIBCMT:winapinls.obj
 0002:0000b8b8       $unwind$?sync@?$basic_filebuf@DU?$char_traits@D@std@@@std@@MEAAHXZ 00000001800328b8     libcpmt:cerr.obj
 0002:0000b8b8       $unwind$fgetpos            00000001800328b8     LIBCMT:fgetpos.obj
 0002:0000b8b8       $unwind$?underflow@?$basic_filebuf@DU?$char_traits@D@std@@@std@@MEAAHXZ 00000001800328b8     libcpmt:cerr.obj
 0002:0000b8b8       $unwind$_fclose_nolock     00000001800328b8     LIBCMT:fclose.obj
 0002:0000b8b8       $unwind$__initstdio        00000001800328b8     LIBCMT:_file.obj
 0002:0000b8b8       $unwind$??_GRtMidiError@@UEAAPEAXI@Z 00000001800328b8     node-midi.obj
 0002:0000b8b8       $unwind$?_Buy@?$vector@EV?$allocator@E@std@@@std@@IEAA_N_K@Z 00000001800328b8     node-midi.obj
 0002:0000b8b8       $unwind$GetLcidFromLangCountry 00000001800328b8     LIBCMT:getqloc_downlevel.obj
 0002:0000b8b8       $unwind$??_Gios_base@std@@UEAAPEAXI@Z 00000001800328b8     node-midi.obj
 0002:0000b8b8       $unwind$??1sentry@?$basic_ostream@DU?$char_traits@D@std@@@std@@QEAA@XZ 00000001800328b8     node-midi.obj
 0002:0000b8b8       $unwind$?pbackfail@?$basic_filebuf@DU?$char_traits@D@std@@@std@@MEAAHH@Z 00000001800328b8     libcpmt:cerr.obj
 0002:0000b8b8       $unwind$??_GObjectWrap@Nan@@UEAAPEAXI@Z 00000001800328b8     node-midi.obj
 0002:0000b8b8       $unwind$GetLcidFromLanguage 00000001800328b8     LIBCMT:getqloc_downlevel.obj
 0002:0000b8b8       $unwind$??_GMidiOutWinMM@@UEAAPEAXI@Z 00000001800328b8     node-midi.obj
 0002:0000b8b8       $unwind$??1_Init_locks@std@@QEAA@XZ 00000001800328b8     libcpmt:xlock.obj
 0002:0000b8b8       $unwind$_initp_misc_cfltcvt_tab 00000001800328b8     LIBCMT:cmiscdat.obj
 0002:0000b8c4       $unwind$__GSHandlerCheck   00000001800328c4     LIBCMT:gshandler.obj
 0002:0000b8c4       $unwind$__initmbctable     00000001800328c4     LIBCMT:mbctype.obj
 0002:0000b8c4       $unwind$_errno             00000001800328c4     LIBCMT:dosmap.obj
 0002:0000b8c4       $unwind$atexit             00000001800328c4     LIBCMT:onexit.obj
 0002:0000b8c4       $unwind$__crtIsValidLocaleName 00000001800328c4     LIBCMT:winapinls.obj
 0002:0000b8c4       $unwind$??__Ecerr@std@@YAXXZ 00000001800328c4     libcpmt:cerr.obj
 0002:0000b8c4       $unwind$__doserrno         00000001800328c4     LIBCMT:dosmap.obj
 0002:0000b8c4       $unwind$_GetImageBase      00000001800328c4     LIBCMT:trnsctrl.obj
 0002:0000b8c4       $unwind$__report_rangecheckfailure 00000001800328c4     LIBCMT:gs_report.obj
 0002:0000b8c4       $unwind$?_Unlock@?$basic_filebuf@DU?$char_traits@D@std@@@std@@UEAAXXZ 00000001800328c4     libcpmt:cerr.obj
 0002:0000b8c4       $unwind$?_Lock@?$basic_filebuf@DU?$char_traits@D@std@@@std@@UEAAXXZ 00000001800328c4     libcpmt:cerr.obj
 0002:0000b8c4       $unwind$_copytlocinfo_nolock 00000001800328c4     LIBCMT:wsetloca.obj
 0002:0000b8c4       $unwind$_GetThrowImageBase 00000001800328c4     LIBCMT:trnsctrl.obj
 0002:0000b8c4       $unwind$_mtterm            00000001800328c4     LIBCMT:tidtable.obj
 0002:0000b8c4       $unwind$??__Einitlocks@@YAXXZ 00000001800328c4     libcpmt:cerr.obj
 0002:0000b8c4       $unwind$_set_error_mode    00000001800328c4     LIBCMT:errmode.obj
 0002:0000b8c4       $unwind$__pctype_func      00000001800328c4     LIBCMT:ctype.obj
 0002:0000b8c4       $unwind$__crtEnumSystemLocalesEx 00000001800328c4     LIBCMT:winapinls.obj
 0002:0000b8c4       $unwind$_invoke_watson     00000001800328c4     LIBCMT:invarg.obj
 0002:0000b8c4       $unwind$__endstdio         00000001800328c4     LIBCMT:_file.obj
 0002:0000b8c4       $unwind$__crtDownlevelLocaleNameToLCID 00000001800328c4     LIBCMT:winapinls.obj
 0002:0000b8c4       $unwind$abort              00000001800328c4     LIBCMT:abort.obj
 0002:0000b8c4       $unwind$__crtInitializeCriticalSectionEx 00000001800328c4     LIBCMT:winapisupp.obj
 0002:0000b8c4       $unwind$??__Einitlocks@std@@YAXXZ 00000001800328c4     libcpmt:xlock.obj
 0002:0000b8c4       $unwind$__termconout       00000001800328c4     LIBCMT:initcon.obj
 0002:0000b8c4       $unwind$?_Atexit@@YAXP6AXXZ@Z 00000001800328c4     libcpmt:iosptrs.obj
 0002:0000b8c4       $unwind$??__Einitlocks@std@@YAXXZ 00000001800328c4     libcpmt:iosptrs.obj
 0002:0000b8c4       $unwind$?__GetCurrentState@@YAHPEA_KPEAU_xDISPATCHER_CONTEXT@@PEBU_s_FuncInfo@@@Z 00000001800328c4     LIBCMT:ehstate.obj
 0002:0000b8c4       $unwind$??__Finit_atexit@@YAXXZ 00000001800328c4     libcpmt:iosptrs.obj
 0002:0000b8c4       $unwind$??1_Lockit@std@@QEAA@XZ 00000001800328c4     libcpmt:xlock.obj
 0002:0000b8c4       $unwind$_purecall          00000001800328c4     LIBCMT:purevirt.obj
 0002:0000b8c4       $unwind$_get_osfhandle     00000001800328c4     LIBCMT:osfinfo.obj
 0002:0000b8c4       $unwind$_FF_MSGBANNER      00000001800328c4     LIBCMT:crt0msg.obj
 0002:0000b8c4       $unwind$_heap_init         00000001800328c4     LIBCMT:heapinit.obj
 0002:0000b8c4       $unwind$??8type_info@@QEBA_NAEBV0@@Z 00000001800328c4     LIBCMT:typinfo.obj
 0002:0000b8c4       $unwind$_initp_eh_hooks    00000001800328c4     LIBCMT:hooks.obj
 0002:0000b8c4       $unwind$_msize             00000001800328c4     LIBCMT:msize.obj
 0002:0000b8c4       $unwind$?_Locinfo_dtor@_Locinfo@std@@SAXPEAV12@@Z 00000001800328c4     libcpmt:locale0.obj
 0002:0000b8c4       $unwind$___mb_cur_max_func 00000001800328c4     LIBCMT:initctyp.obj
 0002:0000b8c4       $unwind$??1locale@std@@QEAA@XZ 00000001800328c4     node-midi.obj
 0002:0000b8c4       $unwind$_wcsnicmp          00000001800328c4     LIBCMT:wcsnicmp.obj
 0002:0000b8c4       $unwind$localeconv         00000001800328c4     LIBCMT:lconv.obj
 0002:0000b8c4       $unwind$_Deletegloballocale 00000001800328c4     libcpmt:locale0.obj
 0002:0000b8c4       $unwind$fsetpos            00000001800328c4     LIBCMT:fsetpos.obj
 0002:0000b8c4       $unwind$_wcsicmp           00000001800328c4     LIBCMT:wcsicmp.obj
 0002:0000b8c4       $unwind$?_Reserve@?$vector@EV?$allocator@E@std@@@std@@IEAAX_K@Z 00000001800328c4     node-midi.obj
 0002:0000b8c4       $unwind$tidy_global        00000001800328c4     libcpmt:locale0.obj
 0002:0000b8c4       $unwind$__FrameUnwindFilter 00000001800328c4     LIBCMT:frame.obj
 0002:0000b8c4       $unwind$_stricmp           00000001800328c4     LIBCMT:stricmp.obj
 0002:0000b8c4       $unwind$_fileno            00000001800328c4     LIBCMT:fileno.obj
 0002:0000b8c4       $unwind$___lc_codepage_func 00000001800328c4     LIBCMT:initctyp.obj
 0002:0000b8c4       $unwind$_isatty            00000001800328c4     LIBCMT:isatty.obj
 0002:0000b8c4       $unwind$___lc_locale_name_func 00000001800328c4     LIBCMT:initctyp.obj
 0002:0000b8c4       $unwind$??__Fclassic_locale@std@@YAXXZ 00000001800328c4     libcpmt:locale0.obj
 0002:0000b8cc       $unwind$?_Getcat@?$ctype@D@std@@SA_KPEAPEBVfacet@locale@2@PEBV42@@Z 00000001800328cc     node-midi.obj
 0002:0000b8ec       $stateUnwindMap$?_Getcat@?$ctype@D@std@@SA_KPEAPEBVfacet@locale@2@PEBV42@@Z 00000001800328ec     node-midi.obj
 0002:0000b8f8       $ip2state$?_Getcat@?$ctype@D@std@@SA_KPEAPEBVfacet@locale@2@PEBV42@@Z 00000001800328f8     node-midi.obj
 0002:0000b910       $unwind$ProcessCodePage    0000000180032910     LIBCMT:getqloc_downlevel.obj
 0002:0000b910       $unwind$?_Reallocate@?$vector@EV?$allocator@E@std@@@std@@IEAAX_K@Z 0000000180032910     node-midi.obj
 0002:0000b910       $unwind$?do_toupper@?$ctype@D@std@@MEBAPEBDPEADPEBD@Z 0000000180032910     node-midi.obj
 0002:0000b910       $unwind$ProcessCodePage    0000000180032910     LIBCMT:getqloc.obj
 0002:0000b910       $unwind$?do_tolower@?$ctype@D@std@@MEBAPEBDPEADPEBD@Z 0000000180032910     node-midi.obj
 0002:0000b920       $chain$0$?do_tolower@?$ctype@D@std@@MEBAPEBDPEADPEBD@Z 0000000180032920     node-midi.obj
 0002:0000b934       $chain$1$?do_tolower@?$ctype@D@std@@MEBAPEBDPEADPEBD@Z 0000000180032934     node-midi.obj
 0002:0000b944       $chain$0$?do_toupper@?$ctype@D@std@@MEBAPEBDPEADPEBD@Z 0000000180032944     node-midi.obj
 0002:0000b958       $chain$1$?do_toupper@?$ctype@D@std@@MEBAPEBDPEADPEBD@Z 0000000180032958     node-midi.obj
 0002:0000b968       $unwind$?_Makestr@_System_error@std@@CA?AV?$basic_string@DU?$char_traits@D@std@@V?$allocator@D@2@@2@Verror_code@2@V32@@Z 0000000180032968     node-midi.obj
 0002:0000b980       $stateUnwindMap$?_Makestr@_System_error@std@@CA?AV?$basic_string@DU?$char_traits@D@std@@V?$allocator@D@2@@2@Verror_code@2@V32@@Z 0000000180032980     node-midi.obj
 0002:0000b990       $ip2state$?_Makestr@_System_error@std@@CA?AV?$basic_string@DU?$char_traits@D@std@@V?$allocator@D@2@@2@Verror_code@2@V32@@Z 0000000180032990     node-midi.obj
 0002:0000b9b8       $unwind$??0system_error@std@@QEAA@Verror_code@1@PEBD@Z 00000001800329b8     node-midi.obj
 0002:0000b9d8       $stateUnwindMap$??0system_error@std@@QEAA@Verror_code@1@PEBD@Z 00000001800329d8     node-midi.obj
 0002:0000b9e0       $ip2state$??0system_error@std@@QEAA@Verror_code@1@PEBD@Z 00000001800329e0     node-midi.obj
 0002:0000b9f8       $unwind$?clear@ios_base@std@@QEAAXH_N@Z 00000001800329f8     node-midi.obj
 0002:0000ba08       $stateUnwindMap$?clear@ios_base@std@@QEAAXH_N@Z 0000000180032a08     node-midi.obj
 0002:0000ba20       $ip2state$?clear@ios_base@std@@QEAAXH_N@Z 0000000180032a20     node-midi.obj
 0002:0000ba58       $unwind$?_Init@ios_base@std@@IEAAXXZ 0000000180032a58     node-midi.obj
 0002:0000ba70       $stateUnwindMap$?_Init@ios_base@std@@IEAAXXZ 0000000180032a70     node-midi.obj
 0002:0000ba70       $stateUnwindMap$??0?$basic_streambuf@DU?$char_traits@D@std@@@std@@IEAA@XZ 0000000180032a70     node-midi.obj
 0002:0000ba78       $ip2state$?_Init@ios_base@std@@IEAAXXZ 0000000180032a78     node-midi.obj
 0002:0000ba90       $unwind$?FunctionCallbackWrapper@imp@Nan@@YAXAEBV?$FunctionCallbackInfo@VValue@v8@@@v8@@@Z 0000000180032a90     node-midi.obj
 0002:0000ba90       $unwind$_setargv           0000000180032a90     LIBCMT:stdargv.obj
 0002:0000baa0       $unwind$?New@?$Factory@VFunctionTemplate@v8@@@imp@Nan@@SA?AV?$Local@VFunctionTemplate@v8@@@v8@@P6AXAEBV?$FunctionCallbackInfo@VValue@v8@@@3@@ZV?$Local@VValue@v8@@@5@V?$Local@VSignature@v8@@@5@@Z 0000000180032aa0     node-midi.obj
 0002:0000bab8       $stateUnwindMap$?New@?$Factory@VFunctionTemplate@v8@@@imp@Nan@@SA?AV?$Local@VFunctionTemplate@v8@@@v8@@P6AXAEBV?$FunctionCallbackInfo@VValue@v8@@@3@@ZV?$Local@VValue@v8@@@5@V?$Local@VSignature@v8@@@5@@Z 0000000180032ab8     node-midi.obj
 0002:0000bac0       $ip2state$?New@?$Factory@VFunctionTemplate@v8@@@imp@Nan@@SA?AV?$Local@VFunctionTemplate@v8@@@v8@@P6AXAEBV?$FunctionCallbackInfo@VValue@v8@@@3@@ZV?$Local@VValue@v8@@@5@V?$Local@VSignature@v8@@@5@@Z 0000000180032ac0     node-midi.obj
 0002:0000bad8       $unwind$??1ObjectWrap@Nan@@UEAA@XZ 0000000180032ad8     node-midi.obj
 0002:0000bae8       $stateUnwindMap$??1ObjectWrap@Nan@@UEAA@XZ 0000000180032ae8     node-midi.obj
 0002:0000baf0       $ip2state$??1ObjectWrap@Nan@@UEAA@XZ 0000000180032af0     node-midi.obj
 0002:0000bb08       $unwind$?Wrap@ObjectWrap@Nan@@IEAAXV?$Local@VObject@v8@@@v8@@@Z 0000000180032b08     node-midi.obj
 0002:0000bb14       $unwind$?openPort@RtMidiIn@@UEAAXIV?$basic_string@DU?$char_traits@D@std@@V?$allocator@D@2@@std@@@Z 0000000180032b14     node-midi.obj
 0002:0000bb14       $unwind$?openPort@RtMidiOut@@UEAAXIV?$basic_string@DU?$char_traits@D@std@@V?$allocator@D@2@@std@@@Z 0000000180032b14     node-midi.obj
 0002:0000bb2c       $stateUnwindMap$?openPort@RtMidiOut@@UEAAXIV?$basic_string@DU?$char_traits@D@std@@V?$allocator@D@2@@std@@@Z 0000000180032b2c     node-midi.obj
 0002:0000bb2c       $stateUnwindMap$?openVirtualPort@RtMidiOut@@UEAAXV?$basic_string@DU?$char_traits@D@std@@V?$allocator@D@2@@std@@@Z 0000000180032b2c     node-midi.obj
 0002:0000bb2c       $stateUnwindMap$?openPort@RtMidiIn@@UEAAXIV?$basic_string@DU?$char_traits@D@std@@V?$allocator@D@2@@std@@@Z 0000000180032b2c     node-midi.obj
 0002:0000bb2c       $stateUnwindMap$?openVirtualPort@RtMidiIn@@UEAAXV?$basic_string@DU?$char_traits@D@std@@V?$allocator@D@2@@std@@@Z 0000000180032b2c     node-midi.obj
 0002:0000bb38       $ip2state$?openPort@RtMidiIn@@UEAAXIV?$basic_string@DU?$char_traits@D@std@@V?$allocator@D@2@@std@@@Z 0000000180032b38     node-midi.obj
 0002:0000bb38       $ip2state$?openPort@RtMidiOut@@UEAAXIV?$basic_string@DU?$char_traits@D@std@@V?$allocator@D@2@@std@@@Z 0000000180032b38     node-midi.obj
 0002:0000bb50       $unwind$?openVirtualPort@RtMidiOut@@UEAAXV?$basic_string@DU?$char_traits@D@std@@V?$allocator@D@2@@std@@@Z 0000000180032b50     node-midi.obj
 0002:0000bb50       $unwind$?openVirtualPort@RtMidiIn@@UEAAXV?$basic_string@DU?$char_traits@D@std@@V?$allocator@D@2@@std@@@Z 0000000180032b50     node-midi.obj
 0002:0000bb68       $ip2state$?openVirtualPort@RtMidiOut@@UEAAXV?$basic_string@DU?$char_traits@D@std@@V?$allocator@D@2@@std@@@Z 0000000180032b68     node-midi.obj
 0002:0000bb68       $ip2state$?openVirtualPort@RtMidiIn@@UEAAXV?$basic_string@DU?$char_traits@D@std@@V?$allocator@D@2@@std@@@Z 0000000180032b68     node-midi.obj
 0002:0000bb80       $unwind$?openMidiApi@RtMidiIn@@IEAAXW4Api@RtMidi@@V?$basic_string@DU?$char_traits@D@std@@V?$allocator@D@2@@std@@I@Z 0000000180032b80     node-midi.obj
 0002:0000bb9c       $stateUnwindMap$?openMidiApi@RtMidiIn@@IEAAXW4Api@RtMidi@@V?$basic_string@DU?$char_traits@D@std@@V?$allocator@D@2@@std@@I@Z 0000000180032b9c     node-midi.obj
 0002:0000bb9c       $stateUnwindMap$?openMidiApi@RtMidiOut@@IEAAXW4Api@RtMidi@@V?$basic_string@DU?$char_traits@D@std@@V?$allocator@D@2@@std@@@Z 0000000180032b9c     node-midi.obj
 0002:0000bbb0       $ip2state$?openMidiApi@RtMidiIn@@IEAAXW4Api@RtMidi@@V?$basic_string@DU?$char_traits@D@std@@V?$allocator@D@2@@std@@I@Z 0000000180032bb0     node-midi.obj
 0002:0000bbd8       $unwind$??0RtMidiIn@@QEAA@W4Api@RtMidi@@V?$basic_string@DU?$char_traits@D@std@@V?$allocator@D@2@@std@@I@Z 0000000180032bd8     node-midi.obj
 0002:0000bc00       $stateUnwindMap$??0RtMidiIn@@QEAA@W4Api@RtMidi@@V?$basic_string@DU?$char_traits@D@std@@V?$allocator@D@2@@std@@I@Z 0000000180032c00     node-midi.obj
 0002:0000bc00       $stateUnwindMap$??0RtMidiOut@@QEAA@W4Api@RtMidi@@V?$basic_string@DU?$char_traits@D@std@@V?$allocator@D@2@@std@@@Z 0000000180032c00     node-midi.obj
 0002:0000bc20       $ip2state$??0RtMidiIn@@QEAA@W4Api@RtMidi@@V?$basic_string@DU?$char_traits@D@std@@V?$allocator@D@2@@std@@I@Z 0000000180032c20     node-midi.obj
 0002:0000bc70       $unwind$??0RtMidiError@@QEAA@AEBV0@@Z 0000000180032c70     node-midi.obj
 0002:0000bc84       $stateUnwindMap$??0RtMidiError@@QEAA@AEBV0@@Z 0000000180032c84     node-midi.obj
 0002:0000bc90       $ip2state$??0RtMidiError@@QEAA@AEBV0@@Z 0000000180032c90     node-midi.obj
 0002:0000bca8       $unwind$?openMidiApi@RtMidiOut@@IEAAXW4Api@RtMidi@@V?$basic_string@DU?$char_traits@D@std@@V?$allocator@D@2@@std@@@Z 0000000180032ca8     node-midi.obj
 0002:0000bcc8       $ip2state$?openMidiApi@RtMidiOut@@IEAAXW4Api@RtMidi@@V?$basic_string@DU?$char_traits@D@std@@V?$allocator@D@2@@std@@@Z 0000000180032cc8     node-midi.obj
 0002:0000bcf0       $unwind$??0RtMidiOut@@QEAA@W4Api@RtMidi@@V?$basic_string@DU?$char_traits@D@std@@V?$allocator@D@2@@std@@@Z 0000000180032cf0     node-midi.obj
 0002:0000bd20       $ip2state$??0RtMidiOut@@QEAA@W4Api@RtMidi@@V?$basic_string@DU?$char_traits@D@std@@V?$allocator@D@2@@std@@@Z 0000000180032d20     node-midi.obj
 0002:0000bd70       $unwind$?error@MidiApi@@QEAAXW4Type@RtMidiError@@V?$basic_string@DU?$char_traits@D@std@@V?$allocator@D@2@@std@@@Z 0000000180032d70     node-midi.obj
 0002:0000bd88       $stateUnwindMap$?error@MidiApi@@QEAAXW4Type@RtMidiError@@V?$basic_string@DU?$char_traits@D@std@@V?$allocator@D@2@@std@@@Z 0000000180032d88     node-midi.obj
 0002:0000bda0       $ip2state$?error@MidiApi@@QEAAXW4Type@RtMidiError@@V?$basic_string@DU?$char_traits@D@std@@V?$allocator@D@2@@std@@@Z 0000000180032da0     node-midi.obj
 0002:0000bdf8       $unwind$??0MidiInApi@@QEAA@I@Z 0000000180032df8     node-midi.obj
 0002:0000be10       $stateUnwindMap$??0MidiInApi@@QEAA@I@Z 0000000180032e10     node-midi.obj
 0002:0000be28       $ip2state$??0MidiInApi@@QEAA@I@Z 0000000180032e28     node-midi.obj
 0002:0000be58       $unwind$?setCallback@MidiInApi@@QEAAXP6AXNPEAV?$vector@EV?$allocator@E@std@@@std@@PEAX@Z1@Z 0000000180032e58     node-midi.obj
 0002:0000be64       $unwind$?cancelCallback@MidiInApi@@QEAAXXZ 0000000180032e64     node-midi.obj
 0002:0000be6c       $chain$0$?cancelCallback@MidiInApi@@QEAAXXZ 0000000180032e6c     node-midi.obj
 0002:0000be80       $chain$1$?cancelCallback@MidiInApi@@QEAAXXZ 0000000180032e80     node-midi.obj
 0002:0000be90       $unwind$?midiInputCallback@@YAXPEAUHMIDIIN__@@I_K1K@Z 0000000180032e90     node-midi.obj
 0002:0000be9c       $chain$3$?midiInputCallback@@YAXPEAUHMIDIIN__@@I_K1K@Z 0000000180032e9c     node-midi.obj
 0002:0000bebc       $chain$4$?midiInputCallback@@YAXPEAUHMIDIIN__@@I_K1K@Z 0000000180032ebc     node-midi.obj
 0002:0000bed0       $chain$5$?midiInputCallback@@YAXPEAUHMIDIIN__@@I_K1K@Z 0000000180032ed0     node-midi.obj
 0002:0000bee0       $chain$6$?midiInputCallback@@YAXPEAUHMIDIIN__@@I_K1K@Z 0000000180032ee0     node-midi.obj
 0002:0000bef0       $unwind$??0MidiInWinMM@@QEAA@V?$basic_string@DU?$char_traits@D@std@@V?$allocator@D@2@@std@@I@Z 0000000180032ef0     node-midi.obj
 0002:0000bf08       $stateUnwindMap$??0MidiInWinMM@@QEAA@V?$basic_string@DU?$char_traits@D@std@@V?$allocator@D@2@@std@@I@Z 0000000180032f08     node-midi.obj
 0002:0000bf18       $ip2state$??0MidiInWinMM@@QEAA@V?$basic_string@DU?$char_traits@D@std@@V?$allocator@D@2@@std@@I@Z 0000000180032f18     node-midi.obj
 0002:0000bf38       $unwind$??1MidiInWinMM@@UEAA@XZ 0000000180032f38     node-midi.obj
 0002:0000bf4c       $stateUnwindMap$??1MidiInWinMM@@UEAA@XZ 0000000180032f4c     node-midi.obj
 0002:0000bf58       $ip2state$??1MidiInWinMM@@UEAA@XZ 0000000180032f58     node-midi.obj
 0002:0000bf70       $unwind$?initialize@MidiInWinMM@@MEAAXAEBV?$basic_string@DU?$char_traits@D@std@@V?$allocator@D@2@@std@@@Z 0000000180032f70     node-midi.obj
 0002:0000bf88       $stateUnwindMap$?initialize@MidiInWinMM@@MEAAXAEBV?$basic_string@DU?$char_traits@D@std@@V?$allocator@D@2@@std@@@Z 0000000180032f88     node-midi.obj
 0002:0000bf88       $stateUnwindMap$?initialize@MidiOutWinMM@@MEAAXAEBV?$basic_string@DU?$char_traits@D@std@@V?$allocator@D@2@@std@@@Z 0000000180032f88     node-midi.obj
 0002:0000bf90       $ip2state$?initialize@MidiInWinMM@@MEAAXAEBV?$basic_string@DU?$char_traits@D@std@@V?$allocator@D@2@@std@@@Z 0000000180032f90     node-midi.obj
 0002:0000bfa8       $unwind$?openPort@MidiInWinMM@@UEAAXIV?$basic_string@DU?$char_traits@D@std@@V?$allocator@D@2@@std@@@Z 0000000180032fa8     node-midi.obj
 0002:0000bfcc       $stateUnwindMap$?openPort@MidiInWinMM@@UEAAXIV?$basic_string@DU?$char_traits@D@std@@V?$allocator@D@2@@std@@@Z 0000000180032fcc     node-midi.obj
 0002:0000bfcc       $stateUnwindMap$?openPort@MidiOutWinMM@@UEAAXIV?$basic_string@DU?$char_traits@D@std@@V?$allocator@D@2@@std@@@Z 0000000180032fcc     node-midi.obj
 0002:0000bfe0       $ip2state$?openPort@MidiInWinMM@@UEAAXIV?$basic_string@DU?$char_traits@D@std@@V?$allocator@D@2@@std@@@Z 0000000180032fe0     node-midi.obj
 0002:0000c018       $unwind$?openVirtualPort@MidiInWinMM@@UEAAXV?$basic_string@DU?$char_traits@D@std@@V?$allocator@D@2@@std@@@Z 0000000180033018     node-midi.obj
 0002:0000c030       $stateUnwindMap$?openVirtualPort@MidiInWinMM@@UEAAXV?$basic_string@DU?$char_traits@D@std@@V?$allocator@D@2@@std@@@Z 0000000180033030     node-midi.obj
 0002:0000c030       $stateUnwindMap$?openVirtualPort@MidiOutWinMM@@UEAAXV?$basic_string@DU?$char_traits@D@std@@V?$allocator@D@2@@std@@@Z 0000000180033030     node-midi.obj
 0002:0000c038       $ip2state$?openVirtualPort@MidiInWinMM@@UEAAXV?$basic_string@DU?$char_traits@D@std@@V?$allocator@D@2@@std@@@Z 0000000180033038     node-midi.obj
 0002:0000c050       $unwind$?closePort@MidiInWinMM@@UEAAXXZ 0000000180033050     node-midi.obj
 0002:0000c058       $chain$4$?closePort@MidiInWinMM@@UEAAXXZ 0000000180033058     node-midi.obj
 0002:0000c07c       $chain$5$?closePort@MidiInWinMM@@UEAAXXZ 000000018003307c     node-midi.obj
 0002:0000c08c       $unwind$?getPortName@MidiInWinMM@@UEAA?AV?$basic_string@DU?$char_traits@D@std@@V?$allocator@D@2@@std@@I@Z 000000018003308c     node-midi.obj
 0002:0000c0b0       $stateUnwindMap$?getPortName@MidiInWinMM@@UEAA?AV?$basic_string@DU?$char_traits@D@std@@V?$allocator@D@2@@std@@I@Z 00000001800330b0     node-midi.obj
 0002:0000c0d0       $ip2state$?getPortName@MidiInWinMM@@UEAA?AV?$basic_string@DU?$char_traits@D@std@@V?$allocator@D@2@@std@@I@Z 00000001800330d0     node-midi.obj
 0002:0000c118       $unwind$??0MidiOutWinMM@@QEAA@V?$basic_string@DU?$char_traits@D@std@@V?$allocator@D@2@@std@@@Z 0000000180033118     node-midi.obj
 0002:0000c134       $stateUnwindMap$??0MidiOutWinMM@@QEAA@V?$basic_string@DU?$char_traits@D@std@@V?$allocator@D@2@@std@@@Z 0000000180033134     node-midi.obj
 0002:0000c148       $ip2state$??0MidiOutWinMM@@QEAA@V?$basic_string@DU?$char_traits@D@std@@V?$allocator@D@2@@std@@@Z 0000000180033148     node-midi.obj
 0002:0000c168       $unwind$memcpy_s           0000000180033168     LIBCMT:memcpy_s.obj
 0002:0000c168       $unwind$__crtGetLocaleInfoEx 0000000180033168     LIBCMT:winapinls.obj
 0002:0000c168       $unwind$_ioterm            0000000180033168     LIBCMT:ioinit.obj
 0002:0000c168       $unwind$_flush             0000000180033168     LIBCMT:fflush.obj
 0002:0000c168       $unwind$_lseeki64_nolock   0000000180033168     LIBCMT:lseeki64.obj
 0002:0000c168       $unwind$malloc             0000000180033168     LIBCMT:malloc.obj
 0002:0000c168       $unwind$_DllMainCRTStartup 0000000180033168     LIBCMT:dllcrt0.obj
 0002:0000c168       $unwind$_filbuf            0000000180033168     LIBCMT:_filbuf.obj
 0002:0000c168       $unwind$??_G?$basic_streambuf@DU?$char_traits@D@std@@@std@@UEAAPEAXI@Z 0000000180033168     node-midi.obj
 0002:0000c168       $unwind$_Getcvt            0000000180033168     libcpmt:xwctomb.obj
 0002:0000c168       $unwind$?_Tidy@?$deque@PEAUMidiMessage@NodeMidiInput@@V?$allocator@PEAUMidiMessage@NodeMidiInput@@@std@@@std@@IEAAXXZ 0000000180033168     node-midi.obj
 0002:0000c168       $unwind$??_G?$basic_ostringstream@DU?$char_traits@D@std@@V?$allocator@D@2@@std@@UEAAPEAXI@Z 0000000180033168     node-midi.obj
 0002:0000c168       $unwind$?assign@?$basic_string@DU?$char_traits@D@std@@V?$allocator@D@2@@std@@QEAAAEAV12@_KD@Z 0000000180033168     node-midi.obj
 0002:0000c168       $unwind$??4?$_Yarn@D@std@@QEAAAEAV01@PEBD@Z 0000000180033168     libcpmt:locale0.obj
 0002:0000c168       $unwind$??1MidiOutWinMM@@UEAA@XZ 0000000180033168     node-midi.obj
 0002:0000c168       $unwind$??0_Init_locks@std@@QEAA@XZ 0000000180033168     libcpmt:xlock.obj
 0002:0000c168       $unwind$?assign@?$basic_string@DU?$char_traits@D@std@@V?$allocator@D@2@@std@@QEAAAEAV12@PEBD_K@Z 0000000180033168     node-midi.obj
 0002:0000c168       $unwind$realloc            0000000180033168     LIBCMT:realloc.obj
 0002:0000c168       $unwind$_mtinitlocks       0000000180033168     LIBCMT:mlock.obj
 0002:0000c178       $unwind$?initialize@MidiOutWinMM@@MEAAXAEBV?$basic_string@DU?$char_traits@D@std@@V?$allocator@D@2@@std@@@Z 0000000180033178     node-midi.obj
 0002:0000c190       $ip2state$?initialize@MidiOutWinMM@@MEAAXAEBV?$basic_string@DU?$char_traits@D@std@@V?$allocator@D@2@@std@@@Z 0000000180033190     node-midi.obj
 0002:0000c1a8       $unwind$?getPortName@MidiOutWinMM@@UEAA?AV?$basic_string@DU?$char_traits@D@std@@V?$allocator@D@2@@std@@I@Z 00000001800331a8     node-midi.obj
 0002:0000c1cc       $stateUnwindMap$?getPortName@MidiOutWinMM@@UEAA?AV?$basic_string@DU?$char_traits@D@std@@V?$allocator@D@2@@std@@I@Z 00000001800331cc     node-midi.obj
 0002:0000c1e0       $ip2state$?getPortName@MidiOutWinMM@@UEAA?AV?$basic_string@DU?$char_traits@D@std@@V?$allocator@D@2@@std@@I@Z 00000001800331e0     node-midi.obj
 0002:0000c218       $unwind$?openPort@MidiOutWinMM@@UEAAXIV?$basic_string@DU?$char_traits@D@std@@V?$allocator@D@2@@std@@@Z 0000000180033218     node-midi.obj
 0002:0000c238       $ip2state$?openPort@MidiOutWinMM@@UEAAXIV?$basic_string@DU?$char_traits@D@std@@V?$allocator@D@2@@std@@@Z 0000000180033238     node-midi.obj
 0002:0000c270       $unwind$?closePort@MidiOutWinMM@@UEAAXXZ 0000000180033270     node-midi.obj
 0002:0000c278       $chain$0$?closePort@MidiOutWinMM@@UEAAXXZ 0000000180033278     node-midi.obj
 0002:0000c28c       $chain$1$?closePort@MidiOutWinMM@@UEAAXXZ 000000018003328c     node-midi.obj
 0002:0000c29c       $unwind$?openVirtualPort@MidiOutWinMM@@UEAAXV?$basic_string@DU?$char_traits@D@std@@V?$allocator@D@2@@std@@@Z 000000018003329c     node-midi.obj
 0002:0000c2b8       $ip2state$?openVirtualPort@MidiOutWinMM@@UEAAXV?$basic_string@DU?$char_traits@D@std@@V?$allocator@D@2@@std@@@Z 00000001800332b8     node-midi.obj
 0002:0000c2d0       $unwind$?sendMessage@MidiOutWinMM@@UEAAXPEAV?$vector@EV?$allocator@E@std@@@std@@@Z 00000001800332d0     node-midi.obj
 0002:0000c2e8       $chain$0$?sendMessage@MidiOutWinMM@@UEAAXPEAV?$vector@EV?$allocator@E@std@@@std@@@Z 00000001800332e8     node-midi.obj
 0002:0000c2fc       $chain$1$?sendMessage@MidiOutWinMM@@UEAAXPEAV?$vector@EV?$allocator@E@std@@@std@@@Z 00000001800332fc     node-midi.obj
 0002:0000c310       $chain$2$?sendMessage@MidiOutWinMM@@UEAAXPEAV?$vector@EV?$allocator@E@std@@@std@@@Z 0000000180033310     node-midi.obj
 0002:0000c324       $chain$3$?sendMessage@MidiOutWinMM@@UEAAXPEAV?$vector@EV?$allocator@E@std@@@std@@@Z 0000000180033324     node-midi.obj
 0002:0000c334       $chain$4$?sendMessage@MidiOutWinMM@@UEAAXPEAV?$vector@EV?$allocator@E@std@@@std@@@Z 0000000180033334     node-midi.obj
 0002:0000c344       $chain$5$?sendMessage@MidiOutWinMM@@UEAAXPEAV?$vector@EV?$allocator@E@std@@@std@@@Z 0000000180033344     node-midi.obj
 0002:0000c354       $chain$6$?sendMessage@MidiOutWinMM@@UEAAXPEAV?$vector@EV?$allocator@E@std@@@std@@@Z 0000000180033354     node-midi.obj
 0002:0000c354       $chain$8$?sendMessage@MidiOutWinMM@@UEAAXPEAV?$vector@EV?$allocator@E@std@@@std@@@Z 0000000180033354     node-midi.obj
 0002:0000c370       $chain$7$?sendMessage@MidiOutWinMM@@UEAAXPEAV?$vector@EV?$allocator@E@std@@@std@@@Z 0000000180033370     node-midi.obj
 0002:0000c370       $chain$9$?sendMessage@MidiOutWinMM@@UEAAXPEAV?$vector@EV?$allocator@E@std@@@std@@@Z 0000000180033370     node-midi.obj
 0002:0000c388       $unwind$?Init@NodeMidiOutput@@SAXV?$Local@VObject@v8@@@v8@@@Z 0000000180033388     node-midi.obj
 0002:0000c3a0       $stateUnwindMap$?Init@NodeMidiOutput@@SAXV?$Local@VObject@v8@@@v8@@@Z 00000001800333a0     node-midi.obj
 0002:0000c3a0       $stateUnwindMap$?Init@NodeMidiInput@@SAXV?$Local@VObject@v8@@@v8@@@Z 00000001800333a0     node-midi.obj
 0002:0000c3e0       $ip2state$?Init@NodeMidiOutput@@SAXV?$Local@VObject@v8@@@v8@@@Z 00000001800333e0     node-midi.obj
 0002:0000c458       $unwind$??0NodeMidiOutput@@QEAA@XZ 0000000180033458     node-midi.obj
 0002:0000c470       $stateUnwindMap$??0NodeMidiOutput@@QEAA@XZ 0000000180033470     node-midi.obj
 0002:0000c480       $ip2state$??0NodeMidiOutput@@QEAA@XZ 0000000180033480     node-midi.obj
 0002:0000c4a8       $unwind$?New@NodeMidiOutput@@SAXAEBV?$FunctionCallbackInfo@VValue@v8@@@Nan@@@Z 00000001800334a8     node-midi.obj
 0002:0000c4b8       $stateUnwindMap$?New@NodeMidiOutput@@SAXAEBV?$FunctionCallbackInfo@VValue@v8@@@Nan@@@Z 00000001800334b8     node-midi.obj
 0002:0000c4d0       $ip2state$?New@NodeMidiOutput@@SAXAEBV?$FunctionCallbackInfo@VValue@v8@@@Nan@@@Z 00000001800334d0     node-midi.obj
 0002:0000c508       $unwind$?GetPortCount@NodeMidiOutput@@SAXAEBV?$FunctionCallbackInfo@VValue@v8@@@Nan@@@Z 0000000180033508     node-midi.obj
 0002:0000c508       $unwind$?GetPortCount@NodeMidiInput@@SAXAEBV?$FunctionCallbackInfo@VValue@v8@@@Nan@@@Z 0000000180033508     node-midi.obj
 0002:0000c51c       $stateUnwindMap$?ClosePort@NodeMidiInput@@SAXAEBV?$FunctionCallbackInfo@VValue@v8@@@Nan@@@Z 000000018003351c     node-midi.obj
 0002:0000c51c       $stateUnwindMap$?GetPortCount@NodeMidiOutput@@SAXAEBV?$FunctionCallbackInfo@VValue@v8@@@Nan@@@Z 000000018003351c     node-midi.obj
 0002:0000c51c       $stateUnwindMap$?ClosePort@NodeMidiOutput@@SAXAEBV?$FunctionCallbackInfo@VValue@v8@@@Nan@@@Z 000000018003351c     node-midi.obj
 0002:0000c51c       $stateUnwindMap$?GetPortCount@NodeMidiInput@@SAXAEBV?$FunctionCallbackInfo@VValue@v8@@@Nan@@@Z 000000018003351c     node-midi.obj
 0002:0000c528       $ip2state$?GetPortCount@NodeMidiInput@@SAXAEBV?$FunctionCallbackInfo@VValue@v8@@@Nan@@@Z 0000000180033528     node-midi.obj
 0002:0000c528       $ip2state$?GetPortCount@NodeMidiOutput@@SAXAEBV?$FunctionCallbackInfo@VValue@v8@@@Nan@@@Z 0000000180033528     node-midi.obj
 0002:0000c540       $unwind$?GetPortName@NodeMidiInput@@SAXAEBV?$FunctionCallbackInfo@VValue@v8@@@Nan@@@Z 0000000180033540     node-midi.obj
 0002:0000c540       $unwind$?GetPortName@NodeMidiOutput@@SAXAEBV?$FunctionCallbackInfo@VValue@v8@@@Nan@@@Z 0000000180033540     node-midi.obj
 0002:0000c55c       $stateUnwindMap$?GetPortName@NodeMidiInput@@SAXAEBV?$FunctionCallbackInfo@VValue@v8@@@Nan@@@Z 000000018003355c     node-midi.obj
 0002:0000c55c       $stateUnwindMap$?GetPortName@NodeMidiOutput@@SAXAEBV?$FunctionCallbackInfo@VValue@v8@@@Nan@@@Z 000000018003355c     node-midi.obj
 0002:0000c578       $ip2state$?GetPortName@NodeMidiOutput@@SAXAEBV?$FunctionCallbackInfo@VValue@v8@@@Nan@@@Z 0000000180033578     node-midi.obj
 0002:0000c578       $ip2state$?GetPortName@NodeMidiInput@@SAXAEBV?$FunctionCallbackInfo@VValue@v8@@@Nan@@@Z 0000000180033578     node-midi.obj
 0002:0000c5b0       $unwind$?OpenPort@NodeMidiOutput@@SAXAEBV?$FunctionCallbackInfo@VValue@v8@@@Nan@@@Z 00000001800335b0     node-midi.obj
 0002:0000c5c4       $stateUnwindMap$?OpenPort@NodeMidiOutput@@SAXAEBV?$FunctionCallbackInfo@VValue@v8@@@Nan@@@Z 00000001800335c4     node-midi.obj
 0002:0000c5c4       $stateUnwindMap$?OpenPort@NodeMidiInput@@SAXAEBV?$FunctionCallbackInfo@VValue@v8@@@Nan@@@Z 00000001800335c4     node-midi.obj
 0002:0000c5e0       $ip2state$?OpenPort@NodeMidiOutput@@SAXAEBV?$FunctionCallbackInfo@VValue@v8@@@Nan@@@Z 00000001800335e0     node-midi.obj
 0002:0000c618       $unwind$?OpenVirtualPort@NodeMidiOutput@@SAXAEBV?$FunctionCallbackInfo@VValue@v8@@@Nan@@@Z 0000000180033618     node-midi.obj
 0002:0000c638       $stateUnwindMap$?OpenVirtualPort@NodeMidiOutput@@SAXAEBV?$FunctionCallbackInfo@VValue@v8@@@Nan@@@Z 0000000180033638     node-midi.obj
 0002:0000c638       $stateUnwindMap$?OpenVirtualPort@NodeMidiInput@@SAXAEBV?$FunctionCallbackInfo@VValue@v8@@@Nan@@@Z 0000000180033638     node-midi.obj
 0002:0000c660       $ip2state$?OpenVirtualPort@NodeMidiOutput@@SAXAEBV?$FunctionCallbackInfo@VValue@v8@@@Nan@@@Z 0000000180033660     node-midi.obj
 0002:0000c6a0       $unwind$?ClosePort@NodeMidiOutput@@SAXAEBV?$FunctionCallbackInfo@VValue@v8@@@Nan@@@Z 00000001800336a0     node-midi.obj
 0002:0000c6b0       $ip2state$?ClosePort@NodeMidiOutput@@SAXAEBV?$FunctionCallbackInfo@VValue@v8@@@Nan@@@Z 00000001800336b0     node-midi.obj
 0002:0000c6c8       $unwind$?SendMessageA@NodeMidiOutput@@SAXAEBV?$FunctionCallbackInfo@VValue@v8@@@Nan@@@Z 00000001800336c8     node-midi.obj
 0002:0000c6e8       $stateUnwindMap$?SendMessageA@NodeMidiOutput@@SAXAEBV?$FunctionCallbackInfo@VValue@v8@@@Nan@@@Z 00000001800336e8     node-midi.obj
 0002:0000c700       $ip2state$?SendMessageA@NodeMidiOutput@@SAXAEBV?$FunctionCallbackInfo@VValue@v8@@@Nan@@@Z 0000000180033700     node-midi.obj
 0002:0000c738       $unwind$??_GNodeMidiOutput@@UEAAPEAXI@Z 0000000180033738     node-midi.obj
 0002:0000c74c       $stateUnwindMap$??_GNodeMidiOutput@@UEAAPEAXI@Z 000000018003374c     node-midi.obj
 0002:0000c758       $ip2state$??_GNodeMidiOutput@@UEAAPEAXI@Z 0000000180033758     node-midi.obj
 0002:0000c770       $unwind$?Init@NodeMidiInput@@SAXV?$Local@VObject@v8@@@v8@@@Z 0000000180033770     node-midi.obj
 0002:0000c790       $ip2state$?Init@NodeMidiInput@@SAXV?$Local@VObject@v8@@@v8@@@Z 0000000180033790     node-midi.obj
 0002:0000c808       $unwind$??0NodeMidiInput@@QEAA@XZ 0000000180033808     node-midi.obj
 0002:0000c820       $stateUnwindMap$??0NodeMidiInput@@QEAA@XZ 0000000180033820     node-midi.obj
 0002:0000c838       $ip2state$??0NodeMidiInput@@QEAA@XZ 0000000180033838     node-midi.obj
 0002:0000c868       $unwind$??1NodeMidiInput@@UEAA@XZ 0000000180033868     node-midi.obj
 0002:0000c87c       $stateUnwindMap$??1NodeMidiInput@@UEAA@XZ 000000018003387c     node-midi.obj
 0002:0000c890       $ip2state$??1NodeMidiInput@@UEAA@XZ 0000000180033890     node-midi.obj
 0002:0000c8b0       $unwind$?EmitMessage@NodeMidiInput@@SAXPEAUuv_async_s@@@Z 00000001800338b0     node-midi.obj
 0002:0000c8e0       $stateUnwindMap$?EmitMessage@NodeMidiInput@@SAXPEAUuv_async_s@@@Z 00000001800338e0     node-midi.obj
 0002:0000c8e8       $ip2state$?EmitMessage@NodeMidiInput@@SAXPEAUuv_async_s@@@Z 00000001800338e8     node-midi.obj
 0002:0000c900       $unwind$?Callback@NodeMidiInput@@SAXNPEAV?$vector@EV?$allocator@E@std@@@std@@PEAX@Z 0000000180033900     node-midi.obj
 0002:0000c910       $unwind$?New@NodeMidiInput@@SAXAEBV?$FunctionCallbackInfo@VValue@v8@@@Nan@@@Z 0000000180033910     node-midi.obj
 0002:0000c924       $stateUnwindMap$?New@NodeMidiInput@@SAXAEBV?$FunctionCallbackInfo@VValue@v8@@@Nan@@@Z 0000000180033924     node-midi.obj
 0002:0000c940       $ip2state$?New@NodeMidiInput@@SAXAEBV?$FunctionCallbackInfo@VValue@v8@@@Nan@@@Z 0000000180033940     node-midi.obj
 0002:0000c978       $unwind$?OpenPort@NodeMidiInput@@SAXAEBV?$FunctionCallbackInfo@VValue@v8@@@Nan@@@Z 0000000180033978     node-midi.obj
 0002:0000c990       $ip2state$?OpenPort@NodeMidiInput@@SAXAEBV?$FunctionCallbackInfo@VValue@v8@@@Nan@@@Z 0000000180033990     node-midi.obj
 0002:0000c9c8       $unwind$?OpenVirtualPort@NodeMidiInput@@SAXAEBV?$FunctionCallbackInfo@VValue@v8@@@Nan@@@Z 00000001800339c8     node-midi.obj
 0002:0000c9f0       $ip2state$?OpenVirtualPort@NodeMidiInput@@SAXAEBV?$FunctionCallbackInfo@VValue@v8@@@Nan@@@Z 00000001800339f0     node-midi.obj
 0002:0000ca30       $unwind$?ClosePort@NodeMidiInput@@SAXAEBV?$FunctionCallbackInfo@VValue@v8@@@Nan@@@Z 0000000180033a30     node-midi.obj
 0002:0000ca40       $ip2state$?ClosePort@NodeMidiInput@@SAXAEBV?$FunctionCallbackInfo@VValue@v8@@@Nan@@@Z 0000000180033a40     node-midi.obj
 0002:0000ca58       $unwind$?IgnoreTypes@NodeMidiInput@@SAXAEBV?$FunctionCallbackInfo@VValue@v8@@@Nan@@@Z 0000000180033a58     node-midi.obj
 0002:0000ca70       $stateUnwindMap$?IgnoreTypes@NodeMidiInput@@SAXAEBV?$FunctionCallbackInfo@VValue@v8@@@Nan@@@Z 0000000180033a70     node-midi.obj
 0002:0000ca80       $ip2state$?IgnoreTypes@NodeMidiInput@@SAXAEBV?$FunctionCallbackInfo@VValue@v8@@@Nan@@@Z 0000000180033a80     node-midi.obj
 0002:0000caa8       $unwind$??$Unwrap@VNodeMidiInput@@@ObjectWrap@Nan@@SAPEAVNodeMidiInput@@V?$Local@VObject@v8@@@v8@@@Z 0000000180033aa8     node-midi.obj
 0002:0000caa8       $unwind$init               0000000180033aa8     node-midi.obj
 0002:0000caa8       $unwind$??$Unwrap@VNodeMidiOutput@@@ObjectWrap@Nan@@SAPEAVNodeMidiOutput@@V?$Local@VObject@v8@@@v8@@@Z 0000000180033aa8     node-midi.obj
 0002:0000cab0       $unwind$?xsputn@?$basic_streambuf@DU?$char_traits@D@std@@@std@@MEAA_JPEBD_J@Z 0000000180033ab0     node-midi.obj
 0002:0000cab0       $unwind$?xsgetn@?$basic_streambuf@DU?$char_traits@D@std@@@std@@MEAA_JPEAD_J@Z 0000000180033ab0     node-midi.obj
 0002:0000cac4       $chain$0$?xsgetn@?$basic_streambuf@DU?$char_traits@D@std@@@std@@MEAA_JPEAD_J@Z 0000000180033ac4     node-midi.obj
 0002:0000cad8       $chain$1$?xsgetn@?$basic_streambuf@DU?$char_traits@D@std@@@std@@MEAA_JPEAD_J@Z 0000000180033ad8     node-midi.obj
 0002:0000cae8       $chain$0$?xsputn@?$basic_streambuf@DU?$char_traits@D@std@@@std@@MEAA_JPEBD_J@Z 0000000180033ae8     node-midi.obj
 0002:0000cafc       $chain$1$?xsputn@?$basic_streambuf@DU?$char_traits@D@std@@@std@@MEAA_JPEBD_J@Z 0000000180033afc     node-midi.obj
 0002:0000cb0c       $unwind$??0?$basic_ostream@DU?$char_traits@D@std@@@std@@QEAA@PEAV?$basic_streambuf@DU?$char_traits@D@std@@@1@_N@Z 0000000180033b0c     node-midi.obj
 0002:0000cb1c       $stateUnwindMap$??0?$basic_ostream@DU?$char_traits@D@std@@@std@@QEAA@PEAV?$basic_streambuf@DU?$char_traits@D@std@@@1@_N@Z 0000000180033b1c     node-midi.obj
 0002:0000cb28       $ip2state$??0?$basic_ostream@DU?$char_traits@D@std@@@std@@QEAA@PEAV?$basic_streambuf@DU?$char_traits@D@std@@@1@_N@Z 0000000180033b28     node-midi.obj
 0002:0000cb40       $unwind$?dtor$0@?0???0?$basic_ostream@DU?$char_traits@D@std@@@std@@QEAA@PEAV?$basic_streambuf@DU?$char_traits@D@std@@@1@_N@Z@4HA 0000000180033b40     node-midi.obj
 0002:0000cb40       $unwind$_CRT_INIT$fin$0    0000000180033b40     LIBCMT:dllcrt0.obj
 0002:0000cb40       $unwind$__updatetmbcinfo$fin$0 0000000180033b40     LIBCMT:mbctype.obj
 0002:0000cb40       $unwind$_fseeki64$fin$0    0000000180033b40     LIBCMT:fseeki64.obj
 0002:0000cb40       $unwind$__updatetlocinfo$fin$0 0000000180033b40     LIBCMT:localref.obj
 0002:0000cb40       $unwind$__lock_fhandle$fin$0 0000000180033b40     LIBCMT:osfinfo.obj
 0002:0000cb40       $unwind$_wsetlocale$fin$2  0000000180033b40     LIBCMT:wsetloca.obj
 0002:0000cb40       $unwind$__DestructExceptionObject$filt$0 0000000180033b40     LIBCMT:frame.obj
 0002:0000cb40       $unwind$?fin$0@?0???_L@YAXPEAX_KHP6AX0@Z2@Z@4HA 0000000180033b40     LIBCMT:ehvecctr.obj
 0002:0000cb40       $unwind$fputc$fin$0        0000000180033b40     LIBCMT:fputc.obj
 0002:0000cb40       $unwind$flsall$fin$1       0000000180033b40     LIBCMT:fflush.obj
 0002:0000cb40       $unwind$_commit$fin$0      0000000180033b40     LIBCMT:commit.obj
 0002:0000cb40       $unwind$_ftelli64$fin$0    0000000180033b40     LIBCMT:ftelli64.obj
 0002:0000cb40       $unwind$flsall$fin$0       0000000180033b40     LIBCMT:fflush.obj
 0002:0000cb40       $unwind$_onexit$fin$0      0000000180033b40     LIBCMT:onexit.obj
 0002:0000cb40       $unwind$_mtinitlocknum$fin$0 0000000180033b40     LIBCMT:mlock.obj
 0002:0000cb40       $unwind$?fin$0@?0???_M@YAXPEAX_KHP6AX0@Z@Z@4HA 0000000180033b40     LIBCMT:ehvecdtr.obj
 0002:0000cb40       $unwind$raise$fin$0        0000000180033b40     LIBCMT:winsig.obj
 0002:0000cb40       $unwind$_ioinit$fin$0      0000000180033b40     LIBCMT:ioinit.obj
 0002:0000cb40       $unwind$_wsetlocale$fin$1  0000000180033b40     LIBCMT:wsetloca.obj
 0002:0000cb40       $unwind$fwprintf$fin$0     0000000180033b40     LIBCMT:fwprintf.obj
 0002:0000cb40       $unwind$?dtor$0@?0???0?$basic_ostringstream@DU?$char_traits@D@std@@V?$allocator@D@2@@std@@QEAA@H@Z@4HA 0000000180033b40     node-midi.obj
 0002:0000cb40       $unwind$?filt$0@?0??__ArrayUnwind@@YAXPEAX_KHP6AX0@Z@Z@4HA 0000000180033b40     LIBCMT:ehvecdtr.obj
 0002:0000cb40       $unwind$_locterm$fin$0     0000000180033b40     LIBCMT:wsetloca.obj
 0002:0000cb40       $unwind$_setmbcp$fin$0     0000000180033b40     LIBCMT:mbctype.obj
 0002:0000cb40       $unwind$?fin$0@?0??_Type_info_dtor@type_info@@CAXPEAV1@@Z@4HA 0000000180033b40     LIBCMT:typname.obj
 0002:0000cb40       $unwind$_close$fin$0       0000000180033b40     LIBCMT:close.obj
 0002:0000cb40       $unwind$fwrite$fin$0       0000000180033b40     LIBCMT:fwrite.obj
 0002:0000cb40       $unwind$doexit$fin$0       0000000180033b40     LIBCMT:crt0dat.obj
 0002:0000cb40       $unwind$__DllMainCRTStartup$filt$0 0000000180033b40     LIBCMT:dllcrt0.obj
 0002:0000cb40       $unwind$ungetc$fin$0       0000000180033b40     LIBCMT:ungetc.obj
 0002:0000cb40       $unwind$__FrameUnwindToState$filt$0 0000000180033b40     LIBCMT:frame.obj
 0002:0000cb40       $unwind$_lseeki64$fin$0    0000000180033b40     LIBCMT:lseeki64.obj
 0002:0000cb40       $unwind$_read$fin$0        0000000180033b40     LIBCMT:read.obj
 0002:0000cb40       $unwind$_wsetlocale$fin$0  0000000180033b40     LIBCMT:wsetloca.obj
 0002:0000cb40       $unwind$__CxxCallCatchBlock$filt$0 0000000180033b40     LIBCMT:frame.obj
 0002:0000cb40       $unwind$fclose$fin$0       0000000180033b40     LIBCMT:fclose.obj
 0002:0000cb40       $unwind$__FrameUnwindToState$fin$1 0000000180033b40     LIBCMT:frame.obj
 0002:0000cb40       $unwind$_write$fin$0       0000000180033b40     LIBCMT:write.obj
 0002:0000cb40       $unwind$_freefls$fin$1     0000000180033b40     LIBCMT:tidtable.obj
 0002:0000cb40       $unwind$fflush$fin$0       0000000180033b40     LIBCMT:fflush.obj
 0002:0000cb40       $unwind$fgetc$fin$0        0000000180033b40     LIBCMT:fgetc.obj
 0002:0000cb40       $unwind$_initptd$fin$0     0000000180033b40     LIBCMT:tidtable.obj
 0002:0000cb40       $unwind$_initptd$fin$1     0000000180033b40     LIBCMT:tidtable.obj
 0002:0000cb40       $unwind$_IsNonwritableInCurrentImage$filt$0 0000000180033b40     LIBCMT:pesect.obj
 0002:0000cb40       $unwind$_fcloseall$fin$0   0000000180033b40     LIBCMT:closeall.obj
 0002:0000cb40       $unwind$_freefls$fin$0     0000000180033b40     LIBCMT:tidtable.obj
 0002:0000cb40       $unwind$setvbuf$fin$0      0000000180033b40     LIBCMT:setvbuf.obj
 0002:0000cb40       $unwind$?dtor$1@?0??_Getcat@?$numpunct@D@std@@SA_KPEAPEBVfacet@locale@2@PEBV42@@Z@4HA 0000000180033b40     node-midi.obj
 0002:0000cb48       $unwind$??6?$basic_ostream@DU?$char_traits@D@std@@@std@@QEAAAEAV01@I@Z 0000000180033b48     node-midi.obj
 0002:0000cb64       $stateUnwindMap$??6?$basic_ostream@DU?$char_traits@D@std@@@std@@QEAAAEAV01@I@Z 0000000180033b64     node-midi.obj
 0002:0000cb80       $ip2state$??6?$basic_ostream@DU?$char_traits@D@std@@@std@@QEAAAEAV01@I@Z 0000000180033b80     node-midi.obj
 0002:0000cbb0       $unwind$??4?$vector@EV?$allocator@E@std@@@std@@QEAAAEAV01@AEBV01@@Z 0000000180033bb0     node-midi.obj
 0002:0000cbbc       $chain$0$??4?$vector@EV?$allocator@E@std@@@std@@QEAAAEAV01@AEBV01@@Z 0000000180033bbc     node-midi.obj
 0002:0000cbd0       $chain$1$??4?$vector@EV?$allocator@E@std@@@std@@QEAAAEAV01@AEBV01@@Z 0000000180033bd0     node-midi.obj
 0002:0000cbe0       $unwind$??0?$basic_ostringstream@DU?$char_traits@D@std@@V?$allocator@D@2@@std@@QEAA@H@Z 0000000180033be0     node-midi.obj
 0002:0000cbf8       $stateUnwindMap$??0?$basic_ostringstream@DU?$char_traits@D@std@@V?$allocator@D@2@@std@@QEAA@H@Z 0000000180033bf8     node-midi.obj
 0002:0000cc20       $ip2state$??0?$basic_ostringstream@DU?$char_traits@D@std@@V?$allocator@D@2@@std@@QEAA@H@Z 0000000180033c20     node-midi.obj
 0002:0000cc58       $unwind$?overflow@?$basic_stringbuf@DU?$char_traits@D@std@@V?$allocator@D@2@@std@@MEAAHH@Z 0000000180033c58     node-midi.obj
 0002:0000cc64       $chain$0$?overflow@?$basic_stringbuf@DU?$char_traits@D@std@@V?$allocator@D@2@@std@@MEAAHH@Z 0000000180033c64     node-midi.obj
 0002:0000cc78       $chain$5$?overflow@?$basic_stringbuf@DU?$char_traits@D@std@@V?$allocator@D@2@@std@@MEAAHH@Z 0000000180033c78     node-midi.obj
 0002:0000cc98       $chain$7$?overflow@?$basic_stringbuf@DU?$char_traits@D@std@@V?$allocator@D@2@@std@@MEAAHH@Z 0000000180033c98     node-midi.obj
 0002:0000ccb4       $unwind$?seekoff@?$basic_stringbuf@DU?$char_traits@D@std@@V?$allocator@D@2@@std@@MEAA?AV?$fpos@H@2@_JHH@Z 0000000180033cb4     node-midi.obj
 0002:0000ccc4       $unwind$?seekpos@?$basic_stringbuf@DU?$char_traits@D@std@@V?$allocator@D@2@@std@@MEAA?AV?$fpos@H@2@V32@H@Z 0000000180033cc4     node-midi.obj
 0002:0000ccd0       $unwind$?append@?$basic_string@DU?$char_traits@D@std@@V?$allocator@D@2@@std@@QEAAAEAV12@AEBV12@_K1@Z 0000000180033cd0     node-midi.obj
 0002:0000ccd0       $unwind$?insert@?$basic_string@DU?$char_traits@D@std@@V?$allocator@D@2@@std@@QEAAAEAV12@_K0D@Z 0000000180033cd0     node-midi.obj
 0002:0000cce4       $chain$0$?append@?$basic_string@DU?$char_traits@D@std@@V?$allocator@D@2@@std@@QEAAAEAV12@AEBV12@_K1@Z 0000000180033ce4     node-midi.obj
 0002:0000ccf8       $chain$1$?append@?$basic_string@DU?$char_traits@D@std@@V?$allocator@D@2@@std@@QEAAAEAV12@AEBV12@_K1@Z 0000000180033cf8     node-midi.obj
 0002:0000cd08       $chain$2$?append@?$basic_string@DU?$char_traits@D@std@@V?$allocator@D@2@@std@@QEAAAEAV12@AEBV12@_K1@Z 0000000180033d08     node-midi.obj
 0002:0000cd1c       $unwind$?append@?$basic_string@DU?$char_traits@D@std@@V?$allocator@D@2@@std@@QEAAAEAV12@PEBD_K@Z 0000000180033d1c     node-midi.obj
 0002:0000cd2c       $chain$0$?append@?$basic_string@DU?$char_traits@D@std@@V?$allocator@D@2@@std@@QEAAAEAV12@PEBD_K@Z 0000000180033d2c     node-midi.obj
 0002:0000cd40       $chain$1$?append@?$basic_string@DU?$char_traits@D@std@@V?$allocator@D@2@@std@@QEAAAEAV12@PEBD_K@Z 0000000180033d40     node-midi.obj
 0002:0000cd50       $chain$2$?append@?$basic_string@DU?$char_traits@D@std@@V?$allocator@D@2@@std@@QEAAAEAV12@PEBD_K@Z 0000000180033d50     node-midi.obj
 0002:0000cd64       $unwind$?setSBCS@@YAXPEAUthreadmbcinfostruct@@@Z 0000000180033d64     LIBCMT:mbctype.obj
 0002:0000cd64       $unwind$?append@?$basic_string@DU?$char_traits@D@std@@V?$allocator@D@2@@std@@QEAAAEAV12@_KD@Z 0000000180033d64     libcpmt:cerr.obj
 0002:0000cd64       $unwind$_initterm          0000000180033d64     LIBCMT:crt0dat.obj
 0002:0000cd64       $unwind$_fseeki64_nolock   0000000180033d64     LIBCMT:fseeki64.obj
 0002:0000cd64       $unwind$__freetlocinfo     0000000180033d64     LIBCMT:localref.obj
 0002:0000cd64       $unwind$?assign@?$basic_string@DU?$char_traits@D@std@@V?$allocator@D@2@@std@@QEAAAEAV12@AEBV12@_K1@Z 0000000180033d64     node-midi.obj
 0002:0000cd64       $unwind$?__StateFromIp@@YAHPEBU_s_FuncInfo@@PEAU_xDISPATCHER_CONTEXT@@_J@Z 0000000180033d64     LIBCMT:ehstate.obj
 0002:0000cd64       $unwind$_mtdeletelocks     0000000180033d64     LIBCMT:mlock.obj
 0002:0000cd64       $unwind$xtow_s             0000000180033d64     LIBCMT:xtows.obj
 0002:0000cd64       $unwind$_XcptFilter        0000000180033d64     LIBCMT:winxfltr.obj
 0002:0000cd64       $unwind$?_Copy@?$basic_string@DU?$char_traits@D@std@@V?$allocator@D@2@@std@@QEAAX_K0@Z 0000000180033d64     node-midi.obj
 0002:0000cd78       $unwind$?init@?$basic_ios@DU?$char_traits@D@std@@@std@@IEAAXPEAV?$basic_streambuf@DU?$char_traits@D@std@@@2@_N@Z 0000000180033d78     node-midi.obj
 0002:0000cd90       $stateUnwindMap$?init@?$basic_ios@DU?$char_traits@D@std@@@std@@IEAAXPEAV?$basic_streambuf@DU?$char_traits@D@std@@@2@_N@Z 0000000180033d90     node-midi.obj
 0002:0000cd98       $ip2state$?init@?$basic_ios@DU?$char_traits@D@std@@@std@@IEAAXPEAV?$basic_streambuf@DU?$char_traits@D@std@@@2@_N@Z 0000000180033d98     node-midi.obj
 0002:0000cdb0       $unwind$?str@?$basic_stringbuf@DU?$char_traits@D@std@@V?$allocator@D@2@@std@@QEBA?AV?$basic_string@DU?$char_traits@D@std@@V?$allocator@D@2@@2@XZ 0000000180033db0     node-midi.obj
 0002:0000cdc8       $unwind$?push_back@?$deque@PEAUMidiMessage@NodeMidiInput@@V?$allocator@PEAUMidiMessage@NodeMidiInput@@@std@@@std@@QEAAXAEBQEAUMidiMessage@NodeMidiInput@@@Z 0000000180033dc8     node-midi.obj
 0002:0000cdc8       $unwind$_wcstombs_s_l      0000000180033dc8     LIBCMT:wcstombs.obj
 0002:0000cddc       $unwind$??0sentry@?$basic_ostream@DU?$char_traits@D@std@@@std@@QEAA@AEAV12@@Z 0000000180033ddc     node-midi.obj
 0002:0000cdf0       $stateUnwindMap$??0sentry@?$basic_ostream@DU?$char_traits@D@std@@@std@@QEAA@AEAV12@@Z 0000000180033df0     node-midi.obj
 0002:0000cdf8       $ip2state$??0sentry@?$basic_ostream@DU?$char_traits@D@std@@@std@@QEAA@AEAV12@@Z 0000000180033df8     node-midi.obj
 0002:0000ce10       $unwind$?do_put@?$num_put@DV?$ostreambuf_iterator@DU?$char_traits@D@std@@@std@@@std@@MEBA?AV?$ostreambuf_iterator@DU?$char_traits@D@std@@@2@V32@AEAVios_base@2@D_N@Z 0000000180033e10     node-midi.obj
 0002:0000ce34       $stateUnwindMap$?do_put@?$num_put@DV?$ostreambuf_iterator@DU?$char_traits@D@std@@@std@@@std@@MEBA?AV?$ostreambuf_iterator@DU?$char_traits@D@std@@@2@V32@AEAVios_base@2@D_N@Z 0000000180033e34     node-midi.obj
 0002:0000ce48       $ip2state$?do_put@?$num_put@DV?$ostreambuf_iterator@DU?$char_traits@D@std@@@std@@@std@@MEBA?AV?$ostreambuf_iterator@DU?$char_traits@D@std@@@2@V32@AEAVios_base@2@D_N@Z 0000000180033e48     node-midi.obj
 0002:0000ce70       $unwind$?do_put@?$num_put@DV?$ostreambuf_iterator@DU?$char_traits@D@std@@@std@@@std@@MEBA?AV?$ostreambuf_iterator@DU?$char_traits@D@std@@@2@V32@AEAVios_base@2@DJ@Z 0000000180033e70     node-midi.obj
 0002:0000ce70       $unwind$?do_put@?$num_put@DV?$ostreambuf_iterator@DU?$char_traits@D@std@@@std@@@std@@MEBA?AV?$ostreambuf_iterator@DU?$char_traits@D@std@@@2@V32@AEAVios_base@2@DK@Z 0000000180033e70     node-midi.obj
 0002:0000ce70       $unwind$?do_put@?$num_put@DV?$ostreambuf_iterator@DU?$char_traits@D@std@@@std@@@std@@MEBA?AV?$ostreambuf_iterator@DU?$char_traits@D@std@@@2@V32@AEAVios_base@2@D_K@Z 0000000180033e70     node-midi.obj
 0002:0000ce70       $unwind$?do_put@?$num_put@DV?$ostreambuf_iterator@DU?$char_traits@D@std@@@std@@@std@@MEBA?AV?$ostreambuf_iterator@DU?$char_traits@D@std@@@2@V32@AEAVios_base@2@D_J@Z 0000000180033e70     node-midi.obj
 0002:0000ce88       $unwind$?do_put@?$num_put@DV?$ostreambuf_iterator@DU?$char_traits@D@std@@@std@@@std@@MEBA?AV?$ostreambuf_iterator@DU?$char_traits@D@std@@@2@V32@AEAVios_base@2@DN@Z 0000000180033e88     node-midi.obj
 0002:0000ce88       $unwind$?do_put@?$num_put@DV?$ostreambuf_iterator@DU?$char_traits@D@std@@@std@@@std@@MEBA?AV?$ostreambuf_iterator@DU?$char_traits@D@std@@@2@V32@AEAVios_base@2@DO@Z 0000000180033e88     node-midi.obj
 0002:0000cea8       $unwind$?do_put@?$num_put@DV?$ostreambuf_iterator@DU?$char_traits@D@std@@@std@@@std@@MEBA?AV?$ostreambuf_iterator@DU?$char_traits@D@std@@@2@V32@AEAVios_base@2@DPEBX@Z 0000000180033ea8     node-midi.obj
 0002:0000cec0       $chain$0$?insert@?$basic_string@DU?$char_traits@D@std@@V?$allocator@D@2@@std@@QEAAAEAV12@_K0D@Z 0000000180033ec0     node-midi.obj
 0002:0000ced4       $chain$1$?insert@?$basic_string@DU?$char_traits@D@std@@V?$allocator@D@2@@std@@QEAAAEAV12@_K0D@Z 0000000180033ed4     node-midi.obj
 0002:0000cee4       $chain$2$?insert@?$basic_string@DU?$char_traits@D@std@@V?$allocator@D@2@@std@@QEAAAEAV12@_K0D@Z 0000000180033ee4     node-midi.obj
 0002:0000cef8       $unwind$?_Grow@?$basic_string@DU?$char_traits@D@std@@V?$allocator@D@2@@std@@QEAA_N_K_N@Z 0000000180033ef8     node-midi.obj
 0002:0000cf04       $chain$0$?_Grow@?$basic_string@DU?$char_traits@D@std@@V?$allocator@D@2@@std@@QEAA_N_K_N@Z 0000000180033f04     node-midi.obj
 0002:0000cf18       $chain$1$?_Grow@?$basic_string@DU?$char_traits@D@std@@V?$allocator@D@2@@std@@QEAA_N_K_N@Z 0000000180033f18     node-midi.obj
 0002:0000cf2c       $chain$2$?_Grow@?$basic_string@DU?$char_traits@D@std@@V?$allocator@D@2@@std@@QEAA_N_K_N@Z 0000000180033f2c     node-midi.obj
 0002:0000cf40       $chain$3$?_Grow@?$basic_string@DU?$char_traits@D@std@@V?$allocator@D@2@@std@@QEAA_N_K_N@Z 0000000180033f40     node-midi.obj
 0002:0000cf50       $chain$4$?_Grow@?$basic_string@DU?$char_traits@D@std@@V?$allocator@D@2@@std@@QEAA_N_K_N@Z 0000000180033f50     node-midi.obj
 0002:0000cf60       $chain$5$?_Grow@?$basic_string@DU?$char_traits@D@std@@V?$allocator@D@2@@std@@QEAA_N_K_N@Z 0000000180033f60     node-midi.obj
 0002:0000cf70       $unwind$??0?$basic_streambuf@DU?$char_traits@D@std@@@std@@IEAA@XZ 0000000180033f70     node-midi.obj
 0002:0000cf88       $ip2state$??0?$basic_streambuf@DU?$char_traits@D@std@@@std@@IEAA@XZ 0000000180033f88     node-midi.obj
 0002:0000cfa0       $unwind$?flush@?$basic_ostream@DU?$char_traits@D@std@@@std@@QEAAAEAV12@XZ 0000000180033fa0     node-midi.obj
 0002:0000cfb4       $stateUnwindMap$?flush@?$basic_ostream@DU?$char_traits@D@std@@@std@@QEAAAEAV12@XZ 0000000180033fb4     node-midi.obj
 0002:0000cfc0       $ip2state$?flush@?$basic_ostream@DU?$char_traits@D@std@@@std@@QEAAAEAV12@XZ 0000000180033fc0     node-midi.obj
 0002:0000cfd8       $chain$0$?_Reallocate@?$vector@EV?$allocator@E@std@@@std@@IEAAX_K@Z 0000000180033fd8     node-midi.obj
 0002:0000cfec       $chain$1$?_Reallocate@?$vector@EV?$allocator@E@std@@@std@@IEAAX_K@Z 0000000180033fec     node-midi.obj
 0002:0000cffc       $unwind$__CxxCallCatchBlock$fin$1 0000000180033ffc     LIBCMT:frame.obj
 0002:0000cffc       $unwind$?_Growmap@?$deque@PEAUMidiMessage@NodeMidiInput@@V?$allocator@PEAUMidiMessage@NodeMidiInput@@@std@@@std@@IEAAX_K@Z 0000000180033ffc     node-midi.obj
 0002:0000d008       $chain$1$?_Growmap@?$deque@PEAUMidiMessage@NodeMidiInput@@V?$allocator@PEAUMidiMessage@NodeMidiInput@@@std@@@std@@IEAAX_K@Z 0000000180034008     node-midi.obj
 0002:0000d020       $chain$3$?_Growmap@?$deque@PEAUMidiMessage@NodeMidiInput@@V?$allocator@PEAUMidiMessage@NodeMidiInput@@@std@@@std@@IEAAX_K@Z 0000000180034020     node-midi.obj
 0002:0000d038       $chain$4$?_Growmap@?$deque@PEAUMidiMessage@NodeMidiInput@@V?$allocator@PEAUMidiMessage@NodeMidiInput@@@std@@@std@@IEAAX_K@Z 0000000180034038     node-midi.obj
 0002:0000d04c       $chain$5$?_Growmap@?$deque@PEAUMidiMessage@NodeMidiInput@@V?$allocator@PEAUMidiMessage@NodeMidiInput@@@std@@@std@@IEAAX_K@Z 000000018003404c     node-midi.obj
 0002:0000d05c       $chain$6$?_Growmap@?$deque@PEAUMidiMessage@NodeMidiInput@@V?$allocator@PEAUMidiMessage@NodeMidiInput@@@std@@@std@@IEAAX_K@Z 000000018003405c     node-midi.obj
 0002:0000d06c       $chain$8$?_Growmap@?$deque@PEAUMidiMessage@NodeMidiInput@@V?$allocator@PEAUMidiMessage@NodeMidiInput@@@std@@@std@@IEAAX_K@Z 000000018003406c     node-midi.obj
 0002:0000d084       $chain$9$?_Growmap@?$deque@PEAUMidiMessage@NodeMidiInput@@V?$allocator@PEAUMidiMessage@NodeMidiInput@@@std@@@std@@IEAAX_K@Z 0000000180034084     node-midi.obj
 0002:0000d094       $unwind$?_Fput@?$num_put@DV?$ostreambuf_iterator@DU?$char_traits@D@std@@@std@@@std@@AEBA?AV?$ostreambuf_iterator@DU?$char_traits@D@std@@@2@V32@AEAVios_base@2@DPEBD_K333@Z 0000000180034094     node-midi.obj
 0002:0000d0bc       $stateUnwindMap$?_Fput@?$num_put@DV?$ostreambuf_iterator@DU?$char_traits@D@std@@@std@@@std@@AEBA?AV?$ostreambuf_iterator@DU?$char_traits@D@std@@@2@V32@AEAVios_base@2@DPEBD_K333@Z 00000001800340bc     node-midi.obj
 0002:0000d0e0       $ip2state$?_Fput@?$num_put@DV?$ostreambuf_iterator@DU?$char_traits@D@std@@@std@@@std@@AEBA?AV?$ostreambuf_iterator@DU?$char_traits@D@std@@@2@V32@AEAVios_base@2@DPEBD_K333@Z 00000001800340e0     node-midi.obj
 0002:0000d128       $unwind$?_Iput@?$num_put@DV?$ostreambuf_iterator@DU?$char_traits@D@std@@@std@@@std@@AEBA?AV?$ostreambuf_iterator@DU?$char_traits@D@std@@@2@V32@AEAVios_base@2@DPEAD_K@Z 0000000180034128     node-midi.obj
 0002:0000d150       $stateUnwindMap$?_Iput@?$num_put@DV?$ostreambuf_iterator@DU?$char_traits@D@std@@@std@@@std@@AEBA?AV?$ostreambuf_iterator@DU?$char_traits@D@std@@@2@V32@AEAVios_base@2@DPEAD_K@Z 0000000180034150     node-midi.obj
 0002:0000d170       $ip2state$?_Iput@?$num_put@DV?$ostreambuf_iterator@DU?$char_traits@D@std@@@std@@@std@@AEBA?AV?$ostreambuf_iterator@DU?$char_traits@D@std@@@2@V32@AEAVios_base@2@DPEAD_K@Z 0000000180034170     node-midi.obj
 0002:0000d1b8       $unwind$??$use_facet@V?$ctype@D@std@@@std@@YAAEBV?$ctype@D@0@AEBVlocale@0@@Z 00000001800341b8     node-midi.obj
 0002:0000d1d0       $stateUnwindMap$??$use_facet@V?$ctype@D@std@@@std@@YAAEBV?$ctype@D@0@AEBVlocale@0@@Z 00000001800341d0     node-midi.obj
 0002:0000d1d0       $stateUnwindMap$??$use_facet@V?$num_put@DV?$ostreambuf_iterator@DU?$char_traits@D@std@@@std@@@std@@@std@@YAAEBV?$num_put@DV?$ostreambuf_iterator@DU?$char_traits@D@std@@@std@@@0@AEBVlocale@0@@Z 00000001800341d0     node-midi.obj
 0002:0000d1d0       $stateUnwindMap$??$use_facet@V?$numpunct@D@std@@@std@@YAAEBV?$numpunct@D@0@AEBVlocale@0@@Z 00000001800341d0     node-midi.obj
 0002:0000d1d8       $ip2state$??$use_facet@V?$ctype@D@std@@@std@@YAAEBV?$ctype@D@0@AEBVlocale@0@@Z 00000001800341d8     node-midi.obj
 0002:0000d1f0       $unwind$??$?6U?$char_traits@D@std@@@std@@YAAEAV?$basic_ostream@DU?$char_traits@D@std@@@0@AEAV10@D@Z 00000001800341f0     node-midi.obj
 0002:0000d20c       $stateUnwindMap$??$?6DU?$char_traits@D@std@@V?$allocator@D@1@@std@@YAAEAV?$basic_ostream@DU?$char_traits@D@std@@@0@AEAV10@AEBV?$basic_string@DU?$char_traits@D@std@@V?$allocator@D@2@@0@@Z 000000018003420c     node-midi.obj
 0002:0000d20c       $stateUnwindMap$??$?6U?$char_traits@D@std@@@std@@YAAEAV?$basic_ostream@DU?$char_traits@D@std@@@0@AEAV10@D@Z 000000018003420c     node-midi.obj
 0002:0000d20c       $stateUnwindMap$??$?6U?$char_traits@D@std@@@std@@YAAEAV?$basic_ostream@DU?$char_traits@D@std@@@0@AEAV10@PEBD@Z 000000018003420c     node-midi.obj
 0002:0000d240       $ip2state$??$?6U?$char_traits@D@std@@@std@@YAAEAV?$basic_ostream@DU?$char_traits@D@std@@@0@AEAV10@D@Z 0000000180034240     node-midi.obj
 0002:0000d288       $unwind$??$?6DU?$char_traits@D@std@@V?$allocator@D@1@@std@@YAAEAV?$basic_ostream@DU?$char_traits@D@std@@@0@AEAV10@AEBV?$basic_string@DU?$char_traits@D@std@@V?$allocator@D@2@@0@@Z 0000000180034288     node-midi.obj
 0002:0000d2b0       $ip2state$??$?6DU?$char_traits@D@std@@V?$allocator@D@1@@std@@YAAEAV?$basic_ostream@DU?$char_traits@D@std@@@0@AEAV10@AEBV?$basic_string@DU?$char_traits@D@std@@V?$allocator@D@2@@0@@Z 00000001800342b0     node-midi.obj
 0002:0000d2f8       $unwind$??$?6U?$char_traits@D@std@@@std@@YAAEAV?$basic_ostream@DU?$char_traits@D@std@@@0@AEAV10@PEBD@Z 00000001800342f8     node-midi.obj
 0002:0000d320       $ip2state$??$?6U?$char_traits@D@std@@@std@@YAAEAV?$basic_ostream@DU?$char_traits@D@std@@@0@AEAV10@PEBD@Z 0000000180034320     node-midi.obj
 0002:0000d368       $unwind$??$use_facet@V?$num_put@DV?$ostreambuf_iterator@DU?$char_traits@D@std@@@std@@@std@@@std@@YAAEBV?$num_put@DV?$ostreambuf_iterator@DU?$char_traits@D@std@@@std@@@0@AEBVlocale@0@@Z 0000000180034368     node-midi.obj
 0002:0000d380       $ip2state$??$use_facet@V?$num_put@DV?$ostreambuf_iterator@DU?$char_traits@D@std@@@std@@@std@@@std@@YAAEBV?$num_put@DV?$ostreambuf_iterator@DU?$char_traits@D@std@@@std@@@0@AEBVlocale@0@@Z 0000000180034380     node-midi.obj
 0002:0000d398       $unwind$??$use_facet@V?$numpunct@D@std@@@std@@YAAEBV?$numpunct@D@0@AEBVlocale@0@@Z 0000000180034398     node-midi.obj
 0002:0000d3b0       $ip2state$??$use_facet@V?$numpunct@D@std@@@std@@YAAEBV?$numpunct@D@0@AEBVlocale@0@@Z 00000001800343b0     node-midi.obj
 0002:0000d3c8       $unwind$?_Getcat@?$num_put@DV?$ostreambuf_iterator@DU?$char_traits@D@std@@@std@@@std@@SA_KPEAPEBVfacet@locale@2@PEBV42@@Z 00000001800343c8     node-midi.obj
 0002:0000d3e8       $stateUnwindMap$?_Getcat@?$num_put@DV?$ostreambuf_iterator@DU?$char_traits@D@std@@@std@@@std@@SA_KPEAPEBVfacet@locale@2@PEBV42@@Z 00000001800343e8     node-midi.obj
 0002:0000d3e8       $stateUnwindMap$?_Getcat@?$codecvt@DDH@std@@SA_KPEAPEBVfacet@locale@2@PEBV42@@Z 00000001800343e8     libcpmt:cerr.obj
 0002:0000d3f0       $ip2state$?_Getcat@?$num_put@DV?$ostreambuf_iterator@DU?$char_traits@D@std@@@std@@@std@@SA_KPEAPEBVfacet@locale@2@PEBV42@@Z 00000001800343f0     node-midi.obj
 0002:0000d408       $unwind$?_Getcat@?$numpunct@D@std@@SA_KPEAPEBVfacet@locale@2@PEBV42@@Z 0000000180034408     node-midi.obj
 0002:0000d424       $stateUnwindMap$?_Getcat@?$numpunct@D@std@@SA_KPEAPEBVfacet@locale@2@PEBV42@@Z 0000000180034424     node-midi.obj
 0002:0000d450       $ip2state$?_Getcat@?$numpunct@D@std@@SA_KPEAPEBVfacet@locale@2@PEBV42@@Z 0000000180034450     node-midi.obj
 0002:0000d490       $unwind$?_Init@?$numpunct@D@std@@IEAAXAEBV_Locinfo@2@_N@Z 0000000180034490     node-midi.obj
 0002:0000d4a8       xdata                      00000001800344a8     node:node.exe
 0002:0000d4b0       $unwind$?_Locimp_dtor@_Locimp@locale@std@@CAXPEAV123@@Z 00000001800344b0     libcpmt:locale0.obj
 0002:0000d4c4       $ip2state$?_Locimp_dtor@_Locimp@locale@std@@CAXPEAV123@@Z 00000001800344c4     libcpmt:locale0.obj
 0002:0000d4dc       $unwind$?_Init@locale@std@@CAPEAV_Locimp@12@_N@Z 00000001800344dc     libcpmt:locale0.obj
 0002:0000d4f0       $stateUnwindMap$?_Locimp_dtor@_Locimp@locale@std@@CAXPEAV123@@Z 00000001800344f0     libcpmt:locale0.obj
 0002:0000d4f0       $stateUnwindMap$?_Init@locale@std@@CAPEAV_Locimp@12@_N@Z 00000001800344f0     libcpmt:locale0.obj
 0002:0000d4f8       $ip2state$?_Init@locale@std@@CAPEAV_Locimp@12@_N@Z 00000001800344f8     libcpmt:locale0.obj
 0002:0000d510       $unwind$?_Xbad_alloc@std@@YAXXZ 0000000180034510     libcpmt:xthrow.obj
 0002:0000d510       $unwind$?_Xout_of_range@std@@YAXPEBD@Z 0000000180034510     libcpmt:xthrow.obj
 0002:0000d510       $unwind$?_Xlength_error@std@@YAXPEBD@Z 0000000180034510     libcpmt:xthrow.obj
 0002:0000d510       $unwind$__initconout       0000000180034510     libcpmt:xthrow.obj
 0002:0000d510       $unwind$_cfltcvt           0000000180034510     libcpmt:xthrow.obj
 0002:0000d518       $unwind$?overflow@?$basic_filebuf@DU?$char_traits@D@std@@@std@@MEAAHH@Z 0000000180034518     libcpmt:cerr.obj
 0002:0000d540       $ip2state$?overflow@?$basic_filebuf@DU?$char_traits@D@std@@@std@@MEAAHH@Z 0000000180034540     libcpmt:cerr.obj
 0002:0000d558       $unwind$?uflow@?$basic_filebuf@DU?$char_traits@D@std@@@std@@MEAAHXZ 0000000180034558     libcpmt:cerr.obj
 0002:0000d57c       $stateUnwindMap$?overflow@?$basic_filebuf@DU?$char_traits@D@std@@@std@@MEAAHH@Z 000000018003457c     libcpmt:cerr.obj
 0002:0000d57c       $stateUnwindMap$?uflow@?$basic_filebuf@DU?$char_traits@D@std@@@std@@MEAAHXZ 000000018003457c     libcpmt:cerr.obj
 0002:0000d584       $ip2state$?uflow@?$basic_filebuf@DU?$char_traits@D@std@@@std@@MEAAHXZ 0000000180034584     libcpmt:cerr.obj
 0002:0000d59c       $unwind$?seekoff@?$basic_filebuf@DU?$char_traits@D@std@@@std@@MEAA?AV?$fpos@H@2@_JHH@Z 000000018003459c     libcpmt:cerr.obj
 0002:0000d5b0       $unwind$?seekpos@?$basic_filebuf@DU?$char_traits@D@std@@@std@@MEAA?AV?$fpos@H@2@V32@H@Z 00000001800345b0     libcpmt:cerr.obj
 0002:0000d5c4       $unwind$?_Endwrite@?$basic_filebuf@DU?$char_traits@D@std@@@std@@IEAA_NXZ 00000001800345c4     libcpmt:cerr.obj
 0002:0000d5e8       $stateUnwindMap$?_Endwrite@?$basic_filebuf@DU?$char_traits@D@std@@@std@@IEAA_NXZ 00000001800345e8     libcpmt:cerr.obj
 0002:0000d5f0       $ip2state$?_Endwrite@?$basic_filebuf@DU?$char_traits@D@std@@@std@@IEAA_NXZ 00000001800345f0     libcpmt:cerr.obj
 0002:0000d608       $unwind$?_Getcat@?$codecvt@DDH@std@@SA_KPEAPEBVfacet@locale@2@PEBV42@@Z 0000000180034608     libcpmt:cerr.obj
 0002:0000d628       $ip2state$?_Getcat@?$codecvt@DDH@std@@SA_KPEAPEBVfacet@locale@2@PEBV42@@Z 0000000180034628     libcpmt:cerr.obj
 0002:0000d640       $unwind$??$use_facet@V?$codecvt@DDH@std@@@std@@YAAEBV?$codecvt@DDH@0@AEBVlocale@0@@Z 0000000180034640     libcpmt:cerr.obj
 0002:0000d658       $stateUnwindMap$??$use_facet@V?$codecvt@DDH@std@@@std@@YAAEBV?$codecvt@DDH@0@AEBVlocale@0@@Z 0000000180034658     libcpmt:cerr.obj
 0002:0000d660       $ip2state$??$use_facet@V?$codecvt@DDH@std@@@std@@YAAEBV?$codecvt@DDH@0@AEBVlocale@0@@Z 0000000180034660     libcpmt:cerr.obj
 0002:0000d678       $unwind$_Tolower           0000000180034678     libcpmt:_tolower.obj
 0002:0000d688       $unwind$_Toupper           0000000180034688     libcpmt:_toupper.obj
 0002:0000d6a0       $xdatasym                  00000001800346a0     LIBCMT:amdsecgs.obj
 0002:0000d6a4       $unwind$_call_reportfault  00000001800346a4     LIBCMT:invarg.obj
 0002:0000d6c8       $xdatasym                  00000001800346c8     LIBCMT:memcpy.obj
 0002:0000d6cc       $unwind$??_M@YAXPEAX_KHP6AX0@Z@Z 00000001800346cc     LIBCMT:ehvecdtr.obj
 0002:0000d6f4       $unwind$?__ArrayUnwind@@YAXPEAX_KHP6AX0@Z@Z 00000001800346f4     LIBCMT:ehvecdtr.obj
 0002:0000d71c       $unwind$swprintf           000000018003471c     LIBCMT:wassert.obj
 0002:0000d71c       $unwind$sprintf_s          000000018003471c     LIBCMT:wassert.obj
 0002:0000d724       $unwind$_wassert           0000000180034724     LIBCMT:wassert.obj
 0002:0000d748       $unwind$_onexit            0000000180034748     LIBCMT:onexit.obj
 0002:0000d778       $unwind$??_L@YAXPEAX_KHP6AX0@Z2@Z 0000000180034778     LIBCMT:ehvecctr.obj
 0002:0000d7a4       $unwind$strcspn            00000001800347a4     LIBCMT:strcspn.obj
 0002:0000d7b4       $unwind$_CRT_INIT          00000001800347b4     LIBCMT:dllcrt0.obj
 0002:0000d7d4       $unwind$__DllMainCRTStartup 00000001800347d4     LIBCMT:dllcrt0.obj
 0002:0000d7fc       $unwind$__init_ctype       00000001800347fc     LIBCMT:initctyp.obj
 0002:0000d824       $unwind$_stricmp_l         0000000180034824     LIBCMT:ismbbyte.obj
 0002:0000d824       $unwind$?x_ismbbtype_l@@YAHPEAUlocaleinfo_struct@@IHH@Z 0000000180034824     LIBCMT:ismbbyte.obj
 0002:0000d838       $xdatasym                  0000000180034838     LIBCMT:memset.obj
 0002:0000d840       $xdatasym                  0000000180034840     LIBCMT:strlen.obj
 0002:0000d844       $unwind$_CxxThrowException 0000000180034844     LIBCMT:throw.obj
 0002:0000d854       $unwind$?__FrameUnwindToEmptyState@@YAXPEA_KPEAU_xDISPATCHER_CONTEXT@@PEBU_s_FuncInfo@@@Z 0000000180034854     LIBCMT:trnsctrl.obj
 0002:0000d868       $unwind$_UnwindNestedFrames 0000000180034868     LIBCMT:trnsctrl.obj
 0002:0000d87c       $unwind$_CallSETranslator  000000018003487c     LIBCMT:trnsctrl.obj
 0002:0000d89c       $unwind$_CallSETranslator$filt$0 000000018003489c     LIBCMT:trnsctrl.obj
 0002:0000d8a4       $unwind$?_GetEstablisherFrame@@YAPEA_KPEA_KPEAU_xDISPATCHER_CONTEXT@@PEBU_s_FuncInfo@@0@Z 00000001800348a4     LIBCMT:trnsctrl.obj
 0002:0000d8bc       $unwind$__CxxFrameHandler3 00000001800348bc     LIBCMT:trnsctrl.obj
 0002:0000d8cc       $unwind$_wcsicmp_l         00000001800348cc     LIBCMT:trnsctrl.obj
 0002:0000d8cc       $unwind$?__SehTransFilter@@YAHPEAU_EXCEPTION_POINTERS@@PEAUEHExceptionRecord@@PEA_KPEAU_CONTEXT@@PEAU_xDISPATCHER_CONTEXT@@PEBU_s_FuncInfo@@PEAH@Z 00000001800348cc     LIBCMT:trnsctrl.obj
 0002:0000d8e0       $unwind$setlocale          00000001800348e0     LIBCMT:setlocal.obj
 0002:0000d910       $unwind$setlocale$fin$0    0000000180034910     LIBCMT:setlocal.obj
 0002:0000d918       $unwind$?_Copy_str@exception@std@@AEAAXPEBD@Z 0000000180034918     LIBCMT:stdexcpt.obj
 0002:0000d928       $unwind$iswctype           0000000180034928     LIBCMT:stdexcpt.obj
 0002:0000d928       $unwind$__free_lconv_num   0000000180034928     LIBCMT:stdexcpt.obj
 0002:0000d928       $unwind$free               0000000180034928     LIBCMT:stdexcpt.obj
 0002:0000d928       $unwind$??0bad_cast@std@@QEAA@PEBD@Z 0000000180034928     LIBCMT:stdexcpt.obj
 0002:0000d930       $unwind$fclose             0000000180034930     LIBCMT:fclose.obj
 0002:0000d954       $unwind$fflush             0000000180034954     LIBCMT:fflush.obj
 0002:0000d978       $unwind$flsall             0000000180034978     LIBCMT:fflush.obj
 0002:0000d9b8       $unwind$fgetc              00000001800349b8     LIBCMT:fgetc.obj
 0002:0000d9dc       $unwind$fputc              00000001800349dc     LIBCMT:fputc.obj
 0002:0000da04       $unwind$_fseeki64          0000000180034a04     LIBCMT:fseeki64.obj
 0002:0000da2c       $unwind$fwrite             0000000180034a2c     LIBCMT:fwrite.obj
 0002:0000da58       $unwind$_fwrite_nolock     0000000180034a58     LIBCMT:fwrite.obj
 0002:0000da74       $unwind$setvbuf            0000000180034a74     LIBCMT:setvbuf.obj
 0002:0000daa0       $unwind$ungetc             0000000180034aa0     LIBCMT:ungetc.obj
 0002:0000dac4       $unwind$_mtinitlocknum     0000000180034ac4     LIBCMT:mlock.obj
 0002:0000daec       $unwind$__copy_locale_name 0000000180034aec     LIBCMT:wcsdup.obj
 0002:0000daec       $unwind$__crtLCMapStringW  0000000180034aec     LIBCMT:wcsdup.obj
 0002:0000daec       $unwind$_wcsdup            0000000180034aec     LIBCMT:wcsdup.obj
 0002:0000dafc       $unwind$__crtLCMapStringA  0000000180034afc     LIBCMT:a_map.obj
 0002:0000db0c       $unwind$?__crtLCMapStringA_stat@@YAHPEAUlocaleinfo_struct@@PEB_WKPEBDHPEADHHH@Z 0000000180034b0c     LIBCMT:a_map.obj
 0002:0000db34       $unwind$_malloc_crt        0000000180034b34     LIBCMT:crtheap.obj
 0002:0000db34       $unwind$__GSHandlerCheck_EH 0000000180034b34     LIBCMT:crtheap.obj
 0002:0000db34       $unwind$_realloc_crt       0000000180034b34     LIBCMT:crtheap.obj
 0002:0000db34       $unwind$__TypeMatch        0000000180034b34     LIBCMT:crtheap.obj
 0002:0000db34       $unwind$_calloc_crt        0000000180034b34     LIBCMT:crtheap.obj
 0002:0000db34       $unwind$GetTableIndexFromLocaleName 0000000180034b34     LIBCMT:crtheap.obj
 0002:0000db50       $xdatasym                  0000000180034b50     LIBCMT:strcmp.obj
 0002:0000db54       $unwind$__crtCaptureCurrentContext 0000000180034b54     LIBCMT:winapisupp.obj
 0002:0000db60       $unwind$__crtCapturePreviousContext 0000000180034b60     LIBCMT:winapisupp.obj
 0002:0000db6c       $unwind$_tolower_l         0000000180034b6c     LIBCMT:tolower.obj
 0002:0000db80       $xdatasym                  0000000180034b80     LIBCMT:memcmp.obj
 0002:0000db84       $unwind$__crtLCMapStringEx 0000000180034b84     LIBCMT:winapinls.obj
 0002:0000db94       $unwind$__report_securityfailure 0000000180034b94     LIBCMT:gs_report.obj
 0002:0000db9c       $unwind$_putwch_nolock     0000000180034b9c     LIBCMT:gs_report.obj
 0002:0000db9c       $unwind$__report_gsfailure 0000000180034b9c     LIBCMT:gs_report.obj
 0002:0000dba4       $unwind$doexit             0000000180034ba4     LIBCMT:crt0dat.obj
 0002:0000dbd4       $unwind$raise              0000000180034bd4     LIBCMT:winsig.obj
 0002:0000dc04       $unwind$_flsbuf            0000000180034c04     LIBCMT:_flsbuf.obj
 0002:0000dc18       $unwind$__isa_available_init 0000000180034c18     LIBCMT:cpu_disp.obj
 0002:0000dc2c       $unwind$_NMSG_WRITE        0000000180034c2c     LIBCMT:crt0msg.obj
 0002:0000dc50       $unwind$?terminate@@YAXXZ  0000000180034c50     LIBCMT:hooks.obj
 0002:0000dc70       $unwind$?_inconsistency@@YAXXZ 0000000180034c70     LIBCMT:hooks.obj
 0002:0000dc90       $unwind$__C_specific_handler 0000000180034c90     LIBCMT:chandler.obj
 0002:0000dc90       $unwind$__init_numeric     0000000180034c90     LIBCMT:chandler.obj
 0002:0000dcac       $unwind$__updatetlocinfo   0000000180034cac     LIBCMT:localref.obj
 0002:0000dccc       $unwind$_freefls           0000000180034ccc     LIBCMT:tidtable.obj
 0002:0000dd00       $unwind$_initptd           0000000180034d00     LIBCMT:tidtable.obj
 0002:0000dd34       $unwind$_invalid_parameter_noinfo 0000000180034d34     LIBCMT:xtows.obj
 0002:0000dd34       $unwind$wctomb_s           0000000180034d34     LIBCMT:xtows.obj
 0002:0000dd34       $unwind$_cfltcvt_l         0000000180034d34     LIBCMT:xtows.obj
 0002:0000dd34       $unwind$_itow_s            0000000180034d34     LIBCMT:xtows.obj
 0002:0000dd34       $unwind$mbstowcs_s         0000000180034d34     LIBCMT:xtows.obj
 0002:0000dd34       $unwind$_vswprintf_c_l     0000000180034d34     LIBCMT:xtows.obj
 0002:0000dd3c       $unwind$fwprintf           0000000180034d3c     LIBCMT:fwprintf.obj
 0002:0000dd60       $unwind$_vswprintf_helper  0000000180034d60     LIBCMT:vswprnc.obj
 0002:0000dd60       $unwind$_vsnprintf_helper  0000000180034d60     LIBCMT:vswprnc.obj
 0002:0000dd78       $unwind$__crtMessageBoxW   0000000180034d78     LIBCMT:crtmboxw.obj
 0002:0000dd94       $unwind$__getlocaleinfo    0000000180034d94     LIBCMT:inithelp.obj
 0002:0000ddb4       $unwind$?_Type_info_dtor@type_info@@CAXPEAV1@@Z 0000000180034db4     LIBCMT:typname.obj
 0002:0000ddd4       $unwind$__updatetmbcinfo   0000000180034dd4     LIBCMT:mbctype.obj
 0002:0000ddf8       $unwind$_setmbcp           0000000180034df8     LIBCMT:mbctype.obj
 0002:0000de28       $unwind$_setmbcp_nolock    0000000180034e28     LIBCMT:mbctype.obj
 0002:0000de48       $unwind$?setSBUpLow@@YAXPEAUthreadmbcinfostruct@@@Z 0000000180034e48     LIBCMT:mbctype.obj
 0002:0000de64       $unwind$_wsetlocale        0000000180034e64     LIBCMT:wsetloca.obj
 0002:0000deb4       $unwind$_locterm           0000000180034eb4     LIBCMT:wsetloca.obj
 0002:0000ded4       $unwind$_expandlocale      0000000180034ed4     LIBCMT:wsetloca.obj
 0002:0000def4       $unwind$_wcscats           0000000180034ef4     LIBCMT:wsetloca.obj
 0002:0000df04       $unwind$__lc_wcstolc       0000000180034f04     LIBCMT:wsetloca.obj
 0002:0000df1c       $unwind$_wsetlocale_set_cat 0000000180034f1c     LIBCMT:wsetloca.obj
 0002:0000df40       $unwind$_wsetlocale_get_all 0000000180034f40     LIBCMT:wsetloca.obj
 0002:0000df5c       $unwind$_wsetlocale_nolock 0000000180034f5c     LIBCMT:wsetloca.obj
 0002:0000df80       $unwind$_ioinit            0000000180034f80     LIBCMT:ioinit.obj
 0002:0000dfc8       $unwind$_invalid_parameter 0000000180034fc8     LIBCMT:stdenvp.obj
 0002:0000dfc8       $unwind$__crtDownlevelLCIDToLocaleName 0000000180034fc8     LIBCMT:stdenvp.obj
 0002:0000dfc8       $unwind$_setenvp           0000000180034fc8     LIBCMT:stdenvp.obj
 0002:0000dfc8       $unwind$__lc_lctowcs       0000000180034fc8     LIBCMT:stdenvp.obj
 0002:0000dfdc       $unwind$__security_init_cookie 0000000180034fdc     LIBCMT:gs_support.obj
 0002:0000dfe8       $unwind$__crtGetStringTypeA 0000000180034fe8     LIBCMT:a_str.obj
 0002:0000dff8       $unwind$?__crtGetStringTypeA_stat@@YAHPEAUlocaleinfo_struct@@KPEBDHPEAGHH@Z 0000000180034ff8     LIBCMT:a_str.obj
 0002:0000e020       $unwind$__CxxCallCatchBlock 0000000180035020     LIBCMT:frame.obj
 0002:0000e060       $unwind$__FrameUnwindToState 0000000180035060     LIBCMT:frame.obj
 0002:0000e09c       $unwind$?FindHandler@@YAXPEAUEHExceptionRecord@@PEA_KPEAU_CONTEXT@@PEAU_xDISPATCHER_CONTEXT@@PEBU_s_FuncInfo@@EH1@Z 000000018003509c     LIBCMT:frame.obj
 0002:0000e0b8       $unwind$?CatchIt@@YAXPEAUEHExceptionRecord@@PEA_KPEAU_CONTEXT@@PEAU_xDISPATCHER_CONTEXT@@PEBU_s_FuncInfo@@PEBU_s_HandlerType@@PEBU_s_CatchableType@@PEBU_s_TryBlockMapEntry@@H1EE@Z 00000001800350b8     LIBCMT:frame.obj
 0002:0000e0d0       $unwind$__BuildCatchObject 00000001800350d0     LIBCMT:frame.obj
 0002:0000e0fc       $unwind$?FindHandlerForForeignException@@YAXPEAUEHExceptionRecord@@PEA_KPEAU_CONTEXT@@PEAU_xDISPATCHER_CONTEXT@@PEBU_s_FuncInfo@@HH1@Z 00000001800350fc     LIBCMT:frame.obj
 0002:0000e114       $unwind$__DestructExceptionObject 0000000180035114     LIBCMT:frame.obj
 0002:0000e134       $unwind$?IsInExceptionSpec@@YAEPEAUEHExceptionRecord@@PEBU_s_ESTypeList@@@Z 0000000180035134     LIBCMT:frame.obj
 0002:0000e150       $unwind$__InternalCxxFrameHandler 0000000180035150     LIBCMT:frame.obj
 0002:0000e168       $unwind$__BuildCatchObjectHelper 0000000180035168     LIBCMT:frame.obj
 0002:0000e198       $unwind$_cftoe2_l          0000000180035198     LIBCMT:cvt.obj
 0002:0000e1b4       $unwind$_cftoe_l           00000001800351b4     LIBCMT:cvt.obj
 0002:0000e1cc       $unwind$_cftoa_l           00000001800351cc     LIBCMT:cvt.obj
 0002:0000e1e8       $unwind$_cftof2_l          00000001800351e8     LIBCMT:cvt.obj
 0002:0000e1e8       $unwind$_wcsnicmp_l        00000001800351e8     LIBCMT:cvt.obj
 0002:0000e1e8       $unwind$__crtGetEnvironmentStringsA 00000001800351e8     LIBCMT:cvt.obj
 0002:0000e200       $unwind$_cftof_l           0000000180035200     LIBCMT:cvt.obj
 0002:0000e218       $unwind$_cftog_l           0000000180035218     LIBCMT:cvt.obj
 0002:0000e230       $unwind$_mbstowcs_s_l      0000000180035230     LIBCMT:mbstowcs.obj
 0002:0000e248       $unwind$_mbstowcs_l_helper 0000000180035248     LIBCMT:mbstowcs.obj
 0002:0000e264       $unwind$_wcstombs_l_helper 0000000180035264     LIBCMT:wcstombs.obj
 0002:0000e284       $unwind$_fcloseall         0000000180035284     LIBCMT:closeall.obj
 0002:0000e2ac       $unwind$_close             00000001800352ac     LIBCMT:close.obj
 0002:0000e2d4       $unwind$_commit            00000001800352d4     LIBCMT:commit.obj
 0002:0000e2fc       $unwind$_write             00000001800352fc     LIBCMT:write.obj
 0002:0000e328       $unwind$_write_nolock      0000000180035328     LIBCMT:write.obj
 0002:0000e34c       $unwind$_ftelli64          000000018003534c     LIBCMT:ftelli64.obj
 0002:0000e370       $unwind$_ftelli64_nolock   0000000180035370     LIBCMT:ftelli64.obj
 0002:0000e398       $unwind$_lseeki64          0000000180035398     LIBCMT:lseeki64.obj
 0002:0000e3c4       $unwind$_isctype_l         00000001800353c4     LIBCMT:isctype.obj
 0002:0000e3d8       $xdatasym                  00000001800353d8     LIBCMT:chkstk.obj
 0002:0000e3e0       $unwind$_cropzeros_l       00000001800353e0     LIBCMT:_wctype.obj
 0002:0000e3e0       $unwind$isleadbyte         00000001800353e0     LIBCMT:_wctype.obj
 0002:0000e3e0       $unwind$isdigit            00000001800353e0     LIBCMT:_wctype.obj
 0002:0000e3e0       $unwind$??2@YAPEAX_K@Z     00000001800353e0     LIBCMT:_wctype.obj
 0002:0000e3e0       $unwind$?getSystemCP@@YAHH@Z 00000001800353e0     LIBCMT:_wctype.obj
 0002:0000e3e0       $unwind$islower            00000001800353e0     LIBCMT:_wctype.obj
 0002:0000e3e0       $unwind$isupper            00000001800353e0     LIBCMT:_wctype.obj
 0002:0000e3e0       $unwind$_forcdecpt_l       00000001800353e0     LIBCMT:_wctype.obj
 0002:0000e3e0       $unwind$_isleadbyte_l      00000001800353e0     LIBCMT:_wctype.obj
 0002:0000e3e8       $unwind$_IsNonwritableInCurrentImage 00000001800353e8     LIBCMT:pesect.obj
 0002:0000e40c       $unwind$_ftbuf             000000018003540c     LIBCMT:_sftbuf.obj
 0002:0000e414       $unwind$_output_s_l        0000000180035414     LIBCMT:outputs.obj
 0002:0000e438       $unwind$write_multi_char   0000000180035438     LIBCMT:outputs.obj
 0002:0000e438       $unwind$write_multi_char   0000000180035438     LIBCMT:outputs.obj
 0002:0000e44c       $unwind$_wctomb_s_l        000000018003544c     LIBCMT:wctomb.obj
 0002:0000e460       $xdatasym                  0000000180035460     LIBCMT:jmpuwind.obj
 0002:0000e474       $unwind$__init_monetary    0000000180035474     LIBCMT:initmon.obj
 0002:0000e490       $unwind$__init_time        0000000180035490     LIBCMT:inittime.obj
 0002:0000e4a0       $unwind$_get_lc_time       00000001800354a0     LIBCMT:inittime.obj
 0002:0000e4b8       $unwind$__free_lconv_mon   00000001800354b8     LIBCMT:inittime.obj
 0002:0000e4b8       $unwind$__free_lc_time     00000001800354b8     LIBCMT:inittime.obj
 0002:0000e4c0       $unwind$_woutput_l         00000001800354c0     LIBCMT:woutput.obj
 0002:0000e4e4       $unwind$write_string       00000001800354e4     LIBCMT:woutput.obj
 0002:0000e4e4       $unwind$write_string       00000001800354e4     LIBCMT:woutput.obj
 0002:0000e4fc       $unwind$__crtGetLocaleInfoA 00000001800354fc     LIBCMT:a_loc.obj
 0002:0000e50c       $unwind$?__crtGetLocaleInfoA_stat@@YAHPEAUlocaleinfo_struct@@PEB_WKPEADH@Z 000000018003550c     LIBCMT:a_loc.obj
 0002:0000e538       $xdatasym                  0000000180035538     LIBCMT:fpsr.obj
 0002:0000e540       $unwind$__get_qualified_locale 0000000180035540     LIBCMT:getqloc.obj
 0002:0000e560       $unwind$LangCountryEnumProcEx 0000000180035560     LIBCMT:getqloc.obj
 0002:0000e580       $unwind$LanguageEnumProcEx 0000000180035580     LIBCMT:getqloc.obj
 0002:0000e598       $unwind$TestDefaultCountry 0000000180035598     LIBCMT:getqloc.obj
 0002:0000e5ac       $unwind$__get_qualified_locale_downlevel 00000001800355ac     LIBCMT:getqloc_downlevel.obj
 0002:0000e5c8       $unwind$TranslateName      00000001800355c8     LIBCMT:getqloc_downlevel.obj
 0002:0000e5c8       $unwind$parse_cmdline      00000001800355c8     LIBCMT:getqloc_downlevel.obj
 0002:0000e5c8       $unwind$TranslateName      00000001800355c8     LIBCMT:getqloc_downlevel.obj
 0002:0000e5c8       $unwind$?_GetRangeOfTrysToCheck@@YAPEBU_s_TryBlockMapEntry@@PEA_KPEBU_s_FuncInfo@@HHPEAI2PEAU_xDISPATCHER_CONTEXT@@@Z 00000001800355c8     LIBCMT:getqloc_downlevel.obj
 0002:0000e5e4       $unwind$LangCountryEnumProc 00000001800355e4     LIBCMT:getqloc_downlevel.obj
 0002:0000e604       $unwind$LanguageEnumProc   0000000180035604     LIBCMT:getqloc_downlevel.obj
 0002:0000e620       $unwind$CountryEnumProc    0000000180035620     LIBCMT:getqloc_downlevel.obj
 0002:0000e640       $unwind$TestDefaultLanguage 0000000180035640     LIBCMT:getqloc_downlevel.obj
 0002:0000e658       $xdatasym                  0000000180035658     LIBCMT:handlers.obj
 0002:0000e660       $unwind$_atodbl_l          0000000180035660     LIBCMT:atodbl.obj
 0002:0000e674       $unwind$__crt_atoflt_l     0000000180035674     LIBCMT:atodbl.obj
 0002:0000e688       $unwind$_fltout2           0000000180035688     LIBCMT:cfout.obj
 0002:0000e6a0       $unwind$__dtold            00000001800356a0     LIBCMT:cfout.obj
 0002:0000e6a8       $unwind$_stbuf             00000001800356a8     LIBCMT:osfinfo.obj
 0002:0000e6a8       $unwind$_free_osfhnd       00000001800356a8     LIBCMT:osfinfo.obj
 0002:0000e6b8       $unwind$__lock_fhandle     00000001800356b8     LIBCMT:osfinfo.obj
 0002:0000e6e4       $unwind$_mbtowc_l          00000001800356e4     LIBCMT:mbtowc.obj
 0002:0000e6fc       $unwind$_read              00000001800356fc     LIBCMT:read.obj
 0002:0000e72c       $unwind$_read_nolock       000000018003572c     LIBCMT:read.obj
 0002:0000e744       $unwind$_towlower_l        0000000180035744     LIBCMT:towlower.obj
 0002:0000e750       $unwind$_fputwc_nolock     0000000180035750     LIBCMT:fputwc.obj
 0002:0000e76c       $unwind$?wcstoxl@@YAKPEB_WPEAPEB_WHH@Z 000000018003576c     LIBCMT:wcstol.obj
 0002:0000e784       $unwind$strrchr            0000000180035784     LIBCMT:wcschr.obj
 0002:0000e784       $unwind$wcschr             0000000180035784     LIBCMT:wcschr.obj
 0002:0000e78c       $unwind$_ld12tof           000000018003578c     LIBCMT:intrncvt.obj
 0002:0000e78c       $unwind$_ld12tod           000000018003578c     LIBCMT:intrncvt.obj
 0002:0000e7b0       $unwind$__strgtold12_l     00000001800357b0     LIBCMT:strgtold.obj
 0002:0000e7d4       $unwind$$I10_OUTPUT        00000001800357d4     LIBCMT:x10fout.obj
 0002:0000e7f8       $unwind$_flswbuf           00000001800357f8     LIBCMT:_flswbuf.obj
 0002:0000e80c       $unwind$__mtold12          000000018003580c     LIBCMT:mantold.obj
 0002:0000e824       $unwind$__delayLoadHelper2 0000000180035824     DelayImp:delayhlp.obj
 0002:0000fe80       .edata                     0000000180036e80     midi.exp
 0002:0000fea8       rgpv                       0000000180036ea8     midi.exp
 0002:0000feac       rgszName                   0000000180036eac     midi.exp
 0002:0000feb0       rgwOrd                     0000000180036eb0     midi.exp
 0002:0000feb2       szName                     0000000180036eb2     midi.exp
 0002:0000febc       $N00001                    0000000180036ebc     midi.exp
 0002:0001028c       .idata$6                   000000018003728c     kernel32:KERNEL32.dll
 0002:000103f6       .idata$6                   00000001800373f6     winmm:WINMM.dll
 0003:00000004       init                       0000000180038004     libcpmt:xlock.obj
 0003:00000010       atcount_cdecl              0000000180038010     libcpmt:iosptrs.obj
 0003:00000290       _assertstring              0000000180038290     LIBCMT:wassert.obj
 0003:000002e0       dotdotdot                  00000001800382e0     LIBCMT:wassert.obj
 0003:000002e8       newline                    00000001800382e8     LIBCMT:wassert.obj
 0003:000002f0       dblnewline                 00000001800382f0     LIBCMT:wassert.obj
 0003:00000300       errtable                   0000000180038300     LIBCMT:dosmap.obj
 0003:00000468       ErrnoNoMem                 0000000180038468     LIBCMT:dosmap.obj
 0003:0000046c       DoserrorNoMem              000000018003846c     LIBCMT:dosmap.obj
 0003:00000850       _locktable                 0000000180038850     LIBCMT:mlock.obj
 0003:00000aa0       ?isPackaged@?1??__crtIsPackagedApp@@9@9 0000000180038aa0     LIBCMT:winapisupp.obj
 0003:00000f0c       ?dazSupported@?1??_ctrlfp@@9@9 0000000180038f0c     LIBCMT:fpctrl.obj
 0003:00001348       __rgctypeflag              0000000180039348     LIBCMT:mbctype.obj
 0003:00001350       __rgcode_page_info         0000000180039350     LIBCMT:mbctype.obj
 0003:00001448       _ctype_loc_style           0000000180039448     LIBCMT:wsetloca.obj
 0003:00001530       ?_names@?1??_get_fname@@9@9 0000000180039530     LIBCMT:fpexcept.obj
 0003:00001700       dststart                   0000000180039700     LIBCMT:tzset.obj
 0003:00001710       dstend                     0000000180039710     LIBCMT:tzset.obj
 0003:00001730       tzstd                      0000000180039730     LIBCMT:timeset.obj
 0003:00001770       tzdst                      0000000180039770     LIBCMT:timeset.obj
 0003:00001940       DoubleFormat               0000000180039940     LIBCMT:intrncvt.obj
 0003:00001958       FloatFormat                0000000180039958     LIBCMT:intrncvt.obj
 0003:00001c50       _module                    0000000180039c50     node-midi.obj
 0003:00002428       allocator_arg              000000018003a428     libcpmt:syserror.obj
 0003:00002429       piecewise_construct        000000018003a429     libcpmt:syserror.obj
 0003:00002438       global_locale              000000018003a438     libcpmt:locale0.obj
 0003:00002448       _Fac_head                  000000018003a448     libcpmt:locale0.obj
 0003:00002468       allocator_arg              000000018003a468     libcpmt:locale0.obj
 0003:00002469       piecewise_construct        000000018003a469     libcpmt:locale0.obj
 0003:0000246a       _Fac_tidy_reg              000000018003a46a     libcpmt:locale0.obj
 0003:00002470       classic_locale             000000018003a470     libcpmt:locale0.obj
 0003:00002488       ?registered@?1??_Setgloballocale@locale@std@@CAXPEAX@Z@4_NA 000000018003a488     libcpmt:locale0.obj
 0003:000024a0       stdstr                     000000018003a4a0     libcpmt:ios.obj
 0003:000024f0       stdopens                   000000018003a4f0     libcpmt:ios.obj
 0003:000024fa       allocator_arg              000000018003a4fa     libcpmt:ios.obj
 0003:000024fb       piecewise_construct        000000018003a4fb     libcpmt:ios.obj
 0003:00002508       _Tuple_alloc               000000018003a508     libcpmt:xthrow.obj
 0003:00002509       ignore                     000000018003a509     libcpmt:xthrow.obj
 0003:0000250a       allocator_arg              000000018003a50a     libcpmt:xthrow.obj
 0003:0000250b       piecewise_construct        000000018003a50b     libcpmt:xthrow.obj
 0003:00002510       ferr                       000000018003a510     libcpmt:cerr.obj
 0003:000025a8       init_cerr                  000000018003a5a8     libcpmt:cerr.obj
 0003:000025a9       allocator_arg              000000018003a5a9     libcpmt:cerr.obj
 0003:000025aa       piecewise_construct        000000018003a5aa     libcpmt:cerr.obj
 0003:000025ab       initlocks                  000000018003a5ab     libcpmt:cerr.obj
 0003:00002640       initlocks                  000000018003a640     libcpmt:xlock.obj
 0003:00002650       mtx                        000000018003a650     libcpmt:xlock.obj
 0003:00002730       atfuns_cdecl               000000018003a730     libcpmt:iosptrs.obj
 0003:00002780       initlocks                  000000018003a780     libcpmt:iosptrs.obj
 0003:00002781       allocator_arg              000000018003a781     libcpmt:iosptrs.obj
 0003:00002782       piecewise_construct        000000018003a782     libcpmt:iosptrs.obj
 0003:00002783       init_atexit                000000018003a783     libcpmt:iosptrs.obj
 0003:00002784       allocator_arg              000000018003a784     libcpmt:locale.obj
 0003:00002785       piecewise_construct        000000018003a785     libcpmt:locale.obj
 0003:00002790       allocator_arg              000000018003a790     libcpmt:wlocale.obj
 0003:00002791       piecewise_construct        000000018003a791     libcpmt:wlocale.obj
 0003:00002840       allocator_arg              000000018003a840     libcpmt:xlocale.obj
 0003:00002841       piecewise_construct        000000018003a841     libcpmt:xlocale.obj
 0003:00002888       allocator_arg              000000018003a888     libcpmt:xdateord.obj
 0003:00002889       piecewise_construct        000000018003a889     libcpmt:xdateord.obj
 0003:000028b0       __proc_attached            000000018003a8b0     LIBCMT:dllcrt0.obj
 0003:000028d0       lclcritsects               000000018003a8d0     LIBCMT:mlock.obj
 0003:00002b08       __crtCallProc              000000018003ab08     LIBCMT:winapinls.obj
 0003:00002b10       GS_ExceptionRecord         000000018003ab10     LIBCMT:gs_report.obj
 0003:00002bb0       GS_ContextRecord           000000018003abb0     LIBCMT:gs_report.obj
 0003:00003080       DebuggerWasPresent         000000018003b080     LIBCMT:gs_report.obj
 0003:000030e0       ctrlc_action               000000018003b0e0     LIBCMT:winsig.obj
 0003:000030e8       ctrlbreak_action           000000018003b0e8     LIBCMT:winsig.obj
 0003:000030f0       abort_action               000000018003b0f0     LIBCMT:winsig.obj
 0003:000030f8       term_action                000000018003b0f8     LIBCMT:winsig.obj
 0003:00003100       ConsoleCtrlHandler_Installed 000000018003b100     LIBCMT:winsig.obj
 0003:00003130       ?outmsg@?8??_NMSG_WRITE@@9@9 000000018003b130     LIBCMT:crt0msg.obj
 0003:00003770       ?pfnMessageBox@?1??__crtMessageBoxW@@9@9 000000018003b770     LIBCMT:crtmboxw.obj
 0003:00003778       ?pfnGetActiveWindow@?1??__crtMessageBoxW@@9@9 000000018003b778     LIBCMT:crtmboxw.obj
 0003:00003780       ?pfnGetLastActivePopup@?1??__crtMessageBoxW@@9@9 000000018003b780     LIBCMT:crtmboxw.obj
 0003:00003788       ?pfnGetProcessWindowStation@?1??__crtMessageBoxW@@9@9 000000018003b788     LIBCMT:crtmboxw.obj
 0003:00003790       ?pfnGetUserObjectInformation@?1??__crtMessageBoxW@@9@9 000000018003b790     LIBCMT:crtmboxw.obj
 0003:000037a0       __type_info_root_node      000000018003b7a0     LIBCMT:typname.obj
 0003:000037d0       fSystemSet                 000000018003b7d0     LIBCMT:mbctype.obj
 0003:000039e0       ?_pgmname@?1??_setargv@@9@9 000000018003b9e0     LIBCMT:stdargv.obj
 0003:00003af0       lastTZ                     000000018003baf0     LIBCMT:tzset.obj
 0003:00003af8       ?first_time@?1??__tzset@@9@9 000000018003baf8     LIBCMT:tzset.obj
 0003:00003afc       tzapiused                  000000018003bafc     LIBCMT:tzset.obj
 0003:00003b00       tzinfo                     000000018003bb00     LIBCMT:tzset.obj
 0003:00003bb0       g_pfnRtlGenRandom          000000018003bbb0     LIBCMT:rand_s.obj
 0003:00003bc8       __enable_percent_n         000000018003bbc8     LIBCMT:printf.obj
 0003:00003c18       heap                       000000018003bc18     LIBCMT:undname.obj
 0003:00003c50       ?firstErrorOccured@?4??error@MidiApi@@QEAAXW4Type@RtMidiError@@V?$basic_string@DU?$char_traits@D@std@@V?$allocator@D@2@@std@@@Z@4_NA 000000018003bc50     node-midi.obj
 0003:00003ca0       allocator_arg              000000018003bca0     node-midi.obj
 0003:00003ca1       piecewise_construct        000000018003bca1     node-midi.obj
 0004:00000000       $pdata$??__Ecerr@std@@YAXXZ 000000018003d000     libcpmt:cerr.obj
 0004:0000000c       $pdata$??__Eferr@std@@YAXXZ 000000018003d00c     libcpmt:cerr.obj
 0004:00000018       $pdata$??__Einitlocks@@YAXXZ 000000018003d018     libcpmt:cerr.obj
 0004:00000024       $pdata$??__Einitlocks@std@@YAXXZ 000000018003d024     libcpmt:xlock.obj
 0004:00000030       $pdata$??__Einitlocks@std@@YAXXZ 000000018003d030     libcpmt:iosptrs.obj
 0004:0000003c       $pdata$?_Raise@exception@stdext@@QEBAXXZ 000000018003d03c     node-midi.obj
 0004:00000048       $pdata$??_Gexception@stdext@@UEAAPEAXI@Z 000000018003d048     node-midi.obj
 0004:00000048       $pdata$??_Gruntime_error@std@@UEAAPEAXI@Z 000000018003d048     node-midi.obj
 0004:00000048       $pdata$??_Gsystem_error@std@@UEAAPEAXI@Z 000000018003d048     node-midi.obj
 0004:00000048       $pdata$??_Gfailure@ios_base@std@@UEAAPEAXI@Z 000000018003d048     node-midi.obj
 0004:00000048       $pdata$??_G_System_error@std@@UEAAPEAXI@Z 000000018003d048     node-midi.obj
 0004:00000054       $pdata$??0_Locinfo@std@@QEAA@PEBD@Z 000000018003d054     node-midi.obj
 0004:00000060       $pdata$??1_Locinfo@std@@QEAA@XZ 000000018003d060     node-midi.obj
 0004:0000006c       $pdata$??_G?$num_put@DV?$ostreambuf_iterator@DU?$char_traits@D@std@@@std@@@std@@MEAAPEAXI@Z 000000018003d06c     node-midi.obj
 0004:0000006c       $pdata$??_G_Facet_base@std@@UEAAPEAXI@Z 000000018003d06c     node-midi.obj
 0004:0000006c       $pdata$??_G?$codecvt@DDH@std@@MEAAPEAXI@Z 000000018003d06c     libcpmt:cerr.obj
 0004:00000078       $pdata$??1locale@std@@QEAA@XZ 000000018003d078     node-midi.obj
 0004:00000084       $pdata$?_Getcat@?$ctype@D@std@@SA_KPEAPEBVfacet@locale@2@PEBV42@@Z 000000018003d084     node-midi.obj
 0004:00000090       $pdata$?do_tolower@?$ctype@D@std@@MEBAPEBDPEADPEBD@Z 000000018003d090     node-midi.obj
 0004:0000009c       $pdata$0$?do_tolower@?$ctype@D@std@@MEBAPEBDPEADPEBD@Z 000000018003d09c     node-midi.obj
 0004:000000a8       $pdata$1$?do_tolower@?$ctype@D@std@@MEBAPEBDPEADPEBD@Z 000000018003d0a8     node-midi.obj
 0004:000000b4       $pdata$?do_toupper@?$ctype@D@std@@MEBAPEBDPEADPEBD@Z 000000018003d0b4     node-midi.obj
 0004:000000c0       $pdata$0$?do_toupper@?$ctype@D@std@@MEBAPEBDPEADPEBD@Z 000000018003d0c0     node-midi.obj
 0004:000000cc       $pdata$1$?do_toupper@?$ctype@D@std@@MEBAPEBDPEADPEBD@Z 000000018003d0cc     node-midi.obj
 0004:000000d8       $pdata$?do_widen@?$ctype@D@std@@MEBAPEBDPEBD0PEAD@Z 000000018003d0d8     node-midi.obj
 0004:000000e4       $pdata$?do_narrow@?$ctype@D@std@@MEBAPEBDPEBD0DPEAD@Z 000000018003d0e4     node-midi.obj
 0004:000000f0       $pdata$??_G?$ctype@D@std@@MEAAPEAXI@Z 000000018003d0f0     node-midi.obj
 0004:000000fc       $pdata$?message@error_code@std@@QEBA?AV?$basic_string@DU?$char_traits@D@std@@V?$allocator@D@2@@2@XZ 000000018003d0fc     node-midi.obj
 0004:00000108       $pdata$?_Makestr@_System_error@std@@CA?AV?$basic_string@DU?$char_traits@D@std@@V?$allocator@D@2@@2@Verror_code@2@V32@@Z 000000018003d108     node-midi.obj
 0004:00000114       $pdata$??0system_error@std@@QEAA@Verror_code@1@PEBD@Z 000000018003d114     node-midi.obj
 0004:00000120       $pdata$?clear@ios_base@std@@QEAAXH_N@Z 000000018003d120     node-midi.obj
 0004:0000012c       $pdata$?getloc@ios_base@std@@QEBA?AVlocale@2@XZ 000000018003d12c     node-midi.obj
 0004:00000138       $pdata$?_Init@ios_base@std@@IEAAXXZ 000000018003d138     node-midi.obj
 0004:00000144       $pdata$??_G?$basic_ios@DU?$char_traits@D@std@@@std@@UEAAPEAXI@Z 000000018003d144     node-midi.obj
 0004:00000144       $pdata$??_Gios_base@std@@UEAAPEAXI@Z 000000018003d144     node-midi.obj
 0004:00000150       $pdata$?FunctionCallbackWrapper@imp@Nan@@YAXAEBV?$FunctionCallbackInfo@VValue@v8@@@v8@@@Z 000000018003d150     node-midi.obj
 0004:0000015c       $pdata$?New@?$Factory@VFunctionTemplate@v8@@@imp@Nan@@SA?AV?$Local@VFunctionTemplate@v8@@@v8@@P6AXAEBV?$FunctionCallbackInfo@VValue@v8@@@3@@ZV?$Local@VValue@v8@@@5@V?$Local@VSignature@v8@@@5@@Z 000000018003d15c     node-midi.obj
 0004:00000168       $pdata$??1ObjectWrap@Nan@@UEAA@XZ 000000018003d168     node-midi.obj
 0004:00000174       $pdata$?Wrap@ObjectWrap@Nan@@IEAAXV?$Local@VObject@v8@@@v8@@@Z 000000018003d174     node-midi.obj
 0004:00000180       $pdata$?Ref@ObjectWrap@Nan@@MEAAXXZ 000000018003d180     node-midi.obj
 0004:0000018c       $pdata$?Unref@ObjectWrap@Nan@@MEAAXXZ 000000018003d18c     node-midi.obj
 0004:00000198       $pdata$?WeakCallback@ObjectWrap@Nan@@CAXAEBV?$WeakCallbackInfo@VObjectWrap@Nan@@@v8@@@Z 000000018003d198     node-midi.obj
 0004:000001a4       $pdata$??_GObjectWrap@Nan@@UEAAPEAXI@Z 000000018003d1a4     node-midi.obj
 0004:000001b0       $pdata$??1RtMidiError@@UEAA@XZ 000000018003d1b0     node-midi.obj
 0004:000001bc       $pdata$?printMessage@RtMidiError@@UEBAXXZ 000000018003d1bc     node-midi.obj
 0004:000001c8       $pdata$??_GRtMidiError@@UEAAPEAXI@Z 000000018003d1c8     node-midi.obj
 0004:000001d4       $pdata$??1MidiMessage@MidiInApi@@QEAA@XZ 000000018003d1d4     node-midi.obj
 0004:000001d4       $pdata$??1?$vector@W4Api@RtMidi@@V?$allocator@W4Api@RtMidi@@@std@@@std@@QEAA@XZ 000000018003d1d4     node-midi.obj
 0004:000001d4       $pdata$??1?$vector@EV?$allocator@E@std@@@std@@QEAA@XZ 000000018003d1d4     node-midi.obj
 0004:000001e0       $pdata$?openPort@RtMidiOut@@UEAAXIV?$basic_string@DU?$char_traits@D@std@@V?$allocator@D@2@@std@@@Z 000000018003d1e0     node-midi.obj
 0004:000001e0       $pdata$?openPort@RtMidiIn@@UEAAXIV?$basic_string@DU?$char_traits@D@std@@V?$allocator@D@2@@std@@@Z 000000018003d1e0     node-midi.obj
 0004:000001ec       $pdata$?openVirtualPort@RtMidiOut@@UEAAXV?$basic_string@DU?$char_traits@D@std@@V?$allocator@D@2@@std@@@Z 000000018003d1ec     node-midi.obj
 0004:000001ec       $pdata$?openVirtualPort@RtMidiIn@@UEAAXV?$basic_string@DU?$char_traits@D@std@@V?$allocator@D@2@@std@@@Z 000000018003d1ec     node-midi.obj
 0004:000001f8       $pdata$?getPortName@RtMidiOut@@UEAA?AV?$basic_string@DU?$char_traits@D@std@@V?$allocator@D@2@@std@@I@Z 000000018003d1f8     node-midi.obj
 0004:000001f8       $pdata$?getPortName@RtMidiIn@@UEAA?AV?$basic_string@DU?$char_traits@D@std@@V?$allocator@D@2@@std@@I@Z 000000018003d1f8     node-midi.obj
 0004:00000204       $pdata$??_GRtMidi@@MEAAPEAXI@Z 000000018003d204     node-midi.obj
 0004:00000204       $pdata$??_GRtMidiIn@@UEAAPEAXI@Z 000000018003d204     node-midi.obj
 0004:00000204       $pdata$??_GRtMidiOut@@UEAAPEAXI@Z 000000018003d204     node-midi.obj
 0004:00000210       $pdata$??1RtMidi@@MEAA@XZ  000000018003d210     node-midi.obj
 0004:0000021c       $pdata$?openMidiApi@RtMidiIn@@IEAAXW4Api@RtMidi@@V?$basic_string@DU?$char_traits@D@std@@V?$allocator@D@2@@std@@I@Z 000000018003d21c     node-midi.obj
 0004:00000228       $pdata$??0RtMidiIn@@QEAA@W4Api@RtMidi@@V?$basic_string@DU?$char_traits@D@std@@V?$allocator@D@2@@std@@I@Z 000000018003d228     node-midi.obj
 0004:00000234       $pdata$??0RtMidiError@@QEAA@AEBV0@@Z 000000018003d234     node-midi.obj
 0004:00000240       $pdata$?openMidiApi@RtMidiOut@@IEAAXW4Api@RtMidi@@V?$basic_string@DU?$char_traits@D@std@@V?$allocator@D@2@@std@@@Z 000000018003d240     node-midi.obj
 0004:0000024c       $pdata$??0RtMidiOut@@QEAA@W4Api@RtMidi@@V?$basic_string@DU?$char_traits@D@std@@V?$allocator@D@2@@std@@@Z 000000018003d24c     node-midi.obj
 0004:00000258       $pdata$??_GMidiApi@@UEAAPEAXI@Z 000000018003d258     node-midi.obj
 0004:00000264       $pdata$??1MidiOutApi@@UEAA@XZ 000000018003d264     node-midi.obj
 0004:00000264       $pdata$??1MidiApi@@UEAA@XZ 000000018003d264     node-midi.obj
 0004:00000270       $pdata$?error@MidiApi@@QEAAXW4Type@RtMidiError@@V?$basic_string@DU?$char_traits@D@std@@V?$allocator@D@2@@std@@@Z 000000018003d270     node-midi.obj
 0004:0000027c       $pdata$??0MidiInApi@@QEAA@I@Z 000000018003d27c     node-midi.obj
 0004:00000288       $pdata$??_GMidiInApi@@UEAAPEAXI@Z 000000018003d288     node-midi.obj
 0004:00000294       $pdata$??1RtMidiInData@MidiInApi@@QEAA@XZ 000000018003d294     node-midi.obj
 0004:000002a0       $pdata$??1MidiInApi@@UEAA@XZ 000000018003d2a0     node-midi.obj
 0004:000002ac       $pdata$?setCallback@MidiInApi@@QEAAXP6AXNPEAV?$vector@EV?$allocator@E@std@@@std@@PEAX@Z1@Z 000000018003d2ac     node-midi.obj
 0004:000002b8       $pdata$?cancelCallback@MidiInApi@@QEAAXXZ 000000018003d2b8     node-midi.obj
 0004:000002c4       $pdata$0$?cancelCallback@MidiInApi@@QEAAXXZ 000000018003d2c4     node-midi.obj
 0004:000002d0       $pdata$1$?cancelCallback@MidiInApi@@QEAAXXZ 000000018003d2d0     node-midi.obj
 0004:000002dc       $pdata$?midiInputCallback@@YAXPEAUHMIDIIN__@@I_K1K@Z 000000018003d2dc     node-midi.obj
 0004:000002e8       $pdata$3$?midiInputCallback@@YAXPEAUHMIDIIN__@@I_K1K@Z 000000018003d2e8     node-midi.obj
 0004:000002f4       $pdata$4$?midiInputCallback@@YAXPEAUHMIDIIN__@@I_K1K@Z 000000018003d2f4     node-midi.obj
 0004:00000300       $pdata$5$?midiInputCallback@@YAXPEAUHMIDIIN__@@I_K1K@Z 000000018003d300     node-midi.obj
 0004:0000030c       $pdata$6$?midiInputCallback@@YAXPEAUHMIDIIN__@@I_K1K@Z 000000018003d30c     node-midi.obj
 0004:00000318       $pdata$??0MidiInWinMM@@QEAA@V?$basic_string@DU?$char_traits@D@std@@V?$allocator@D@2@@std@@I@Z 000000018003d318     node-midi.obj
 0004:00000324       $pdata$??_GMidiInWinMM@@UEAAPEAXI@Z 000000018003d324     node-midi.obj
 0004:00000330       $pdata$??1MidiInWinMM@@UEAA@XZ 000000018003d330     node-midi.obj
 0004:0000033c       $pdata$?initialize@MidiInWinMM@@MEAAXAEBV?$basic_string@DU?$char_traits@D@std@@V?$allocator@D@2@@std@@@Z 000000018003d33c     node-midi.obj
 0004:00000348       $pdata$?openPort@MidiInWinMM@@UEAAXIV?$basic_string@DU?$char_traits@D@std@@V?$allocator@D@2@@std@@@Z 000000018003d348     node-midi.obj
 0004:00000354       $pdata$??_D?$basic_ostringstream@DU?$char_traits@D@std@@V?$allocator@D@2@@std@@QEAAXXZ 000000018003d354     node-midi.obj
 0004:00000360       $pdata$?openVirtualPort@MidiInWinMM@@UEAAXV?$basic_string@DU?$char_traits@D@std@@V?$allocator@D@2@@std@@@Z 000000018003d360     node-midi.obj
 0004:0000036c       $pdata$?closePort@MidiInWinMM@@UEAAXXZ 000000018003d36c     node-midi.obj
 0004:00000378       $pdata$4$?closePort@MidiInWinMM@@UEAAXXZ 000000018003d378     node-midi.obj
 0004:00000384       $pdata$5$?closePort@MidiInWinMM@@UEAAXXZ 000000018003d384     node-midi.obj
 0004:00000390       $pdata$?getPortName@MidiInWinMM@@UEAA?AV?$basic_string@DU?$char_traits@D@std@@V?$allocator@D@2@@std@@I@Z 000000018003d390     node-midi.obj
 0004:0000039c       $pdata$??0MidiOutWinMM@@QEAA@V?$basic_string@DU?$char_traits@D@std@@V?$allocator@D@2@@std@@@Z 000000018003d39c     node-midi.obj
 0004:000003a8       $pdata$??_GMidiOutWinMM@@UEAAPEAXI@Z 000000018003d3a8     node-midi.obj
 0004:000003b4       $pdata$??1MidiOutWinMM@@UEAA@XZ 000000018003d3b4     node-midi.obj
 0004:000003c0       $pdata$?initialize@MidiOutWinMM@@MEAAXAEBV?$basic_string@DU?$char_traits@D@std@@V?$allocator@D@2@@std@@@Z 000000018003d3c0     node-midi.obj
 0004:000003cc       $pdata$?getPortName@MidiOutWinMM@@UEAA?AV?$basic_string@DU?$char_traits@D@std@@V?$allocator@D@2@@std@@I@Z 000000018003d3cc     node-midi.obj
 0004:000003d8       $pdata$?openPort@MidiOutWinMM@@UEAAXIV?$basic_string@DU?$char_traits@D@std@@V?$allocator@D@2@@std@@@Z 000000018003d3d8     node-midi.obj
 0004:000003e4       $pdata$?closePort@MidiOutWinMM@@UEAAXXZ 000000018003d3e4     node-midi.obj
 0004:000003f0       $pdata$0$?closePort@MidiOutWinMM@@UEAAXXZ 000000018003d3f0     node-midi.obj
 0004:000003fc       $pdata$1$?closePort@MidiOutWinMM@@UEAAXXZ 000000018003d3fc     node-midi.obj
 0004:00000408       $pdata$?openVirtualPort@MidiOutWinMM@@UEAAXV?$basic_string@DU?$char_traits@D@std@@V?$allocator@D@2@@std@@@Z 000000018003d408     node-midi.obj
 0004:00000414       $pdata$?sendMessage@MidiOutWinMM@@UEAAXPEAV?$vector@EV?$allocator@E@std@@@std@@@Z 000000018003d414     node-midi.obj
 0004:00000420       $pdata$0$?sendMessage@MidiOutWinMM@@UEAAXPEAV?$vector@EV?$allocator@E@std@@@std@@@Z 000000018003d420     node-midi.obj
 0004:0000042c       $pdata$1$?sendMessage@MidiOutWinMM@@UEAAXPEAV?$vector@EV?$allocator@E@std@@@std@@@Z 000000018003d42c     node-midi.obj
 0004:00000438       $pdata$2$?sendMessage@MidiOutWinMM@@UEAAXPEAV?$vector@EV?$allocator@E@std@@@std@@@Z 000000018003d438     node-midi.obj
 0004:00000444       $pdata$3$?sendMessage@MidiOutWinMM@@UEAAXPEAV?$vector@EV?$allocator@E@std@@@std@@@Z 000000018003d444     node-midi.obj
 0004:00000450       $pdata$4$?sendMessage@MidiOutWinMM@@UEAAXPEAV?$vector@EV?$allocator@E@std@@@std@@@Z 000000018003d450     node-midi.obj
 0004:0000045c       $pdata$5$?sendMessage@MidiOutWinMM@@UEAAXPEAV?$vector@EV?$allocator@E@std@@@std@@@Z 000000018003d45c     node-midi.obj
 0004:00000468       $pdata$6$?sendMessage@MidiOutWinMM@@UEAAXPEAV?$vector@EV?$allocator@E@std@@@std@@@Z 000000018003d468     node-midi.obj
 0004:00000474       $pdata$7$?sendMessage@MidiOutWinMM@@UEAAXPEAV?$vector@EV?$allocator@E@std@@@std@@@Z 000000018003d474     node-midi.obj
 0004:00000480       $pdata$8$?sendMessage@MidiOutWinMM@@UEAAXPEAV?$vector@EV?$allocator@E@std@@@std@@@Z 000000018003d480     node-midi.obj
 0004:0000048c       $pdata$9$?sendMessage@MidiOutWinMM@@UEAAXPEAV?$vector@EV?$allocator@E@std@@@std@@@Z 000000018003d48c     node-midi.obj
 0004:00000498       $pdata$?Init@NodeMidiOutput@@SAXV?$Local@VObject@v8@@@v8@@@Z 000000018003d498     node-midi.obj
 0004:000004a4       $pdata$??0NodeMidiOutput@@QEAA@XZ 000000018003d4a4     node-midi.obj
 0004:000004b0       $pdata$?New@NodeMidiOutput@@SAXAEBV?$FunctionCallbackInfo@VValue@v8@@@Nan@@@Z 000000018003d4b0     node-midi.obj
 0004:000004bc       $pdata$?GetPortCount@NodeMidiOutput@@SAXAEBV?$FunctionCallbackInfo@VValue@v8@@@Nan@@@Z 000000018003d4bc     node-midi.obj
 0004:000004bc       $pdata$?GetPortCount@NodeMidiInput@@SAXAEBV?$FunctionCallbackInfo@VValue@v8@@@Nan@@@Z 000000018003d4bc     node-midi.obj
 0004:000004c8       $pdata$?GetPortName@NodeMidiInput@@SAXAEBV?$FunctionCallbackInfo@VValue@v8@@@Nan@@@Z 000000018003d4c8     node-midi.obj
 0004:000004c8       $pdata$?GetPortName@NodeMidiOutput@@SAXAEBV?$FunctionCallbackInfo@VValue@v8@@@Nan@@@Z 000000018003d4c8     node-midi.obj
 0004:000004d4       $pdata$?OpenPort@NodeMidiOutput@@SAXAEBV?$FunctionCallbackInfo@VValue@v8@@@Nan@@@Z 000000018003d4d4     node-midi.obj
 0004:000004e0       $pdata$?OpenVirtualPort@NodeMidiOutput@@SAXAEBV?$FunctionCallbackInfo@VValue@v8@@@Nan@@@Z 000000018003d4e0     node-midi.obj
 0004:000004ec       $pdata$?ClosePort@NodeMidiOutput@@SAXAEBV?$FunctionCallbackInfo@VValue@v8@@@Nan@@@Z 000000018003d4ec     node-midi.obj
 0004:000004f8       $pdata$?SendMessageA@NodeMidiOutput@@SAXAEBV?$FunctionCallbackInfo@VValue@v8@@@Nan@@@Z 000000018003d4f8     node-midi.obj
 0004:00000504       $pdata$??_GNodeMidiOutput@@UEAAPEAXI@Z 000000018003d504     node-midi.obj
 0004:00000510       $pdata$?Init@NodeMidiInput@@SAXV?$Local@VObject@v8@@@v8@@@Z 000000018003d510     node-midi.obj
 0004:0000051c       $pdata$??0NodeMidiInput@@QEAA@XZ 000000018003d51c     node-midi.obj
 0004:00000528       $pdata$??1NodeMidiInput@@UEAA@XZ 000000018003d528     node-midi.obj
 0004:00000534       $pdata$?EmitMessage@NodeMidiInput@@SAXPEAUuv_async_s@@@Z 000000018003d534     node-midi.obj
 0004:00000540       $pdata$?Callback@NodeMidiInput@@SAXNPEAV?$vector@EV?$allocator@E@std@@@std@@PEAX@Z 000000018003d540     node-midi.obj
 0004:0000054c       $pdata$?New@NodeMidiInput@@SAXAEBV?$FunctionCallbackInfo@VValue@v8@@@Nan@@@Z 000000018003d54c     node-midi.obj
 0004:00000558       $pdata$?OpenPort@NodeMidiInput@@SAXAEBV?$FunctionCallbackInfo@VValue@v8@@@Nan@@@Z 000000018003d558     node-midi.obj
 0004:00000564       $pdata$?OpenVirtualPort@NodeMidiInput@@SAXAEBV?$FunctionCallbackInfo@VValue@v8@@@Nan@@@Z 000000018003d564     node-midi.obj
 0004:00000570       $pdata$?ClosePort@NodeMidiInput@@SAXAEBV?$FunctionCallbackInfo@VValue@v8@@@Nan@@@Z 000000018003d570     node-midi.obj
 0004:0000057c       $pdata$?IgnoreTypes@NodeMidiInput@@SAXAEBV?$FunctionCallbackInfo@VValue@v8@@@Nan@@@Z 000000018003d57c     node-midi.obj
 0004:00000588       $pdata$??_GNodeMidiInput@@UEAAPEAXI@Z 000000018003d588     node-midi.obj
 0004:00000594       $pdata$??1?$queue@PEAUMidiMessage@NodeMidiInput@@V?$deque@PEAUMidiMessage@NodeMidiInput@@V?$allocator@PEAUMidiMessage@NodeMidiInput@@@std@@@std@@@std@@QEAA@XZ 000000018003d594     node-midi.obj
 0004:000005a0       $pdata$init                000000018003d5a0     node-midi.obj
 0004:000005ac       $pdata$??0?$basic_string@DU?$char_traits@D@std@@V?$allocator@D@2@@std@@QEAA@$$QEAV01@@Z 000000018003d5ac     node-midi.obj
 0004:000005b8       $pdata$??4?$basic_string@DU?$char_traits@D@std@@V?$allocator@D@2@@std@@QEAAAEAV01@$$QEAV01@@Z 000000018003d5b8     node-midi.obj
 0004:000005c4       $pdata$??1?$basic_string@DU?$char_traits@D@std@@V?$allocator@D@2@@std@@QEAA@XZ 000000018003d5c4     node-midi.obj
 0004:000005d0       $pdata$??1?$_Yarn@_W@std@@QEAA@XZ 000000018003d5d0     node-midi.obj
 0004:000005d0       $pdata$??1?$_Yarn@D@std@@QEAA@XZ 000000018003d5d0     node-midi.obj
 0004:000005dc       $pdata$??1?$basic_streambuf@DU?$char_traits@D@std@@@std@@UEAA@XZ 000000018003d5dc     node-midi.obj
 0004:000005e8       $pdata$?uflow@?$basic_streambuf@DU?$char_traits@D@std@@@std@@MEAAHXZ 000000018003d5e8     node-midi.obj
 0004:000005f4       $pdata$?xsgetn@?$basic_streambuf@DU?$char_traits@D@std@@@std@@MEAA_JPEAD_J@Z 000000018003d5f4     node-midi.obj
 0004:00000600       $pdata$0$?xsgetn@?$basic_streambuf@DU?$char_traits@D@std@@@std@@MEAA_JPEAD_J@Z 000000018003d600     node-midi.obj
 0004:0000060c       $pdata$1$?xsgetn@?$basic_streambuf@DU?$char_traits@D@std@@@std@@MEAA_JPEAD_J@Z 000000018003d60c     node-midi.obj
 0004:00000618       $pdata$?xsputn@?$basic_streambuf@DU?$char_traits@D@std@@@std@@MEAA_JPEBD_J@Z 000000018003d618     node-midi.obj
 0004:00000624       $pdata$0$?xsputn@?$basic_streambuf@DU?$char_traits@D@std@@@std@@MEAA_JPEBD_J@Z 000000018003d624     node-midi.obj
 0004:00000630       $pdata$1$?xsputn@?$basic_streambuf@DU?$char_traits@D@std@@@std@@MEAA_JPEBD_J@Z 000000018003d630     node-midi.obj
 0004:0000063c       $pdata$??0?$basic_ostream@DU?$char_traits@D@std@@@std@@QEAA@PEAV?$basic_streambuf@DU?$char_traits@D@std@@@1@_N@Z 000000018003d63c     node-midi.obj
 0004:00000648       $pdata$??6?$basic_ostream@DU?$char_traits@D@std@@@std@@QEAAAEAV01@I@Z 000000018003d648     node-midi.obj
 0004:00000654       $pdata$??4?$vector@EV?$allocator@E@std@@@std@@QEAAAEAV01@AEBV01@@Z 000000018003d654     node-midi.obj
 0004:00000660       $pdata$0$??4?$vector@EV?$allocator@E@std@@@std@@QEAAAEAV01@AEBV01@@Z 000000018003d660     node-midi.obj
 0004:0000066c       $pdata$1$??4?$vector@EV?$allocator@E@std@@@std@@QEAAAEAV01@AEBV01@@Z 000000018003d66c     node-midi.obj
 0004:00000678       $pdata$?push_back@?$vector@EV?$allocator@E@std@@@std@@QEAAXAEBE@Z 000000018003d678     node-midi.obj
 0004:00000684       $pdata$??0?$basic_ostringstream@DU?$char_traits@D@std@@V?$allocator@D@2@@std@@QEAA@H@Z 000000018003d684     node-midi.obj
 0004:00000690       $pdata$??1?$basic_ostringstream@DU?$char_traits@D@std@@V?$allocator@D@2@@std@@UEAA@XZ 000000018003d690     node-midi.obj
 0004:0000069c       $pdata$?str@?$basic_ostringstream@DU?$char_traits@D@std@@V?$allocator@D@2@@std@@QEBA?AV?$basic_string@DU?$char_traits@D@std@@V?$allocator@D@2@@2@XZ 000000018003d69c     node-midi.obj
 0004:000006a8       $pdata$??1?$basic_stringbuf@DU?$char_traits@D@std@@V?$allocator@D@2@@std@@UEAA@XZ 000000018003d6a8     node-midi.obj
 0004:000006b4       $pdata$?overflow@?$basic_stringbuf@DU?$char_traits@D@std@@V?$allocator@D@2@@std@@MEAAHH@Z 000000018003d6b4     node-midi.obj
 0004:000006c0       $pdata$0$?overflow@?$basic_stringbuf@DU?$char_traits@D@std@@V?$allocator@D@2@@std@@MEAAHH@Z 000000018003d6c0     node-midi.obj
 0004:000006cc       $pdata$5$?overflow@?$basic_stringbuf@DU?$char_traits@D@std@@V?$allocator@D@2@@std@@MEAAHH@Z 000000018003d6cc     node-midi.obj
 0004:000006d8       $pdata$7$?overflow@?$basic_stringbuf@DU?$char_traits@D@std@@V?$allocator@D@2@@std@@MEAAHH@Z 000000018003d6d8     node-midi.obj
 0004:000006e4       $pdata$?seekoff@?$basic_stringbuf@DU?$char_traits@D@std@@V?$allocator@D@2@@std@@MEAA?AV?$fpos@H@2@_JHH@Z 000000018003d6e4     node-midi.obj
 0004:000006f0       $pdata$?seekpos@?$basic_stringbuf@DU?$char_traits@D@std@@V?$allocator@D@2@@std@@MEAA?AV?$fpos@H@2@V32@H@Z 000000018003d6f0     node-midi.obj
 0004:000006fc       $pdata$??_G?$basic_streambuf@DU?$char_traits@D@std@@@std@@UEAAPEAXI@Z 000000018003d6fc     node-midi.obj
 0004:00000708       $pdata$??_G?$basic_ostream@DU?$char_traits@D@std@@@std@@UEAAPEAXI@Z 000000018003d708     node-midi.obj
 0004:00000714       $pdata$??_G?$basic_ostringstream@DU?$char_traits@D@std@@V?$allocator@D@2@@std@@UEAAPEAXI@Z 000000018003d714     node-midi.obj
 0004:00000720       $pdata$??_G?$basic_stringbuf@DU?$char_traits@D@std@@V?$allocator@D@2@@std@@UEAAPEAXI@Z 000000018003d720     node-midi.obj
 0004:0000072c       $pdata$?_Assign_rv@?$basic_string@DU?$char_traits@D@std@@V?$allocator@D@2@@std@@QEAAX$$QEAV12@@Z 000000018003d72c     node-midi.obj
 0004:00000738       $pdata$?append@?$basic_string@DU?$char_traits@D@std@@V?$allocator@D@2@@std@@QEAAAEAV12@AEBV12@_K1@Z 000000018003d738     node-midi.obj
 0004:00000744       $pdata$0$?append@?$basic_string@DU?$char_traits@D@std@@V?$allocator@D@2@@std@@QEAAAEAV12@AEBV12@_K1@Z 000000018003d744     node-midi.obj
 0004:00000750       $pdata$1$?append@?$basic_string@DU?$char_traits@D@std@@V?$allocator@D@2@@std@@QEAAAEAV12@AEBV12@_K1@Z 000000018003d750     node-midi.obj
 0004:0000075c       $pdata$2$?append@?$basic_string@DU?$char_traits@D@std@@V?$allocator@D@2@@std@@QEAAAEAV12@AEBV12@_K1@Z 000000018003d75c     node-midi.obj
 0004:00000768       $pdata$?append@?$basic_string@DU?$char_traits@D@std@@V?$allocator@D@2@@std@@QEAAAEAV12@PEBD_K@Z 000000018003d768     node-midi.obj
 0004:00000774       $pdata$0$?append@?$basic_string@DU?$char_traits@D@std@@V?$allocator@D@2@@std@@QEAAAEAV12@PEBD_K@Z 000000018003d774     node-midi.obj
 0004:00000780       $pdata$1$?append@?$basic_string@DU?$char_traits@D@std@@V?$allocator@D@2@@std@@QEAAAEAV12@PEBD_K@Z 000000018003d780     node-midi.obj
 0004:0000078c       $pdata$2$?append@?$basic_string@DU?$char_traits@D@std@@V?$allocator@D@2@@std@@QEAAAEAV12@PEBD_K@Z 000000018003d78c     node-midi.obj
 0004:00000798       $pdata$?assign@?$basic_string@DU?$char_traits@D@std@@V?$allocator@D@2@@std@@QEAAAEAV12@AEBV12@_K1@Z 000000018003d798     node-midi.obj
 0004:000007a4       $pdata$?init@?$basic_ios@DU?$char_traits@D@std@@@std@@IEAAXPEAV?$basic_streambuf@DU?$char_traits@D@std@@@2@_N@Z 000000018003d7a4     node-midi.obj
 0004:000007b0       $pdata$?_Buy@?$vector@EV?$allocator@E@std@@@std@@IEAA_N_K@Z 000000018003d7b0     node-midi.obj
 0004:000007bc       $pdata$?_Reserve@?$vector@EV?$allocator@E@std@@@std@@IEAAX_K@Z 000000018003d7bc     node-midi.obj
 0004:000007c8       $pdata$?str@?$basic_stringbuf@DU?$char_traits@D@std@@V?$allocator@D@2@@std@@QEBA?AV?$basic_string@DU?$char_traits@D@std@@V?$allocator@D@2@@2@XZ 000000018003d7c8     node-midi.obj
 0004:000007d4       $pdata$?push_back@?$deque@PEAUMidiMessage@NodeMidiInput@@V?$allocator@PEAUMidiMessage@NodeMidiInput@@@std@@@std@@QEAAXAEBQEAUMidiMessage@NodeMidiInput@@@Z 000000018003d7d4     node-midi.obj
 0004:000007e0       $pdata$?_Tidy@?$deque@PEAUMidiMessage@NodeMidiInput@@V?$allocator@PEAUMidiMessage@NodeMidiInput@@@std@@@std@@IEAAXXZ 000000018003d7e0     node-midi.obj
 0004:000007ec       $pdata$??0sentry@?$basic_ostream@DU?$char_traits@D@std@@@std@@QEAA@AEAV12@@Z 000000018003d7ec     node-midi.obj
 0004:000007f8       $pdata$??1sentry@?$basic_ostream@DU?$char_traits@D@std@@@std@@QEAA@XZ 000000018003d7f8     node-midi.obj
 0004:00000804       $pdata$?do_put@?$num_put@DV?$ostreambuf_iterator@DU?$char_traits@D@std@@@std@@@std@@MEBA?AV?$ostreambuf_iterator@DU?$char_traits@D@std@@@2@V32@AEAVios_base@2@D_N@Z 000000018003d804     node-midi.obj
 0004:00000810       $pdata$?do_put@?$num_put@DV?$ostreambuf_iterator@DU?$char_traits@D@std@@@std@@@std@@MEBA?AV?$ostreambuf_iterator@DU?$char_traits@D@std@@@2@V32@AEAVios_base@2@DJ@Z 000000018003d810     node-midi.obj
 0004:0000081c       $pdata$?do_put@?$num_put@DV?$ostreambuf_iterator@DU?$char_traits@D@std@@@std@@@std@@MEBA?AV?$ostreambuf_iterator@DU?$char_traits@D@std@@@2@V32@AEAVios_base@2@DK@Z 000000018003d81c     node-midi.obj
 0004:00000828       $pdata$?do_put@?$num_put@DV?$ostreambuf_iterator@DU?$char_traits@D@std@@@std@@@std@@MEBA?AV?$ostreambuf_iterator@DU?$char_traits@D@std@@@2@V32@AEAVios_base@2@D_J@Z 000000018003d828     node-midi.obj
 0004:00000834       $pdata$?do_put@?$num_put@DV?$ostreambuf_iterator@DU?$char_traits@D@std@@@std@@@std@@MEBA?AV?$ostreambuf_iterator@DU?$char_traits@D@std@@@2@V32@AEAVios_base@2@D_K@Z 000000018003d834     node-midi.obj
 0004:00000840       $pdata$?do_put@?$num_put@DV?$ostreambuf_iterator@DU?$char_traits@D@std@@@std@@@std@@MEBA?AV?$ostreambuf_iterator@DU?$char_traits@D@std@@@2@V32@AEAVios_base@2@DN@Z 000000018003d840     node-midi.obj
 0004:0000084c       $pdata$?do_put@?$num_put@DV?$ostreambuf_iterator@DU?$char_traits@D@std@@@std@@@std@@MEBA?AV?$ostreambuf_iterator@DU?$char_traits@D@std@@@2@V32@AEAVios_base@2@DO@Z 000000018003d84c     node-midi.obj
 0004:00000858       $pdata$?do_put@?$num_put@DV?$ostreambuf_iterator@DU?$char_traits@D@std@@@std@@@std@@MEBA?AV?$ostreambuf_iterator@DU?$char_traits@D@std@@@2@V32@AEAVios_base@2@DPEBX@Z 000000018003d858     node-midi.obj
 0004:00000864       $pdata$?falsename@?$numpunct@D@std@@QEBA?AV?$basic_string@DU?$char_traits@D@std@@V?$allocator@D@2@@2@XZ 000000018003d864     node-midi.obj
 0004:00000870       $pdata$?truename@?$numpunct@D@std@@QEBA?AV?$basic_string@DU?$char_traits@D@std@@V?$allocator@D@2@@2@XZ 000000018003d870     node-midi.obj
 0004:0000087c       $pdata$?do_grouping@?$numpunct@D@std@@MEBA?AV?$basic_string@DU?$char_traits@D@std@@V?$allocator@D@2@@2@XZ 000000018003d87c     node-midi.obj
 0004:00000888       $pdata$?do_falsename@?$numpunct@D@std@@MEBA?AV?$basic_string@DU?$char_traits@D@std@@V?$allocator@D@2@@2@XZ 000000018003d888     node-midi.obj
 0004:00000894       $pdata$?do_truename@?$numpunct@D@std@@MEBA?AV?$basic_string@DU?$char_traits@D@std@@V?$allocator@D@2@@2@XZ 000000018003d894     node-midi.obj
 0004:000008a0       $pdata$??_G?$numpunct@D@std@@MEAAPEAXI@Z 000000018003d8a0     node-midi.obj
 0004:000008ac       $pdata$?assign@?$basic_string@DU?$char_traits@D@std@@V?$allocator@D@2@@std@@QEAAAEAV12@PEBD_K@Z 000000018003d8ac     node-midi.obj
 0004:000008b8       $pdata$?insert@?$basic_string@DU?$char_traits@D@std@@V?$allocator@D@2@@std@@QEAAAEAV12@_K0D@Z 000000018003d8b8     node-midi.obj
 0004:000008c4       $pdata$0$?insert@?$basic_string@DU?$char_traits@D@std@@V?$allocator@D@2@@std@@QEAAAEAV12@_K0D@Z 000000018003d8c4     node-midi.obj
 0004:000008d0       $pdata$1$?insert@?$basic_string@DU?$char_traits@D@std@@V?$allocator@D@2@@std@@QEAAAEAV12@_K0D@Z 000000018003d8d0     node-midi.obj
 0004:000008dc       $pdata$2$?insert@?$basic_string@DU?$char_traits@D@std@@V?$allocator@D@2@@std@@QEAAAEAV12@_K0D@Z 000000018003d8dc     node-midi.obj
 0004:000008e8       $pdata$?erase@?$basic_string@DU?$char_traits@D@std@@V?$allocator@D@2@@std@@QEAAAEAV12@_K0@Z 000000018003d8e8     node-midi.obj
 0004:000008f4       $pdata$?_Grow@?$basic_string@DU?$char_traits@D@std@@V?$allocator@D@2@@std@@QEAA_N_K_N@Z 000000018003d8f4     node-midi.obj
 0004:00000900       $pdata$0$?_Grow@?$basic_string@DU?$char_traits@D@std@@V?$allocator@D@2@@std@@QEAA_N_K_N@Z 000000018003d900     node-midi.obj
 0004:0000090c       $pdata$1$?_Grow@?$basic_string@DU?$char_traits@D@std@@V?$allocator@D@2@@std@@QEAA_N_K_N@Z 000000018003d90c     node-midi.obj
 0004:00000918       $pdata$2$?_Grow@?$basic_string@DU?$char_traits@D@std@@V?$allocator@D@2@@std@@QEAA_N_K_N@Z 000000018003d918     node-midi.obj
 0004:00000924       $pdata$3$?_Grow@?$basic_string@DU?$char_traits@D@std@@V?$allocator@D@2@@std@@QEAA_N_K_N@Z 000000018003d924     node-midi.obj
 0004:00000930       $pdata$4$?_Grow@?$basic_string@DU?$char_traits@D@std@@V?$allocator@D@2@@std@@QEAA_N_K_N@Z 000000018003d930     node-midi.obj
 0004:0000093c       $pdata$5$?_Grow@?$basic_string@DU?$char_traits@D@std@@V?$allocator@D@2@@std@@QEAA_N_K_N@Z 000000018003d93c     node-midi.obj
 0004:00000948       $pdata$??0?$basic_streambuf@DU?$char_traits@D@std@@@std@@IEAA@XZ 000000018003d948     node-midi.obj
 0004:00000954       $pdata$?flush@?$basic_ostream@DU?$char_traits@D@std@@@std@@QEAAAEAV12@XZ 000000018003d954     node-midi.obj
 0004:00000960       $pdata$?_Reallocate@?$vector@EV?$allocator@E@std@@@std@@IEAAX_K@Z 000000018003d960     node-midi.obj
 0004:0000096c       $pdata$0$?_Reallocate@?$vector@EV?$allocator@E@std@@@std@@IEAAX_K@Z 000000018003d96c     node-midi.obj
 0004:00000978       $pdata$1$?_Reallocate@?$vector@EV?$allocator@E@std@@@std@@IEAAX_K@Z 000000018003d978     node-midi.obj
 0004:00000984       $pdata$?_Growmap@?$deque@PEAUMidiMessage@NodeMidiInput@@V?$allocator@PEAUMidiMessage@NodeMidiInput@@@std@@@std@@IEAAX_K@Z 000000018003d984     node-midi.obj
 0004:00000990       $pdata$1$?_Growmap@?$deque@PEAUMidiMessage@NodeMidiInput@@V?$allocator@PEAUMidiMessage@NodeMidiInput@@@std@@@std@@IEAAX_K@Z 000000018003d990     node-midi.obj
 0004:0000099c       $pdata$3$?_Growmap@?$deque@PEAUMidiMessage@NodeMidiInput@@V?$allocator@PEAUMidiMessage@NodeMidiInput@@@std@@@std@@IEAAX_K@Z 000000018003d99c     node-midi.obj
 0004:000009a8       $pdata$4$?_Growmap@?$deque@PEAUMidiMessage@NodeMidiInput@@V?$allocator@PEAUMidiMessage@NodeMidiInput@@@std@@@std@@IEAAX_K@Z 000000018003d9a8     node-midi.obj
 0004:000009b4       $pdata$5$?_Growmap@?$deque@PEAUMidiMessage@NodeMidiInput@@V?$allocator@PEAUMidiMessage@NodeMidiInput@@@std@@@std@@IEAAX_K@Z 000000018003d9b4     node-midi.obj
 0004:000009c0       $pdata$6$?_Growmap@?$deque@PEAUMidiMessage@NodeMidiInput@@V?$allocator@PEAUMidiMessage@NodeMidiInput@@@std@@@std@@IEAAX_K@Z 000000018003d9c0     node-midi.obj
 0004:000009cc       $pdata$8$?_Growmap@?$deque@PEAUMidiMessage@NodeMidiInput@@V?$allocator@PEAUMidiMessage@NodeMidiInput@@@std@@@std@@IEAAX_K@Z 000000018003d9cc     node-midi.obj
 0004:000009d8       $pdata$9$?_Growmap@?$deque@PEAUMidiMessage@NodeMidiInput@@V?$allocator@PEAUMidiMessage@NodeMidiInput@@@std@@@std@@IEAAX_K@Z 000000018003d9d8     node-midi.obj
 0004:000009e4       $pdata$?_Fput@?$num_put@DV?$ostreambuf_iterator@DU?$char_traits@D@std@@@std@@@std@@AEBA?AV?$ostreambuf_iterator@DU?$char_traits@D@std@@@2@V32@AEAVios_base@2@DPEBD_K333@Z 000000018003d9e4     node-midi.obj
 0004:000009f0       $pdata$?_Iput@?$num_put@DV?$ostreambuf_iterator@DU?$char_traits@D@std@@@std@@@std@@AEBA?AV?$ostreambuf_iterator@DU?$char_traits@D@std@@@2@V32@AEAVios_base@2@DPEAD_K@Z 000000018003d9f0     node-midi.obj
 0004:000009fc       $pdata$?grouping@?$numpunct@D@std@@QEBA?AV?$basic_string@DU?$char_traits@D@std@@V?$allocator@D@2@@2@XZ 000000018003d9fc     node-midi.obj
 0004:00000a08       $pdata$?assign@?$basic_string@DU?$char_traits@D@std@@V?$allocator@D@2@@std@@QEAAAEAV12@_KD@Z 000000018003da08     node-midi.obj
 0004:00000a14       $pdata$?_Copy@?$basic_string@DU?$char_traits@D@std@@V?$allocator@D@2@@std@@QEAAX_K0@Z 000000018003da14     node-midi.obj
 0004:00000a20       $pdata$??$use_facet@V?$ctype@D@std@@@std@@YAAEBV?$ctype@D@0@AEBVlocale@0@@Z 000000018003da20     node-midi.obj
 0004:00000a2c       $pdata$??$?6U?$char_traits@D@std@@@std@@YAAEAV?$basic_ostream@DU?$char_traits@D@std@@@0@AEAV10@D@Z 000000018003da2c     node-midi.obj
 0004:00000a38       $pdata$??$?6DU?$char_traits@D@std@@V?$allocator@D@1@@std@@YAAEAV?$basic_ostream@DU?$char_traits@D@std@@@0@AEAV10@AEBV?$basic_string@DU?$char_traits@D@std@@V?$allocator@D@2@@0@@Z 000000018003da38     node-midi.obj
 0004:00000a44       $pdata$??$?6U?$char_traits@D@std@@@std@@YAAEAV?$basic_ostream@DU?$char_traits@D@std@@@0@AEAV10@PEBD@Z 000000018003da44     node-midi.obj
 0004:00000a50       $pdata$??$Unwrap@VNodeMidiOutput@@@ObjectWrap@Nan@@SAPEAVNodeMidiOutput@@V?$Local@VObject@v8@@@v8@@@Z 000000018003da50     node-midi.obj
 0004:00000a50       $pdata$??$Unwrap@VNodeMidiInput@@@ObjectWrap@Nan@@SAPEAVNodeMidiInput@@V?$Local@VObject@v8@@@v8@@@Z 000000018003da50     node-midi.obj
 0004:00000a5c       $pdata$??$use_facet@V?$num_put@DV?$ostreambuf_iterator@DU?$char_traits@D@std@@@std@@@std@@@std@@YAAEBV?$num_put@DV?$ostreambuf_iterator@DU?$char_traits@D@std@@@std@@@0@AEBVlocale@0@@Z 000000018003da5c     node-midi.obj
 0004:00000a68       $pdata$??$use_facet@V?$numpunct@D@std@@@std@@YAAEBV?$numpunct@D@0@AEBVlocale@0@@Z 000000018003da68     node-midi.obj
 0004:00000a74       $pdata$?_Getcat@?$num_put@DV?$ostreambuf_iterator@DU?$char_traits@D@std@@@std@@@std@@SA_KPEAPEBVfacet@locale@2@PEBV42@@Z 000000018003da74     node-midi.obj
 0004:00000a80       $pdata$?_Getcat@?$numpunct@D@std@@SA_KPEAPEBVfacet@locale@2@PEBV42@@Z 000000018003da80     node-midi.obj
 0004:00000a8c       $pdata$?_Init@?$numpunct@D@std@@IEAAXAEBV_Locinfo@2@_N@Z 000000018003da8c     node-midi.obj
 0004:00000a98       $pdata$load_exe_hook       000000018003da98     win_delay_load_hook.obj
 0004:00000ab0       $pdata$_Getcvt             000000018003dab0     libcpmt:xwctomb.obj
 0004:00000abc       $pdata$??4?$_Yarn@D@std@@QEAAAEAV01@PEBD@Z 000000018003dabc     libcpmt:locale0.obj
 0004:00000ac8       $pdata$??_G_Locimp@locale@std@@MEAAPEAXI@Z 000000018003dac8     libcpmt:locale0.obj
 0004:00000ad4       $pdata$?_Facet_Register@std@@YAXPEAV_Facet_base@1@@Z 000000018003dad4     libcpmt:locale0.obj
 0004:00000ae0       $pdata$?_Init@locale@std@@CAPEAV_Locimp@12@_N@Z 000000018003dae0     libcpmt:locale0.obj
 0004:00000aec       $pdata$?_Locimp_dtor@_Locimp@locale@std@@CAXPEAV123@@Z 000000018003daec     libcpmt:locale0.obj
 0004:00000af8       $pdata$?_Locinfo_ctor@_Locinfo@std@@SAXPEAV12@PEBD@Z 000000018003daf8     libcpmt:locale0.obj
 0004:00000b04       $pdata$?_Locinfo_dtor@_Locinfo@std@@SAXPEAV12@@Z 000000018003db04     libcpmt:locale0.obj
 0004:00000b10       $pdata$?_New_Locimp@_Locimp@locale@std@@CAPEAV123@_N@Z 000000018003db10     libcpmt:locale0.obj
 0004:00000b1c       $pdata$?_Setgloballocale@locale@std@@CAXPEAX@Z 000000018003db1c     libcpmt:locale0.obj
 0004:00000b28       $pdata$_Deletegloballocale 000000018003db28     libcpmt:locale0.obj
 0004:00000b34       $pdata$tidy_global         000000018003db34     libcpmt:locale0.obj
 0004:00000b40       $pdata$?_Addstd@ios_base@std@@SAXPEAV12@@Z 000000018003db40     libcpmt:ios.obj
 0004:00000b4c       $pdata$?_Ios_base_dtor@ios_base@std@@CAXPEAV12@@Z 000000018003db4c     libcpmt:ios.obj
 0004:00000b58       $pdata$?_Tidy@ios_base@std@@AEAAXXZ 000000018003db58     libcpmt:ios.obj
 0004:00000b64       $pdata$??0bad_alloc@std@@QEAA@AEBV01@@Z 000000018003db64     libcpmt:xthrow.obj
 0004:00000b70       $pdata$??0length_error@std@@QEAA@AEBV01@@Z 000000018003db70     libcpmt:xthrow.obj
 0004:00000b7c       $pdata$??0logic_error@std@@QEAA@AEBV01@@Z 000000018003db7c     libcpmt:xthrow.obj
 0004:00000b88       $pdata$??0out_of_range@std@@QEAA@AEBV01@@Z 000000018003db88     libcpmt:xthrow.obj
 0004:00000b94       $pdata$??_Gbad_alloc@std@@UEAAPEAXI@Z 000000018003db94     libcpmt:xthrow.obj
 0004:00000ba0       $pdata$??_Glogic_error@std@@UEAAPEAXI@Z 000000018003dba0     libcpmt:xthrow.obj
 0004:00000ba0       $pdata$??_Gout_of_range@std@@UEAAPEAXI@Z 000000018003dba0     libcpmt:xthrow.obj
 0004:00000ba0       $pdata$??_Glength_error@std@@UEAAPEAXI@Z 000000018003dba0     libcpmt:xthrow.obj
 0004:00000bac       $pdata$?_Xbad_alloc@std@@YAXXZ 000000018003dbac     libcpmt:xthrow.obj
 0004:00000bb8       $pdata$?_Xlength_error@std@@YAXPEBD@Z 000000018003dbb8     libcpmt:xthrow.obj
 0004:00000bc4       $pdata$?_Xout_of_range@std@@YAXPEBD@Z 000000018003dbc4     libcpmt:xthrow.obj
 0004:00000bd0       $pdata$??$use_facet@V?$codecvt@DDH@std@@@std@@YAAEBV?$codecvt@DDH@0@AEBVlocale@0@@Z 000000018003dbd0     libcpmt:cerr.obj
 0004:00000bdc       $pdata$??1?$basic_filebuf@DU?$char_traits@D@std@@@std@@UEAA@XZ 000000018003dbdc     libcpmt:cerr.obj
 0004:00000be8       $pdata$??_G?$basic_filebuf@DU?$char_traits@D@std@@@std@@UEAAPEAXI@Z 000000018003dbe8     libcpmt:cerr.obj
 0004:00000bf4       $pdata$?_Endwrite@?$basic_filebuf@DU?$char_traits@D@std@@@std@@IEAA_NXZ 000000018003dbf4     libcpmt:cerr.obj
 0004:00000c00       $pdata$?_Getcat@?$codecvt@DDH@std@@SA_KPEAPEBVfacet@locale@2@PEBV42@@Z 000000018003dc00     libcpmt:cerr.obj
 0004:00000c0c       $pdata$?_Initcvt@?$basic_filebuf@DU?$char_traits@D@std@@@std@@IEAAXPEBV?$codecvt@DDH@2@@Z 000000018003dc0c     libcpmt:cerr.obj
 0004:00000c18       $pdata$?_Lock@?$basic_filebuf@DU?$char_traits@D@std@@@std@@UEAAXXZ 000000018003dc18     libcpmt:cerr.obj
 0004:00000c24       $pdata$?_Unlock@?$basic_filebuf@DU?$char_traits@D@std@@@std@@UEAAXXZ 000000018003dc24     libcpmt:cerr.obj
 0004:00000c30       $pdata$?append@?$basic_string@DU?$char_traits@D@std@@V?$allocator@D@2@@std@@QEAAAEAV12@_KD@Z 000000018003dc30     libcpmt:cerr.obj
 0004:00000c3c       $pdata$?imbue@?$basic_filebuf@DU?$char_traits@D@std@@@std@@MEAAXAEBVlocale@2@@Z 000000018003dc3c     libcpmt:cerr.obj
 0004:00000c48       $pdata$?overflow@?$basic_filebuf@DU?$char_traits@D@std@@@std@@MEAAHH@Z 000000018003dc48     libcpmt:cerr.obj
 0004:00000c54       $pdata$?pbackfail@?$basic_filebuf@DU?$char_traits@D@std@@@std@@MEAAHH@Z 000000018003dc54     libcpmt:cerr.obj
 0004:00000c60       $pdata$?seekoff@?$basic_filebuf@DU?$char_traits@D@std@@@std@@MEAA?AV?$fpos@H@2@_JHH@Z 000000018003dc60     libcpmt:cerr.obj
 0004:00000c6c       $pdata$?seekpos@?$basic_filebuf@DU?$char_traits@D@std@@@std@@MEAA?AV?$fpos@H@2@V32@H@Z 000000018003dc6c     libcpmt:cerr.obj
 0004:00000c78       $pdata$?setbuf@?$basic_filebuf@DU?$char_traits@D@std@@@std@@MEAAPEAV?$basic_streambuf@DU?$char_traits@D@std@@@2@PEAD_J@Z 000000018003dc78     libcpmt:cerr.obj
 0004:00000c84       $pdata$?sync@?$basic_filebuf@DU?$char_traits@D@std@@@std@@MEAAHXZ 000000018003dc84     libcpmt:cerr.obj
 0004:00000c90       $pdata$?uflow@?$basic_filebuf@DU?$char_traits@D@std@@@std@@MEAAHXZ 000000018003dc90     libcpmt:cerr.obj
 0004:00000c9c       $pdata$?underflow@?$basic_filebuf@DU?$char_traits@D@std@@@std@@MEAAHXZ 000000018003dc9c     libcpmt:cerr.obj
 0004:00000ca8       $pdata$??0_Init_locks@std@@QEAA@XZ 000000018003dca8     libcpmt:xlock.obj
 0004:00000cb4       $pdata$??0_Lockit@std@@QEAA@H@Z 000000018003dcb4     libcpmt:xlock.obj
 0004:00000cc0       $pdata$??1_Init_locks@std@@QEAA@XZ 000000018003dcc0     libcpmt:xlock.obj
 0004:00000ccc       $pdata$??1_Lockit@std@@QEAA@XZ 000000018003dccc     libcpmt:xlock.obj
 0004:00000cd8       $pdata$_Getctype           000000018003dcd8     libcpmt:_tolower.obj
 0004:00000ce4       $pdata$_Tolower            000000018003dce4     libcpmt:_tolower.obj
 0004:00000cf0       $pdata$_Toupper            000000018003dcf0     libcpmt:_toupper.obj
 0004:00000cfc       $pdata$?_Atexit@@YAXP6AXXZ@Z 000000018003dcfc     libcpmt:iosptrs.obj
 0004:00000d14       $pdata$abort               000000018003dd14     LIBCMT:abort.obj
 0004:00000d20       $pdata$_call_reportfault   000000018003dd20     LIBCMT:invarg.obj
 0004:00000d2c       $pdata$_invalid_parameter  000000018003dd2c     LIBCMT:invarg.obj
 0004:00000d38       $pdata$_invalid_parameter_noinfo 000000018003dd38     LIBCMT:invarg.obj
 0004:00000d44       $pdata$_invoke_watson      000000018003dd44     LIBCMT:invarg.obj
 0004:00000d50       $pdata$sprintf_s           000000018003dd50     LIBCMT:sprintf.obj
 0004:00000d68       $pdata$free                000000018003dd68     LIBCMT:free.obj
 0004:00000d74       $pdata$malloc              000000018003dd74     LIBCMT:malloc.obj
 0004:00000d80       $pdata$??_M@YAXPEAX_KHP6AX0@Z@Z 000000018003dd80     LIBCMT:ehvecdtr.obj
 0004:00000d8c       $pdata$?__ArrayUnwind@@YAXPEAX_KHP6AX0@Z@Z 000000018003dd8c     LIBCMT:ehvecdtr.obj
 0004:00000d98       $pdata$localeconv          000000018003dd98     LIBCMT:lconv.obj
 0004:00000da4       $pdata$_wassert            000000018003dda4     LIBCMT:wassert.obj
 0004:00000db0       $pdata$swprintf            000000018003ddb0     LIBCMT:wassert.obj
 0004:00000dbc       $pdata$__onexitinit        000000018003ddbc     LIBCMT:onexit.obj
 0004:00000dc8       $pdata$_onexit             000000018003ddc8     LIBCMT:onexit.obj
 0004:00000dd4       $pdata$atexit              000000018003ddd4     LIBCMT:onexit.obj
 0004:00000de0       $pdata$??_L@YAXPEAX_KHP6AX0@Z2@Z 000000018003dde0     LIBCMT:ehvecctr.obj
 0004:00000dec       $pdata$_purecall           000000018003ddec     LIBCMT:purevirt.obj
 0004:00000df8       $pdata$strcspn             000000018003ddf8     LIBCMT:strcspn.obj
 0004:00000e04       $pdata$??8type_info@@QEBA_NAEBV0@@Z 000000018003de04     LIBCMT:typinfo.obj
 0004:00000e10       $pdata$??_Gtype_info@@UEAAPEAXI@Z 000000018003de10     LIBCMT:typinfo.obj
 0004:00000e1c       $pdata$??2@YAPEAX_K@Z      000000018003de1c     LIBCMT:new.obj
 0004:00000e28       $pdata$??0_LocaleUpdate@@QEAA@PEAUlocaleinfo_struct@@@Z 000000018003de28     LIBCMT:stricmp.obj
 0004:00000e34       $pdata$_stricmp            000000018003de34     LIBCMT:stricmp.obj
 0004:00000e40       $pdata$_stricmp_l          000000018003de40     LIBCMT:stricmp.obj
 0004:00000e4c       $pdata$_CRT_INIT           000000018003de4c     LIBCMT:dllcrt0.obj
 0004:00000e58       $pdata$_DllMainCRTStartup  000000018003de58     LIBCMT:dllcrt0.obj
 0004:00000e64       $pdata$__DllMainCRTStartup 000000018003de64     LIBCMT:dllcrt0.obj
 0004:00000e70       $pdata$___lc_codepage_func 000000018003de70     LIBCMT:initctyp.obj
 0004:00000e7c       $pdata$___lc_locale_name_func 000000018003de7c     LIBCMT:initctyp.obj
 0004:00000e88       $pdata$___mb_cur_max_func  000000018003de88     LIBCMT:initctyp.obj
 0004:00000e94       $pdata$__init_ctype        000000018003de94     LIBCMT:initctyp.obj
 0004:00000ea0       $pdata$__doserrno          000000018003dea0     LIBCMT:dosmap.obj
 0004:00000eac       $pdata$_dosmaperr          000000018003deac     LIBCMT:dosmap.obj
 0004:00000eb8       $pdata$_errno              000000018003deb8     LIBCMT:dosmap.obj
 0004:00000ec4       $pdata$?x_ismbbtype_l@@YAHPEAUlocaleinfo_struct@@IHH@Z 000000018003dec4     LIBCMT:ismbbyte.obj
 0004:00000ee8       $pdata$_CxxThrowException  000000018003dee8     LIBCMT:throw.obj
 0004:00000ef4       $pdata$?_GetEstablisherFrame@@YAPEA_KPEA_KPEAU_xDISPATCHER_CONTEXT@@PEBU_s_FuncInfo@@0@Z 000000018003def4     LIBCMT:trnsctrl.obj
 0004:00000f00       $pdata$?_GetRangeOfTrysToCheck@@YAPEBU_s_TryBlockMapEntry@@PEA_KPEBU_s_FuncInfo@@HHPEAI2PEAU_xDISPATCHER_CONTEXT@@@Z 000000018003df00     LIBCMT:trnsctrl.obj
 0004:00000f0c       $pdata$?__FrameUnwindToEmptyState@@YAXPEA_KPEAU_xDISPATCHER_CONTEXT@@PEBU_s_FuncInfo@@@Z 000000018003df0c     LIBCMT:trnsctrl.obj
 0004:00000f18       $pdata$?__SehTransFilter@@YAHPEAU_EXCEPTION_POINTERS@@PEAUEHExceptionRecord@@PEA_KPEAU_CONTEXT@@PEAU_xDISPATCHER_CONTEXT@@PEBU_s_FuncInfo@@PEAH@Z 000000018003df18     LIBCMT:trnsctrl.obj
 0004:00000f24       $pdata$_CallSETranslator   000000018003df24     LIBCMT:trnsctrl.obj
 0004:00000f30       $pdata$_CreateFrameInfo    000000018003df30     LIBCMT:trnsctrl.obj
 0004:00000f3c       $pdata$_FindAndUnlinkFrame 000000018003df3c     LIBCMT:trnsctrl.obj
 0004:00000f48       $pdata$_GetImageBase       000000018003df48     LIBCMT:trnsctrl.obj
 0004:00000f54       $pdata$_GetThrowImageBase  000000018003df54     LIBCMT:trnsctrl.obj
 0004:00000f60       $pdata$_IsExceptionObjectToBeDestroyed 000000018003df60     LIBCMT:trnsctrl.obj
 0004:00000f6c       $pdata$_SetImageBase       000000018003df6c     LIBCMT:trnsctrl.obj
 0004:00000f78       $pdata$_SetThrowImageBase  000000018003df78     LIBCMT:trnsctrl.obj
 0004:00000f84       $pdata$_UnwindNestedFrames 000000018003df84     LIBCMT:trnsctrl.obj
 0004:00000f90       $pdata$__CxxFrameHandler3  000000018003df90     LIBCMT:trnsctrl.obj
 0004:00000f9c       $pdata$setlocale           000000018003df9c     LIBCMT:setlocal.obj
 0004:00000fa8       $pdata$??0bad_cast@std@@QEAA@AEBV01@@Z 000000018003dfa8     LIBCMT:stdexcpt.obj
 0004:00000fb4       $pdata$??0bad_cast@std@@QEAA@PEBD@Z 000000018003dfb4     LIBCMT:stdexcpt.obj
 0004:00000fc0       $pdata$??0exception@std@@QEAA@AEBQEBD@Z 000000018003dfc0     LIBCMT:stdexcpt.obj
 0004:00000fcc       $pdata$??0exception@std@@QEAA@AEBV01@@Z 000000018003dfcc     LIBCMT:stdexcpt.obj
 0004:00000fd8       $pdata$??4exception@std@@QEAAAEAV01@AEBV01@@Z 000000018003dfd8     LIBCMT:stdexcpt.obj
 0004:00000fe4       $pdata$??_Gbad_cast@std@@UEAAPEAXI@Z 000000018003dfe4     LIBCMT:stdexcpt.obj
 0004:00000fe4       $pdata$??_Gexception@std@@UEAAPEAXI@Z 000000018003dfe4     LIBCMT:stdexcpt.obj
 0004:00000ff0       $pdata$?_Copy_str@exception@std@@AEAAXPEBD@Z 000000018003dff0     LIBCMT:stdexcpt.obj
 0004:00000ffc       $pdata$?_Tidy@exception@std@@AEAAXXZ 000000018003dffc     LIBCMT:stdexcpt.obj
 0004:00001008       $pdata$__initstdio         000000018003e008     LIBCMT:_file.obj
 0004:00001014       $pdata$__endstdio          000000018003e014     LIBCMT:_file.obj
 0004:00001020       $pdata$_lock_file          000000018003e020     LIBCMT:_file.obj
 0004:0000102c       $pdata$_lock_file2         000000018003e02c     LIBCMT:_file.obj
 0004:00001038       $pdata$_fclose_nolock      000000018003e038     LIBCMT:fclose.obj
 0004:00001044       $pdata$fclose              000000018003e044     LIBCMT:fclose.obj
 0004:00001050       $pdata$_fflush_nolock      000000018003e050     LIBCMT:fflush.obj
 0004:0000105c       $pdata$_flush              000000018003e05c     LIBCMT:fflush.obj
 0004:00001068       $pdata$fflush              000000018003e068     LIBCMT:fflush.obj
 0004:00001074       $pdata$flsall              000000018003e074     LIBCMT:fflush.obj
 0004:00001080       $pdata$fgetc               000000018003e080     LIBCMT:fgetc.obj
 0004:0000108c       $pdata$fgetpos             000000018003e08c     LIBCMT:fgetpos.obj
 0004:00001098       $pdata$fputc               000000018003e098     LIBCMT:fputc.obj
 0004:000010a4       $pdata$fsetpos             000000018003e0a4     LIBCMT:fsetpos.obj
 0004:000010b0       $pdata$_fseeki64           000000018003e0b0     LIBCMT:fseeki64.obj
 0004:000010bc       $pdata$_fseeki64_nolock    000000018003e0bc     LIBCMT:fseeki64.obj
 0004:000010c8       $pdata$_fwrite_nolock      000000018003e0c8     LIBCMT:fwrite.obj
 0004:000010d4       $pdata$fwrite              000000018003e0d4     LIBCMT:fwrite.obj
 0004:000010e0       $pdata$setvbuf             000000018003e0e0     LIBCMT:setvbuf.obj
 0004:000010ec       $pdata$_ungetc_nolock      000000018003e0ec     LIBCMT:ungetc.obj
 0004:000010f8       $pdata$ungetc              000000018003e0f8     LIBCMT:ungetc.obj
 0004:00001104       $pdata$memcpy_s            000000018003e104     LIBCMT:memcpy_s.obj
 0004:00001110       $pdata$__GSHandlerCheck_EH 000000018003e110     LIBCMT:gshandlereh.obj
 0004:0000111c       $pdata$_lock               000000018003e11c     LIBCMT:mlock.obj
 0004:00001128       $pdata$_mtdeletelocks      000000018003e128     LIBCMT:mlock.obj
 0004:00001134       $pdata$_mtinitlocknum      000000018003e134     LIBCMT:mlock.obj
 0004:00001140       $pdata$_mtinitlocks        000000018003e140     LIBCMT:mlock.obj
 0004:0000114c       $pdata$__pctype_func       000000018003e14c     LIBCMT:ctype.obj
 0004:00001158       $pdata$isdigit             000000018003e158     LIBCMT:_ctype.obj
 0004:00001164       $pdata$islower             000000018003e164     LIBCMT:_ctype.obj
 0004:00001170       $pdata$isupper             000000018003e170     LIBCMT:_ctype.obj
 0004:0000117c       $pdata$_wcsdup             000000018003e17c     LIBCMT:wcsdup.obj
 0004:00001188       $pdata$?__crtLCMapStringA_stat@@YAHPEAUlocaleinfo_struct@@PEB_WKPEBDHPEADHHH@Z 000000018003e188     LIBCMT:a_map.obj
 0004:00001194       $pdata$__crtLCMapStringA   000000018003e194     LIBCMT:a_map.obj
 0004:000011a0       $pdata$_calloc_crt         000000018003e1a0     LIBCMT:crtheap.obj
 0004:000011ac       $pdata$_malloc_crt         000000018003e1ac     LIBCMT:crtheap.obj
 0004:000011b8       $pdata$_realloc_crt        000000018003e1b8     LIBCMT:crtheap.obj
 0004:000011d0       $pdata$__GSHandlerCheck    000000018003e1d0     LIBCMT:gshandler.obj
 0004:000011dc       $pdata$__GSHandlerCheckCommon 000000018003e1dc     LIBCMT:gshandler.obj
 0004:000011e8       $pdata$__crtCaptureCurrentContext 000000018003e1e8     LIBCMT:winapisupp.obj
 0004:000011f4       $pdata$__crtCapturePreviousContext 000000018003e1f4     LIBCMT:winapisupp.obj
 0004:00001200       $pdata$__crtInitializeCriticalSectionEx 000000018003e200     LIBCMT:winapisupp.obj
 0004:0000120c       $pdata$__crtIsPackagedApp  000000018003e20c     LIBCMT:winapisupp.obj
 0004:00001218       $pdata$__crtLoadWinApiPointers 000000018003e218     LIBCMT:winapisupp.obj
 0004:00001224       $pdata$__crtTerminateProcess 000000018003e224     LIBCMT:winapisupp.obj
 0004:00001230       $pdata$__crtUnhandledException 000000018003e230     LIBCMT:winapisupp.obj
 0004:0000123c       $pdata$_tolower_l          000000018003e23c     LIBCMT:tolower.obj
 0004:00001254       $pdata$GetTableIndexFromLocaleName 000000018003e254     LIBCMT:winapinls.obj
 0004:00001260       $pdata$__crtDownlevelLCIDToLocaleName 000000018003e260     LIBCMT:winapinls.obj
 0004:0000126c       $pdata$__crtDownlevelLocaleNameToLCID 000000018003e26c     LIBCMT:winapinls.obj
 0004:00001278       $pdata$__crtEnumSystemLocalesEx 000000018003e278     LIBCMT:winapinls.obj
 0004:00001284       $pdata$__crtGetLocaleInfoEx 000000018003e284     LIBCMT:winapinls.obj
 0004:00001290       $pdata$__crtGetUserDefaultLocaleName 000000018003e290     LIBCMT:winapinls.obj
 0004:0000129c       $pdata$__crtIsValidLocaleName 000000018003e29c     LIBCMT:winapinls.obj
 0004:000012a8       $pdata$__crtLCMapStringEx  000000018003e2a8     LIBCMT:winapinls.obj
 0004:000012b4       $pdata$__crtLCMapStringW   000000018003e2b4     LIBCMT:w_map.obj
 0004:000012c0       $pdata$__raise_securityfailure 000000018003e2c0     LIBCMT:gs_report.obj
 0004:000012cc       $pdata$__report_gsfailure  000000018003e2cc     LIBCMT:gs_report.obj
 0004:000012d8       $pdata$__report_rangecheckfailure 000000018003e2d8     LIBCMT:gs_report.obj
 0004:000012e4       $pdata$__report_securityfailure 000000018003e2e4     LIBCMT:gs_report.obj
 0004:000012f0       $pdata$__crtCorExitProcess 000000018003e2f0     LIBCMT:crt0dat.obj
 0004:000012fc       $pdata$__crtExitProcess    000000018003e2fc     LIBCMT:crt0dat.obj
 0004:00001308       $pdata$__freeCrtMemory     000000018003e308     LIBCMT:crt0dat.obj
 0004:00001314       $pdata$_amsg_exit          000000018003e314     LIBCMT:crt0dat.obj
 0004:00001320       $pdata$_cinit              000000018003e320     LIBCMT:crt0dat.obj
 0004:0000132c       $pdata$_init_pointers      000000018003e32c     LIBCMT:crt0dat.obj
 0004:00001338       $pdata$_initterm           000000018003e338     LIBCMT:crt0dat.obj
 0004:00001344       $pdata$_initterm_e         000000018003e344     LIBCMT:crt0dat.obj
 0004:00001350       $pdata$doexit              000000018003e350     LIBCMT:crt0dat.obj
 0004:0000135c       $pdata$raise               000000018003e35c     LIBCMT:winsig.obj
 0004:00001368       $pdata$_flsbuf             000000018003e368     LIBCMT:_flsbuf.obj
 0004:00001374       $pdata$_vsnprintf_helper   000000018003e374     LIBCMT:vsnprnc.obj
 0004:00001380       $pdata$_vsprintf_s_l       000000018003e380     LIBCMT:vsnprnc.obj
 0004:0000138c       $pdata$__isa_available_init 000000018003e38c     LIBCMT:cpu_disp.obj
 0004:00001398       $pdata$_heap_init          000000018003e398     LIBCMT:heapinit.obj
 0004:000013a4       $pdata$_callnewh           000000018003e3a4     LIBCMT:handler.obj
 0004:000013b0       $pdata$_FF_MSGBANNER       000000018003e3b0     LIBCMT:crt0msg.obj
 0004:000013bc       $pdata$_NMSG_WRITE         000000018003e3bc     LIBCMT:crt0msg.obj
 0004:000013c8       $pdata$?_inconsistency@@YAXXZ 000000018003e3c8     LIBCMT:hooks.obj
 0004:000013d4       $pdata$?terminate@@YAXXZ   000000018003e3d4     LIBCMT:hooks.obj
 0004:000013e0       $pdata$_initp_eh_hooks     000000018003e3e0     LIBCMT:hooks.obj
 0004:000013ec       $pdata$__C_specific_handler 000000018003e3ec     LIBCMT:chandler.obj
 0004:000013f8       $pdata$__freetlocinfo      000000018003e3f8     LIBCMT:localref.obj
 0004:00001404       $pdata$__updatetlocinfo    000000018003e404     LIBCMT:localref.obj
 0004:00001410       $pdata$_updatetlocinfoEx_nolock 000000018003e410     LIBCMT:localref.obj
 0004:0000141c       $pdata$_freefls            000000018003e41c     LIBCMT:tidtable.obj
 0004:00001428       $pdata$_freeptd            000000018003e428     LIBCMT:tidtable.obj
 0004:00001434       $pdata$_getptd             000000018003e434     LIBCMT:tidtable.obj
 0004:00001440       $pdata$_getptd_noexit      000000018003e440     LIBCMT:tidtable.obj
 0004:0000144c       $pdata$_initptd            000000018003e44c     LIBCMT:tidtable.obj
 0004:00001458       $pdata$_mtinit             000000018003e458     LIBCMT:tidtable.obj
 0004:00001464       $pdata$_mtterm             000000018003e464     LIBCMT:tidtable.obj
 0004:00001470       $pdata$wcscat_s            000000018003e470     LIBCMT:wcscat_s.obj
 0004:0000147c       $pdata$wcscpy_s            000000018003e47c     LIBCMT:wcscpy_s.obj
 0004:00001488       $pdata$wcsncat_s           000000018003e488     LIBCMT:wcsncat_s.obj
 0004:00001494       $pdata$_set_error_mode     000000018003e494     LIBCMT:errmode.obj
 0004:000014a0       $pdata$_itow_s             000000018003e4a0     LIBCMT:xtows.obj
 0004:000014ac       $pdata$xtow_s              000000018003e4ac     LIBCMT:xtows.obj
 0004:000014b8       $pdata$fwprintf            000000018003e4b8     LIBCMT:fwprintf.obj
 0004:000014c4       $pdata$_vswprintf_c_l      000000018003e4c4     LIBCMT:vswprnc.obj
 0004:000014d0       $pdata$_vswprintf_helper   000000018003e4d0     LIBCMT:vswprnc.obj
 0004:000014dc       $pdata$__crtMessageBoxW    000000018003e4dc     LIBCMT:crtmboxw.obj
 0004:000014e8       $pdata$_msize              000000018003e4e8     LIBCMT:msize.obj
 0004:000014f4       $pdata$__getlocaleinfo     000000018003e4f4     LIBCMT:inithelp.obj
 0004:00001500       $pdata$?_Type_info_dtor@type_info@@CAXPEAV1@@Z 000000018003e500     LIBCMT:typname.obj
 0004:0000150c       $pdata$__initmbctable      000000018003e50c     LIBCMT:mbctype.obj
 0004:00001518       $pdata$?getSystemCP@@YAHH@Z 000000018003e518     LIBCMT:mbctype.obj
 0004:00001524       $pdata$?setSBCS@@YAXPEAUthreadmbcinfostruct@@@Z 000000018003e524     LIBCMT:mbctype.obj
 0004:00001530       $pdata$?setSBUpLow@@YAXPEAUthreadmbcinfostruct@@@Z 000000018003e530     LIBCMT:mbctype.obj
 0004:0000153c       $pdata$__updatetmbcinfo    000000018003e53c     LIBCMT:mbctype.obj
 0004:00001548       $pdata$_setmbcp            000000018003e548     LIBCMT:mbctype.obj
 0004:00001554       $pdata$_setmbcp_nolock     000000018003e554     LIBCMT:mbctype.obj
 0004:00001560       $pdata$_locterm            000000018003e560     LIBCMT:wsetloca.obj
 0004:0000156c       $pdata$__copy_locale_name  000000018003e56c     LIBCMT:wsetloca.obj
 0004:00001578       $pdata$__lc_lctowcs        000000018003e578     LIBCMT:wsetloca.obj
 0004:00001584       $pdata$__lc_wcstolc        000000018003e584     LIBCMT:wsetloca.obj
 0004:00001590       $pdata$_copytlocinfo_nolock 000000018003e590     LIBCMT:wsetloca.obj
 0004:0000159c       $pdata$_expandlocale       000000018003e59c     LIBCMT:wsetloca.obj
 0004:000015a8       $pdata$_wcscats            000000018003e5a8     LIBCMT:wsetloca.obj
 0004:000015b4       $pdata$_wsetlocale         000000018003e5b4     LIBCMT:wsetloca.obj
 0004:000015c0       $pdata$_wsetlocale_get_all 000000018003e5c0     LIBCMT:wsetloca.obj
 0004:000015cc       $pdata$_wsetlocale_nolock  000000018003e5cc     LIBCMT:wsetloca.obj
 0004:000015d8       $pdata$_wsetlocale_set_cat 000000018003e5d8     LIBCMT:wsetloca.obj
 0004:000015e4       $pdata$_XcptFilter         000000018003e5e4     LIBCMT:winxfltr.obj
 0004:000015f0       $pdata$_ioinit             000000018003e5f0     LIBCMT:ioinit.obj
 0004:000015fc       $pdata$_ioterm             000000018003e5fc     LIBCMT:ioinit.obj
 0004:00001608       $pdata$_setargv            000000018003e608     LIBCMT:stdargv.obj
 0004:00001614       $pdata$parse_cmdline       000000018003e614     LIBCMT:stdargv.obj
 0004:00001620       $pdata$_setenvp            000000018003e620     LIBCMT:stdenvp.obj
 0004:0000162c       $pdata$__security_init_cookie 000000018003e62c     LIBCMT:gs_support.obj
 0004:00001638       $pdata$__crtGetEnvironmentStringsA 000000018003e638     LIBCMT:a_env.obj
 0004:00001644       $pdata$_RTC_Initialize     000000018003e644     LIBCMT:initsect.obj
 0004:00001650       $pdata$_RTC_Terminate      000000018003e650     LIBCMT:initsect.obj
 0004:0000165c       $pdata$?__crtGetStringTypeA_stat@@YAHPEAUlocaleinfo_struct@@KPEBDHPEAGHH@Z 000000018003e65c     LIBCMT:a_str.obj
 0004:00001668       $pdata$__crtGetStringTypeA 000000018003e668     LIBCMT:a_str.obj
 0004:00001674       $pdata$__DestructExceptionObject 000000018003e674     LIBCMT:frame.obj
 0004:00001680       $pdata$??0bad_exception@std@@QEAA@AEBV01@@Z 000000018003e680     LIBCMT:frame.obj
 0004:0000168c       $pdata$??_Gbad_exception@std@@UEAAPEAXI@Z 000000018003e68c     LIBCMT:frame.obj
 0004:00001698       $pdata$?CatchIt@@YAXPEAUEHExceptionRecord@@PEA_KPEAU_CONTEXT@@PEAU_xDISPATCHER_CONTEXT@@PEBU_s_FuncInfo@@PEBU_s_HandlerType@@PEBU_s_CatchableType@@PEBU_s_TryBlockMapEntry@@H1EE@Z 000000018003e698     LIBCMT:frame.obj
 0004:000016a4       $pdata$?FindHandler@@YAXPEAUEHExceptionRecord@@PEA_KPEAU_CONTEXT@@PEAU_xDISPATCHER_CONTEXT@@PEBU_s_FuncInfo@@EH1@Z 000000018003e6a4     LIBCMT:frame.obj
 0004:000016b0       $pdata$?FindHandlerForForeignException@@YAXPEAUEHExceptionRecord@@PEA_KPEAU_CONTEXT@@PEAU_xDISPATCHER_CONTEXT@@PEBU_s_FuncInfo@@HH1@Z 000000018003e6b0     LIBCMT:frame.obj
 0004:000016bc       $pdata$?IsInExceptionSpec@@YAEPEAUEHExceptionRecord@@PEBU_s_ESTypeList@@@Z 000000018003e6bc     LIBCMT:frame.obj
 0004:000016c8       $pdata$__BuildCatchObject  000000018003e6c8     LIBCMT:frame.obj
 0004:000016d4       $pdata$__BuildCatchObjectHelper 000000018003e6d4     LIBCMT:frame.obj
 0004:000016e0       $pdata$__CxxCallCatchBlock 000000018003e6e0     LIBCMT:frame.obj
 0004:000016ec       $pdata$__FrameUnwindFilter 000000018003e6ec     LIBCMT:frame.obj
 0004:000016f8       $pdata$__FrameUnwindToState 000000018003e6f8     LIBCMT:frame.obj
 0004:00001704       $pdata$__InternalCxxFrameHandler 000000018003e704     LIBCMT:frame.obj
 0004:00001710       $pdata$__TypeMatch         000000018003e710     LIBCMT:frame.obj
 0004:0000171c       $pdata$?__GetCurrentState@@YAHPEA_KPEAU_xDISPATCHER_CONTEXT@@PEBU_s_FuncInfo@@@Z 000000018003e71c     LIBCMT:ehstate.obj
 0004:00001728       $pdata$?__GetUnwindTryBlock@@YAHPEA_KPEAU_xDISPATCHER_CONTEXT@@PEBU_s_FuncInfo@@@Z 000000018003e728     LIBCMT:ehstate.obj
 0004:00001734       $pdata$?__SetUnwindTryBlock@@YAXPEA_KPEAU_xDISPATCHER_CONTEXT@@PEBU_s_FuncInfo@@H@Z 000000018003e734     LIBCMT:ehstate.obj
 0004:00001740       $pdata$?__StateFromIp@@YAHPEBU_s_FuncInfo@@PEAU_xDISPATCHER_CONTEXT@@_J@Z 000000018003e740     LIBCMT:ehstate.obj
 0004:0000174c       $pdata$_cfltcvt            000000018003e74c     LIBCMT:cvt.obj
 0004:00001758       $pdata$_cfltcvt_l          000000018003e758     LIBCMT:cvt.obj
 0004:00001764       $pdata$_cftoa_l            000000018003e764     LIBCMT:cvt.obj
 0004:00001770       $pdata$_cftoe2_l           000000018003e770     LIBCMT:cvt.obj
 0004:0000177c       $pdata$_cftoe_l            000000018003e77c     LIBCMT:cvt.obj
 0004:00001788       $pdata$_cftof2_l           000000018003e788     LIBCMT:cvt.obj
 0004:00001794       $pdata$_cftof_l            000000018003e794     LIBCMT:cvt.obj
 0004:000017a0       $pdata$_cftog_l            000000018003e7a0     LIBCMT:cvt.obj
 0004:000017ac       $pdata$_cropzeros_l        000000018003e7ac     LIBCMT:cvt.obj
 0004:000017b8       $pdata$_fassign_l          000000018003e7b8     LIBCMT:cvt.obj
 0004:000017c4       $pdata$_forcdecpt_l        000000018003e7c4     LIBCMT:cvt.obj
 0004:000017d0       $pdata$_initp_misc_cfltcvt_tab 000000018003e7d0     LIBCMT:cmiscdat.obj
 0004:000017dc       $pdata$_mbstowcs_l_helper  000000018003e7dc     LIBCMT:mbstowcs.obj
 0004:000017e8       $pdata$_mbstowcs_s_l       000000018003e7e8     LIBCMT:mbstowcs.obj
 0004:000017f4       $pdata$mbstowcs_s          000000018003e7f4     LIBCMT:mbstowcs.obj
 0004:00001800       $pdata$_wcstombs_l_helper  000000018003e800     LIBCMT:wcstombs.obj
 0004:0000180c       $pdata$_wcstombs_s_l       000000018003e80c     LIBCMT:wcstombs.obj
 0004:00001818       $pdata$strcpy_s            000000018003e818     LIBCMT:strcpy_s.obj
 0004:00001824       $pdata$_fcloseall          000000018003e824     LIBCMT:closeall.obj
 0004:00001830       $pdata$_fileno             000000018003e830     LIBCMT:fileno.obj
 0004:0000183c       $pdata$_close              000000018003e83c     LIBCMT:close.obj
 0004:00001848       $pdata$_close_nolock       000000018003e848     LIBCMT:close.obj
 0004:00001854       $pdata$_freebuf            000000018003e854     LIBCMT:_freebuf.obj
 0004:00001860       $pdata$_commit             000000018003e860     LIBCMT:commit.obj
 0004:0000186c       $pdata$_write              000000018003e86c     LIBCMT:write.obj
 0004:00001878       $pdata$_write_nolock       000000018003e878     LIBCMT:write.obj
 0004:00001884       $pdata$_filbuf             000000018003e884     LIBCMT:_filbuf.obj
 0004:00001890       $pdata$_ftelli64           000000018003e890     LIBCMT:ftelli64.obj
 0004:0000189c       $pdata$_ftelli64_nolock    000000018003e89c     LIBCMT:ftelli64.obj
 0004:000018a8       $pdata$_lseeki64           000000018003e8a8     LIBCMT:lseeki64.obj
 0004:000018b4       $pdata$_lseeki64_nolock    000000018003e8b4     LIBCMT:lseeki64.obj
 0004:000018c0       $pdata$_getbuf             000000018003e8c0     LIBCMT:_getbuf.obj
 0004:000018cc       $pdata$_isctype_l          000000018003e8cc     LIBCMT:isctype.obj
 0004:000018d8       $pdata$calloc              000000018003e8d8     LIBCMT:calloc.obj
 0004:000018f0       $pdata$realloc             000000018003e8f0     LIBCMT:realloc.obj
 0004:000018fc       $pdata$_calloc_impl        000000018003e8fc     LIBCMT:calloc_impl.obj
 0004:00001908       $pdata$_wcsicmp            000000018003e908     LIBCMT:wcsicmp.obj
 0004:00001914       $pdata$_wcsicmp_l          000000018003e914     LIBCMT:wcsicmp.obj
 0004:00001920       $pdata$_isleadbyte_l       000000018003e920     LIBCMT:_wctype.obj
 0004:0000192c       $pdata$isleadbyte          000000018003e92c     LIBCMT:_wctype.obj
 0004:00001938       $pdata$_IsNonwritableInCurrentImage 000000018003e938     LIBCMT:pesect.obj
 0004:00001944       $pdata$_ftbuf              000000018003e944     LIBCMT:_sftbuf.obj
 0004:00001950       $pdata$_stbuf              000000018003e950     LIBCMT:_sftbuf.obj
 0004:0000195c       $pdata$_isatty             000000018003e95c     LIBCMT:isatty.obj
 0004:00001968       $pdata$_output_s_l         000000018003e968     LIBCMT:outputs.obj
 0004:00001974       $pdata$write_char          000000018003e974     LIBCMT:outputs.obj
 0004:00001980       $pdata$write_multi_char    000000018003e980     LIBCMT:outputs.obj
 0004:0000198c       $pdata$write_string        000000018003e98c     LIBCMT:outputs.obj
 0004:00001998       $pdata$_wctomb_s_l         000000018003e998     LIBCMT:wctomb.obj
 0004:000019a4       $pdata$wctomb_s            000000018003e9a4     LIBCMT:wctomb.obj
 0004:000019b0       $pdata$wcsncpy_s           000000018003e9b0     LIBCMT:wcsncpy_s.obj
 0004:000019ec       $pdata$__free_lconv_mon    000000018003e9ec     LIBCMT:initmon.obj
 0004:000019f8       $pdata$__init_monetary     000000018003e9f8     LIBCMT:initmon.obj
 0004:00001a04       $pdata$__free_lconv_num    000000018003ea04     LIBCMT:initnum.obj
 0004:00001a10       $pdata$__init_numeric      000000018003ea10     LIBCMT:initnum.obj
 0004:00001a1c       $pdata$__free_lc_time      000000018003ea1c     LIBCMT:inittime.obj
 0004:00001a28       $pdata$__init_time         000000018003ea28     LIBCMT:inittime.obj
 0004:00001a34       $pdata$_get_lc_time        000000018003ea34     LIBCMT:inittime.obj
 0004:00001a40       $pdata$_woutput_l          000000018003ea40     LIBCMT:woutput.obj
 0004:00001a4c       $pdata$write_char          000000018003ea4c     LIBCMT:woutput.obj
 0004:00001a58       $pdata$write_multi_char    000000018003ea58     LIBCMT:woutput.obj
 0004:00001a64       $pdata$write_string        000000018003ea64     LIBCMT:woutput.obj
 0004:00001a70       $pdata$strncpy_s           000000018003ea70     LIBCMT:strncpy_s.obj
 0004:00001a7c       $pdata$?__crtGetLocaleInfoA_stat@@YAHPEAUlocaleinfo_struct@@PEB_WKPEADH@Z 000000018003ea7c     LIBCMT:a_loc.obj
 0004:00001a88       $pdata$__crtGetLocaleInfoA 000000018003ea88     LIBCMT:a_loc.obj
 0004:00001aa0       $pdata$GetLocaleNameFromLangCountry 000000018003eaa0     LIBCMT:getqloc.obj
 0004:00001aac       $pdata$GetLocaleNameFromLanguage 000000018003eaac     LIBCMT:getqloc.obj
 0004:00001ab8       $pdata$LangCountryEnumProcEx 000000018003eab8     LIBCMT:getqloc.obj
 0004:00001ac4       $pdata$LanguageEnumProcEx  000000018003eac4     LIBCMT:getqloc.obj
 0004:00001ad0       $pdata$ProcessCodePage     000000018003ead0     LIBCMT:getqloc.obj
 0004:00001adc       $pdata$TestDefaultCountry  000000018003eadc     LIBCMT:getqloc.obj
 0004:00001ae8       $pdata$__get_qualified_locale 000000018003eae8     LIBCMT:getqloc.obj
 0004:00001af4       $pdata$CountryEnumProc     000000018003eaf4     LIBCMT:getqloc_downlevel.obj
 0004:00001b00       $pdata$GetLcidFromLangCountry 000000018003eb00     LIBCMT:getqloc_downlevel.obj
 0004:00001b0c       $pdata$GetLcidFromLanguage 000000018003eb0c     LIBCMT:getqloc_downlevel.obj
 0004:00001b18       $pdata$LangCountryEnumProc 000000018003eb18     LIBCMT:getqloc_downlevel.obj
 0004:00001b24       $pdata$LanguageEnumProc    000000018003eb24     LIBCMT:getqloc_downlevel.obj
 0004:00001b30       $pdata$ProcessCodePage     000000018003eb30     LIBCMT:getqloc_downlevel.obj
 0004:00001b3c       $pdata$TestDefaultLanguage 000000018003eb3c     LIBCMT:getqloc_downlevel.obj
 0004:00001b48       $pdata$TranslateName       000000018003eb48     LIBCMT:getqloc_downlevel.obj
 0004:00001b48       $pdata$TranslateName       000000018003eb48     LIBCMT:getqloc_downlevel.obj
 0004:00001b54       $pdata$__get_qualified_locale_downlevel 000000018003eb54     LIBCMT:getqloc_downlevel.obj
 0004:00001b6c       $pdata$strrchr             000000018003eb6c     LIBCMT:strrchr.obj
 0004:00001b78       $pdata$_fptostr            000000018003eb78     LIBCMT:_fptostr.obj
 0004:00001b84       $pdata$__crt_atoflt_l      000000018003eb84     LIBCMT:atodbl.obj
 0004:00001b90       $pdata$_atodbl_l           000000018003eb90     LIBCMT:atodbl.obj
 0004:00001b9c       $pdata$__dtold             000000018003eb9c     LIBCMT:cfout.obj
 0004:00001ba8       $pdata$_fltout2            000000018003eba8     LIBCMT:cfout.obj
 0004:00001bb4       $pdata$__lock_fhandle      000000018003ebb4     LIBCMT:osfinfo.obj
 0004:00001bc0       $pdata$_free_osfhnd        000000018003ebc0     LIBCMT:osfinfo.obj
 0004:00001bcc       $pdata$_get_osfhandle      000000018003ebcc     LIBCMT:osfinfo.obj
 0004:00001bd8       $pdata$_mbtowc_l           000000018003ebd8     LIBCMT:mbtowc.obj
 0004:00001be4       $pdata$_putwch_nolock      000000018003ebe4     LIBCMT:putwch.obj
 0004:00001bf0       $pdata$_read               000000018003ebf0     LIBCMT:read.obj
 0004:00001bfc       $pdata$_read_nolock        000000018003ebfc     LIBCMT:read.obj
 0004:00001c08       $pdata$_towlower_l         000000018003ec08     LIBCMT:towlower.obj
 0004:00001c14       $pdata$iswctype            000000018003ec14     LIBCMT:iswctype.obj
 0004:00001c20       $pdata$_fputwc_nolock      000000018003ec20     LIBCMT:fputwc.obj
 0004:00001c2c       $pdata$?wcstoxl@@YAKPEB_WPEAPEB_WHH@Z 000000018003ec2c     LIBCMT:wcstol.obj
 0004:00001c38       $pdata$wcschr              000000018003ec38     LIBCMT:wcschr.obj
 0004:00001c44       $pdata$_wcsnicmp           000000018003ec44     LIBCMT:wcsnicmp.obj
 0004:00001c50       $pdata$_wcsnicmp_l         000000018003ec50     LIBCMT:wcsnicmp.obj
 0004:00001c5c       $pdata$_ld12tod            000000018003ec5c     LIBCMT:intrncvt.obj
 0004:00001c68       $pdata$_ld12tof            000000018003ec68     LIBCMT:intrncvt.obj
 0004:00001c74       $pdata$__strgtold12_l      000000018003ec74     LIBCMT:strgtold.obj
 0004:00001c80       $pdata$$I10_OUTPUT         000000018003ec80     LIBCMT:x10fout.obj
 0004:00001c8c       $pdata$__termconout        000000018003ec8c     LIBCMT:initcon.obj
 0004:00001c98       $pdata$__initconout        000000018003ec98     LIBCMT:initcon.obj
 0004:00001ca4       $pdata$_flswbuf            000000018003eca4     LIBCMT:_flswbuf.obj
 0004:00001cb0       $pdata$__mtold12           000000018003ecb0     LIBCMT:mantold.obj
 0004:00001cbc       $pdata$__delayLoadHelper2  000000018003ecbc     DelayImp:delayhlp.obj
 0004:00001cc8       $pdata$?dtor$0@?0???0?$basic_ostream@DU?$char_traits@D@std@@@std@@QEAA@PEAV?$basic_streambuf@DU?$char_traits@D@std@@@1@_N@Z@4HA 000000018003ecc8     node-midi.obj
 0004:00001cd4       $pdata$?dtor$0@?0???0?$basic_ostringstream@DU?$char_traits@D@std@@V?$allocator@D@2@@std@@QEAA@H@Z@4HA 000000018003ecd4     node-midi.obj
 0004:00001ce0       $pdata$?dtor$1@?0??_Getcat@?$numpunct@D@std@@SA_KPEAPEBVfacet@locale@2@PEBV42@@Z@4HA 000000018003ece0     node-midi.obj
 0004:00001cec       $pdata$?fin$0@?0???_M@YAXPEAX_KHP6AX0@Z@Z@4HA 000000018003ecec     LIBCMT:ehvecdtr.obj
 0004:00001cf8       $pdata$?filt$0@?0??__ArrayUnwind@@YAXPEAX_KHP6AX0@Z@Z@4HA 000000018003ecf8     LIBCMT:ehvecdtr.obj
 0004:00001d04       $pdata$_onexit$fin$0       000000018003ed04     LIBCMT:onexit.obj
 0004:00001d10       $pdata$?fin$0@?0???_L@YAXPEAX_KHP6AX0@Z2@Z@4HA 000000018003ed10     LIBCMT:ehvecctr.obj
 0004:00001d1c       $pdata$_CRT_INIT$fin$0     000000018003ed1c     LIBCMT:dllcrt0.obj
 0004:00001d28       $pdata$__DllMainCRTStartup$filt$0 000000018003ed28     LIBCMT:dllcrt0.obj
 0004:00001d34       $pdata$_CallSETranslator$filt$0 000000018003ed34     LIBCMT:trnsctrl.obj
 0004:00001d40       $pdata$setlocale$fin$0     000000018003ed40     LIBCMT:setlocal.obj
 0004:00001d4c       $pdata$flsall$fin$0        000000018003ed4c     LIBCMT:fflush.obj
 0004:00001d58       $pdata$flsall$fin$1        000000018003ed58     LIBCMT:fflush.obj
 0004:00001d64       $pdata$fwrite$fin$0        000000018003ed64     LIBCMT:fwrite.obj
 0004:00001d70       $pdata$setvbuf$fin$0       000000018003ed70     LIBCMT:setvbuf.obj
 0004:00001d7c       $pdata$ungetc$fin$0        000000018003ed7c     LIBCMT:ungetc.obj
 0004:00001d7c       $pdata$fputc$fin$0         000000018003ed7c     LIBCMT:ungetc.obj
 0004:00001d88       $pdata$_mtinitlocknum$fin$0 000000018003ed88     LIBCMT:mlock.obj
 0004:00001d94       $pdata$doexit$fin$0        000000018003ed94     LIBCMT:crt0dat.obj
 0004:00001da0       $pdata$raise$fin$0         000000018003eda0     LIBCMT:winsig.obj
 0004:00001dac       $pdata$_locterm$fin$0      000000018003edac     LIBCMT:localref.obj
 0004:00001dac       $pdata$__updatetlocinfo$fin$0 000000018003edac     LIBCMT:localref.obj
 0004:00001db8       $pdata$_initptd$fin$1      000000018003edb8     LIBCMT:tidtable.obj
 0004:00001db8       $pdata$_freefls$fin$1      000000018003edb8     LIBCMT:tidtable.obj
 0004:00001dc4       $pdata$_initptd$fin$0      000000018003edc4     LIBCMT:tidtable.obj
 0004:00001dc4       $pdata$_freefls$fin$0      000000018003edc4     LIBCMT:tidtable.obj
 0004:00001dd0       $pdata$fwprintf$fin$0      000000018003edd0     LIBCMT:fwprintf.obj
 0004:00001ddc       $pdata$?fin$0@?0??_Type_info_dtor@type_info@@CAXPEAV1@@Z@4HA 000000018003eddc     LIBCMT:typname.obj
 0004:00001de8       $pdata$_setmbcp$fin$0      000000018003ede8     LIBCMT:mbctype.obj
 0004:00001de8       $pdata$__updatetmbcinfo$fin$0 000000018003ede8     LIBCMT:mbctype.obj
 0004:00001df4       $pdata$_wsetlocale$fin$1   000000018003edf4     LIBCMT:wsetloca.obj
 0004:00001e00       $pdata$_wsetlocale$fin$0   000000018003ee00     LIBCMT:wsetloca.obj
 0004:00001e0c       $pdata$_wsetlocale$fin$2   000000018003ee0c     LIBCMT:wsetloca.obj
 0004:00001e18       $pdata$_ioinit$fin$0       000000018003ee18     LIBCMT:ioinit.obj
 0004:00001e24       $pdata$__CxxCallCatchBlock$filt$0 000000018003ee24     LIBCMT:frame.obj
 0004:00001e30       $pdata$__CxxCallCatchBlock$fin$1 000000018003ee30     LIBCMT:frame.obj
 0004:00001e3c       $pdata$__DestructExceptionObject$filt$0 000000018003ee3c     LIBCMT:frame.obj
 0004:00001e48       $pdata$__FrameUnwindToState$filt$0 000000018003ee48     LIBCMT:frame.obj
 0004:00001e54       $pdata$__FrameUnwindToState$fin$1 000000018003ee54     LIBCMT:frame.obj
 0004:00001e60       $pdata$_fcloseall$fin$0    000000018003ee60     LIBCMT:closeall.obj
 0004:00001e6c       $pdata$_close$fin$0        000000018003ee6c     LIBCMT:close.obj
 0004:00001e6c       $pdata$_commit$fin$0       000000018003ee6c     LIBCMT:close.obj
 0004:00001e78       $pdata$_ftelli64$fin$0     000000018003ee78     LIBCMT:ftelli64.obj
 0004:00001e78       $pdata$fflush$fin$0        000000018003ee78     LIBCMT:ftelli64.obj
 0004:00001e78       $pdata$fgetc$fin$0         000000018003ee78     LIBCMT:ftelli64.obj
 0004:00001e78       $pdata$fclose$fin$0        000000018003ee78     LIBCMT:ftelli64.obj
 0004:00001e78       $pdata$_fseeki64$fin$0     000000018003ee78     LIBCMT:ftelli64.obj
 0004:00001e84       $pdata$_IsNonwritableInCurrentImage$filt$0 000000018003ee84     LIBCMT:pesect.obj
 0004:00001e90       $pdata$__lock_fhandle$fin$0 000000018003ee90     LIBCMT:osfinfo.obj
 0004:00001e9c       $pdata$_lseeki64$fin$0     000000018003ee9c     LIBCMT:read.obj
 0004:00001e9c       $pdata$_write$fin$0        000000018003ee9c     LIBCMT:read.obj
 0004:00001e9c       $pdata$_read$fin$0         000000018003ee9c     LIBCMT:read.obj
 0004:00001ea8       $pdata$??__F_Fac_tidy_reg@std@@YAXXZ 000000018003eea8     libcpmt:locale0.obj
 0004:00001eb4       $pdata$??__Fclassic_locale@std@@YAXXZ 000000018003eeb4     libcpmt:locale0.obj
 0004:00001ec0       $pdata$??__Finit_atexit@@YAXXZ 000000018003eec0     libcpmt:iosptrs.obj
 0005:00000060       $R000000                   000000018003f060     * linker generated manifest res *

 Exports

  ordinal    name

        1    _register_midi_
